
kernel-i386.elf:     file format elf32-i386


Disassembly of section .multi:

00100000 <.multi>:
  100000:	02 b0 ad 1b 03 00    	add    0x31bad(%eax),%dh
  100006:	00 00                	add    %al,(%eax)
  100008:	fb                   	sti    
  100009:	4f                   	dec    %edi
  10000a:	52                   	push   %edx
  10000b:	e4                   	.byte 0xe4

Disassembly of section .text:

00101000 <code>:
  101000:	0f 01 15 80 aa 11 00 	lgdtl  0x11aa80
  101007:	66 b8 10 00          	mov    $0x10,%ax
  10100b:	8e d8                	mov    %eax,%ds
  10100d:	8e c0                	mov    %eax,%es
  10100f:	8e e0                	mov    %eax,%fs
  101011:	8e e8                	mov    %eax,%gs
  101013:	8e d0                	mov    %eax,%ss
  101015:	ea 1c 10 10 00 08 00 	ljmp   $0x8,$0x10101c

0010101c <flush2>:
  10101c:	c3                   	ret    

0010101d <tss_flush>:
  10101d:	66 b8 2b 00          	mov    $0x2b,%ax
  101021:	0f 00 d8             	ltr    %ax
  101024:	c3                   	ret    
  101025:	66 90                	xchg   %ax,%ax
  101027:	66 90                	xchg   %ax,%ax
  101029:	66 90                	xchg   %ax,%ax
  10102b:	66 90                	xchg   %ax,%ax
  10102d:	66 90                	xchg   %ax,%ax
  10102f:	90                   	nop

00101030 <idt_load>:
  101030:	0f 01 1d 60 ab 11 00 	lidtl  0x11ab60
  101037:	c3                   	ret    

00101038 <isr0>:
  101038:	fa                   	cli    
  101039:	6a 00                	push   $0x0
  10103b:	6a 00                	push   $0x0
  10103d:	e9 2a 01 00 00       	jmp    10116c <isr_common_stub>

00101042 <isr1>:
  101042:	fa                   	cli    
  101043:	6a 00                	push   $0x0
  101045:	6a 01                	push   $0x1
  101047:	e9 20 01 00 00       	jmp    10116c <isr_common_stub>

0010104c <isr2>:
  10104c:	fa                   	cli    
  10104d:	6a 00                	push   $0x0
  10104f:	6a 02                	push   $0x2
  101051:	e9 16 01 00 00       	jmp    10116c <isr_common_stub>

00101056 <isr3>:
  101056:	fa                   	cli    
  101057:	6a 00                	push   $0x0
  101059:	6a 03                	push   $0x3
  10105b:	e9 0c 01 00 00       	jmp    10116c <isr_common_stub>

00101060 <isr4>:
  101060:	fa                   	cli    
  101061:	6a 00                	push   $0x0
  101063:	6a 04                	push   $0x4
  101065:	e9 02 01 00 00       	jmp    10116c <isr_common_stub>

0010106a <isr5>:
  10106a:	fa                   	cli    
  10106b:	6a 00                	push   $0x0
  10106d:	6a 05                	push   $0x5
  10106f:	e9 f8 00 00 00       	jmp    10116c <isr_common_stub>

00101074 <isr6>:
  101074:	fa                   	cli    
  101075:	6a 00                	push   $0x0
  101077:	6a 06                	push   $0x6
  101079:	e9 ee 00 00 00       	jmp    10116c <isr_common_stub>

0010107e <isr7>:
  10107e:	fa                   	cli    
  10107f:	6a 00                	push   $0x0
  101081:	6a 07                	push   $0x7
  101083:	e9 e4 00 00 00       	jmp    10116c <isr_common_stub>

00101088 <isr8>:
  101088:	fa                   	cli    
  101089:	6a 08                	push   $0x8
  10108b:	e9 dc 00 00 00       	jmp    10116c <isr_common_stub>

00101090 <isr9>:
  101090:	fa                   	cli    
  101091:	6a 00                	push   $0x0
  101093:	6a 09                	push   $0x9
  101095:	e9 d2 00 00 00       	jmp    10116c <isr_common_stub>

0010109a <isr10>:
  10109a:	fa                   	cli    
  10109b:	6a 0a                	push   $0xa
  10109d:	e9 ca 00 00 00       	jmp    10116c <isr_common_stub>

001010a2 <isr11>:
  1010a2:	fa                   	cli    
  1010a3:	6a 0b                	push   $0xb
  1010a5:	e9 c2 00 00 00       	jmp    10116c <isr_common_stub>

001010aa <isr12>:
  1010aa:	fa                   	cli    
  1010ab:	6a 0c                	push   $0xc
  1010ad:	e9 ba 00 00 00       	jmp    10116c <isr_common_stub>

001010b2 <isr13>:
  1010b2:	fa                   	cli    
  1010b3:	6a 0d                	push   $0xd
  1010b5:	e9 b2 00 00 00       	jmp    10116c <isr_common_stub>

001010ba <isr14>:
  1010ba:	fa                   	cli    
  1010bb:	6a 0e                	push   $0xe
  1010bd:	e9 aa 00 00 00       	jmp    10116c <isr_common_stub>

001010c2 <isr15>:
  1010c2:	fa                   	cli    
  1010c3:	6a 00                	push   $0x0
  1010c5:	6a 0f                	push   $0xf
  1010c7:	e9 a0 00 00 00       	jmp    10116c <isr_common_stub>

001010cc <isr16>:
  1010cc:	fa                   	cli    
  1010cd:	6a 00                	push   $0x0
  1010cf:	6a 10                	push   $0x10
  1010d1:	e9 96 00 00 00       	jmp    10116c <isr_common_stub>

001010d6 <isr17>:
  1010d6:	fa                   	cli    
  1010d7:	6a 00                	push   $0x0
  1010d9:	6a 11                	push   $0x11
  1010db:	e9 8c 00 00 00       	jmp    10116c <isr_common_stub>

001010e0 <isr18>:
  1010e0:	fa                   	cli    
  1010e1:	6a 00                	push   $0x0
  1010e3:	6a 12                	push   $0x12
  1010e5:	e9 82 00 00 00       	jmp    10116c <isr_common_stub>

001010ea <isr19>:
  1010ea:	fa                   	cli    
  1010eb:	6a 00                	push   $0x0
  1010ed:	6a 13                	push   $0x13
  1010ef:	e9 78 00 00 00       	jmp    10116c <isr_common_stub>

001010f4 <isr20>:
  1010f4:	fa                   	cli    
  1010f5:	6a 00                	push   $0x0
  1010f7:	6a 14                	push   $0x14
  1010f9:	e9 6e 00 00 00       	jmp    10116c <isr_common_stub>

001010fe <isr21>:
  1010fe:	fa                   	cli    
  1010ff:	6a 00                	push   $0x0
  101101:	6a 15                	push   $0x15
  101103:	e9 64 00 00 00       	jmp    10116c <isr_common_stub>

00101108 <isr22>:
  101108:	fa                   	cli    
  101109:	6a 00                	push   $0x0
  10110b:	6a 16                	push   $0x16
  10110d:	e9 5a 00 00 00       	jmp    10116c <isr_common_stub>

00101112 <isr23>:
  101112:	fa                   	cli    
  101113:	6a 00                	push   $0x0
  101115:	6a 17                	push   $0x17
  101117:	e9 50 00 00 00       	jmp    10116c <isr_common_stub>

0010111c <isr24>:
  10111c:	fa                   	cli    
  10111d:	6a 00                	push   $0x0
  10111f:	6a 18                	push   $0x18
  101121:	e9 46 00 00 00       	jmp    10116c <isr_common_stub>

00101126 <isr25>:
  101126:	fa                   	cli    
  101127:	6a 00                	push   $0x0
  101129:	6a 19                	push   $0x19
  10112b:	e9 3c 00 00 00       	jmp    10116c <isr_common_stub>

00101130 <isr26>:
  101130:	fa                   	cli    
  101131:	6a 00                	push   $0x0
  101133:	6a 1a                	push   $0x1a
  101135:	e9 32 00 00 00       	jmp    10116c <isr_common_stub>

0010113a <isr27>:
  10113a:	fa                   	cli    
  10113b:	6a 00                	push   $0x0
  10113d:	6a 1b                	push   $0x1b
  10113f:	e9 28 00 00 00       	jmp    10116c <isr_common_stub>

00101144 <isr28>:
  101144:	fa                   	cli    
  101145:	6a 00                	push   $0x0
  101147:	6a 1c                	push   $0x1c
  101149:	e9 1e 00 00 00       	jmp    10116c <isr_common_stub>

0010114e <isr29>:
  10114e:	fa                   	cli    
  10114f:	6a 00                	push   $0x0
  101151:	6a 1d                	push   $0x1d
  101153:	e9 14 00 00 00       	jmp    10116c <isr_common_stub>

00101158 <isr30>:
  101158:	fa                   	cli    
  101159:	6a 00                	push   $0x0
  10115b:	6a 1e                	push   $0x1e
  10115d:	e9 0a 00 00 00       	jmp    10116c <isr_common_stub>

00101162 <isr31>:
  101162:	fa                   	cli    
  101163:	6a 00                	push   $0x0
  101165:	6a 1f                	push   $0x1f
  101167:	e9 00 00 00 00       	jmp    10116c <isr_common_stub>

0010116c <isr_common_stub>:
  10116c:	60                   	pusha  
  10116d:	1e                   	push   %ds
  10116e:	06                   	push   %es
  10116f:	0f a0                	push   %fs
  101171:	0f a8                	push   %gs
  101173:	66 b8 10 00          	mov    $0x10,%ax
  101177:	8e d8                	mov    %eax,%ds
  101179:	8e c0                	mov    %eax,%es
  10117b:	8e e0                	mov    %eax,%fs
  10117d:	8e e8                	mov    %eax,%gs
  10117f:	89 e0                	mov    %esp,%eax
  101181:	50                   	push   %eax
  101182:	b8 5c 1f 10 00       	mov    $0x101f5c,%eax
  101187:	ff d0                	call   *%eax
  101189:	58                   	pop    %eax
  10118a:	0f a9                	pop    %gs
  10118c:	0f a1                	pop    %fs
  10118e:	07                   	pop    %es
  10118f:	1f                   	pop    %ds
  101190:	61                   	popa   
  101191:	81 c4 08 00 00 00    	add    $0x8,%esp
  101197:	cf                   	iret   

00101198 <irq0>:
  101198:	fa                   	cli    
  101199:	6a 00                	push   $0x0
  10119b:	6a 20                	push   $0x20
  10119d:	e9 96 00 00 00       	jmp    101238 <irq_common_stub>

001011a2 <irq1>:
  1011a2:	fa                   	cli    
  1011a3:	6a 00                	push   $0x0
  1011a5:	6a 21                	push   $0x21
  1011a7:	e9 8c 00 00 00       	jmp    101238 <irq_common_stub>

001011ac <irq2>:
  1011ac:	fa                   	cli    
  1011ad:	6a 00                	push   $0x0
  1011af:	6a 22                	push   $0x22
  1011b1:	e9 82 00 00 00       	jmp    101238 <irq_common_stub>

001011b6 <irq3>:
  1011b6:	fa                   	cli    
  1011b7:	6a 00                	push   $0x0
  1011b9:	6a 23                	push   $0x23
  1011bb:	e9 78 00 00 00       	jmp    101238 <irq_common_stub>

001011c0 <irq4>:
  1011c0:	fa                   	cli    
  1011c1:	6a 00                	push   $0x0
  1011c3:	6a 24                	push   $0x24
  1011c5:	e9 6e 00 00 00       	jmp    101238 <irq_common_stub>

001011ca <irq5>:
  1011ca:	fa                   	cli    
  1011cb:	6a 00                	push   $0x0
  1011cd:	6a 25                	push   $0x25
  1011cf:	e9 64 00 00 00       	jmp    101238 <irq_common_stub>

001011d4 <irq6>:
  1011d4:	fa                   	cli    
  1011d5:	6a 00                	push   $0x0
  1011d7:	6a 26                	push   $0x26
  1011d9:	e9 5a 00 00 00       	jmp    101238 <irq_common_stub>

001011de <irq7>:
  1011de:	fa                   	cli    
  1011df:	6a 00                	push   $0x0
  1011e1:	6a 27                	push   $0x27
  1011e3:	e9 50 00 00 00       	jmp    101238 <irq_common_stub>

001011e8 <irq8>:
  1011e8:	fa                   	cli    
  1011e9:	6a 00                	push   $0x0
  1011eb:	6a 28                	push   $0x28
  1011ed:	e9 46 00 00 00       	jmp    101238 <irq_common_stub>

001011f2 <irq9>:
  1011f2:	fa                   	cli    
  1011f3:	6a 00                	push   $0x0
  1011f5:	6a 29                	push   $0x29
  1011f7:	e9 3c 00 00 00       	jmp    101238 <irq_common_stub>

001011fc <irq10>:
  1011fc:	fa                   	cli    
  1011fd:	6a 00                	push   $0x0
  1011ff:	6a 2a                	push   $0x2a
  101201:	e9 32 00 00 00       	jmp    101238 <irq_common_stub>

00101206 <irq11>:
  101206:	fa                   	cli    
  101207:	6a 00                	push   $0x0
  101209:	6a 2b                	push   $0x2b
  10120b:	e9 28 00 00 00       	jmp    101238 <irq_common_stub>

00101210 <irq12>:
  101210:	fa                   	cli    
  101211:	6a 00                	push   $0x0
  101213:	6a 2c                	push   $0x2c
  101215:	e9 1e 00 00 00       	jmp    101238 <irq_common_stub>

0010121a <irq13>:
  10121a:	fa                   	cli    
  10121b:	6a 00                	push   $0x0
  10121d:	6a 2d                	push   $0x2d
  10121f:	e9 14 00 00 00       	jmp    101238 <irq_common_stub>

00101224 <irq14>:
  101224:	fa                   	cli    
  101225:	6a 00                	push   $0x0
  101227:	6a 2e                	push   $0x2e
  101229:	e9 0a 00 00 00       	jmp    101238 <irq_common_stub>

0010122e <irq15>:
  10122e:	fa                   	cli    
  10122f:	6a 00                	push   $0x0
  101231:	6a 2f                	push   $0x2f
  101233:	e9 00 00 00 00       	jmp    101238 <irq_common_stub>

00101238 <irq_common_stub>:
  101238:	60                   	pusha  
  101239:	1e                   	push   %ds
  10123a:	06                   	push   %es
  10123b:	0f a0                	push   %fs
  10123d:	0f a8                	push   %gs
  10123f:	66 b8 10 00          	mov    $0x10,%ax
  101243:	8e d8                	mov    %eax,%ds
  101245:	8e c0                	mov    %eax,%es
  101247:	8e e0                	mov    %eax,%fs
  101249:	8e e8                	mov    %eax,%gs
  10124b:	89 e0                	mov    %esp,%eax
  10124d:	50                   	push   %eax
  10124e:	b8 84 19 10 00       	mov    $0x101984,%eax
  101253:	ff d0                	call   *%eax
  101255:	58                   	pop    %eax
  101256:	0f a9                	pop    %gs
  101258:	0f a1                	pop    %fs
  10125a:	07                   	pop    %es
  10125b:	1f                   	pop    %ds
  10125c:	61                   	popa   
  10125d:	81 c4 08 00 00 00    	add    $0x8,%esp
  101263:	cf                   	iret   

00101264 <task_switch_stub>:
  101264:	89 c4                	mov    %eax,%esp
  101266:	b0 20                	mov    $0x20,%al
  101268:	e6 20                	out    %al,$0x20
  10126a:	0f a9                	pop    %gs
  10126c:	0f a1                	pop    %fs
  10126e:	07                   	pop    %es
  10126f:	1f                   	pop    %ds
  101270:	61                   	popa   
  101271:	81 c4 08 00 00 00    	add    $0x8,%esp
  101277:	cf                   	iret   
  101278:	66 90                	xchg   %ax,%ax
  10127a:	66 90                	xchg   %ax,%ax
  10127c:	66 90                	xchg   %ax,%ax
  10127e:	66 90                	xchg   %ax,%ax

00101280 <start>:
  101280:	fa                   	cli    
  101281:	bc a0 a1 11 00       	mov    $0x11a1a0,%esp
  101286:	53                   	push   %ebx
  101287:	e8 c4 3a 00 00       	call   104d50 <main>
  10128c:	66 90                	xchg   %ax,%ax
  10128e:	66 90                	xchg   %ax,%ax

00101290 <int128>:
  101290:	fa                   	cli    
  101291:	6a 00                	push   $0x0
  101293:	6a 80                	push   $0xffffff80
  101295:	60                   	pusha  
  101296:	1e                   	push   %ds
  101297:	06                   	push   %es
  101298:	0f a0                	push   %fs
  10129a:	0f a8                	push   %gs
  10129c:	66 b8 10 00          	mov    $0x10,%ax
  1012a0:	8e d8                	mov    %eax,%ds
  1012a2:	8e c0                	mov    %eax,%es
  1012a4:	8e e0                	mov    %eax,%fs
  1012a6:	8e e8                	mov    %eax,%gs
  1012a8:	89 e0                	mov    %esp,%eax
  1012aa:	50                   	push   %eax
  1012ab:	b8 9f 28 10 00       	mov    $0x10289f,%eax
  1012b0:	ff d0                	call   *%eax
  1012b2:	58                   	pop    %eax
  1012b3:	0f a9                	pop    %gs
  1012b5:	0f a1                	pop    %fs
  1012b7:	07                   	pop    %es
  1012b8:	1f                   	pop    %ds
  1012b9:	61                   	popa   
  1012ba:	81 c4 08 00 00 00    	add    $0x8,%esp
  1012c0:	cf                   	iret   

001012c1 <kernel_sysenter_entry>:
  1012c1:	52                   	push   %edx
  1012c2:	51                   	push   %ecx
  1012c3:	b8 9f 28 10 00       	mov    $0x10289f,%eax
  1012c8:	ff d0                	call   *%eax
  1012ca:	0f 35                	sysexit 

001012cc <cpuid>:
  1012cc:	53                   	push   %ebx
  1012cd:	8b 44 24 08          	mov    0x8(%esp),%eax
  1012d1:	0f a2                	cpuid  
  1012d3:	8b 4c 24 0c          	mov    0xc(%esp),%ecx
  1012d7:	89 01                	mov    %eax,(%ecx)
  1012d9:	8b 44 24 10          	mov    0x10(%esp),%eax
  1012dd:	89 10                	mov    %edx,(%eax)
  1012df:	5b                   	pop    %ebx
  1012e0:	c3                   	ret    

001012e1 <cpuid_string>:
  1012e1:	56                   	push   %esi
  1012e2:	53                   	push   %ebx
  1012e3:	8b 44 24 0c          	mov    0xc(%esp),%eax
  1012e7:	8b 74 24 10          	mov    0x10(%esp),%esi
  1012eb:	0f a2                	cpuid  
  1012ed:	89 06                	mov    %eax,(%esi)
  1012ef:	89 5e 04             	mov    %ebx,0x4(%esi)
  1012f2:	89 4e 08             	mov    %ecx,0x8(%esi)
  1012f5:	89 56 0c             	mov    %edx,0xc(%esi)
  1012f8:	5b                   	pop    %ebx
  1012f9:	5e                   	pop    %esi
  1012fa:	c3                   	ret    
  1012fb:	90                   	nop

001012fc <gpf_handler>:
  1012fc:	83 ec 1c             	sub    $0x1c,%esp
  1012ff:	8b 44 24 20          	mov    0x20(%esp),%eax
  101303:	f6 40 42 02          	testb  $0x2,0x42(%eax)
  101307:	74 1a                	je     101323 <gpf_handler+0x27>
  101309:	c7 04 24 00 80 10 00 	movl   $0x108000,(%esp)
  101310:	e8 c1 39 00 00       	call   104cd6 <kprintf>
  101315:	c7 04 24 ff ff ff ff 	movl   $0xffffffff,(%esp)
  10131c:	e8 09 3f 00 00       	call   10522a <exit>
  101321:	eb 1f                	jmp    101342 <gpf_handler+0x46>
  101323:	8b 40 38             	mov    0x38(%eax),%eax
  101326:	89 44 24 04          	mov    %eax,0x4(%esp)
  10132a:	c7 04 24 38 80 10 00 	movl   $0x108038,(%esp)
  101331:	e8 a0 39 00 00       	call   104cd6 <kprintf>
  101336:	c7 04 24 ff ff ff ff 	movl   $0xffffffff,(%esp)
  10133d:	e8 e8 3e 00 00       	call   10522a <exit>
  101342:	83 c4 1c             	add    $0x1c,%esp
  101345:	c3                   	ret    

00101346 <page_fault_handler>:
  101346:	56                   	push   %esi
  101347:	53                   	push   %ebx
  101348:	83 ec 14             	sub    $0x14,%esp
  10134b:	8b 5c 24 20          	mov    0x20(%esp),%ebx
  10134f:	0f 20 d0             	mov    %cr2,%eax
  101352:	8b 53 34             	mov    0x34(%ebx),%edx
  101355:	89 54 24 08          	mov    %edx,0x8(%esp)
  101359:	89 44 24 04          	mov    %eax,0x4(%esp)
  10135d:	c7 04 24 70 80 10 00 	movl   $0x108070,(%esp)
  101364:	e8 ab 39 00 00       	call   104d14 <error_kprintf>
  101369:	8b 43 34             	mov    0x34(%ebx),%eax
  10136c:	be 1a 80 10 00       	mov    $0x10801a,%esi
  101371:	a8 04                	test   $0x4,%al
  101373:	74 05                	je     10137a <page_fault_handler+0x34>
  101375:	be 15 80 10 00       	mov    $0x108015,%esi
  10137a:	b9 2b 80 10 00       	mov    $0x10802b,%ecx
  10137f:	a8 02                	test   $0x2,%al
  101381:	74 05                	je     101388 <page_fault_handler+0x42>
  101383:	b9 25 80 10 00       	mov    $0x108025,%ecx
  101388:	ba 34 80 10 00       	mov    $0x108034,%edx
  10138d:	a8 01                	test   $0x1,%al
  10138f:	74 05                	je     101396 <page_fault_handler+0x50>
  101391:	ba 30 80 10 00       	mov    $0x108030,%edx
  101396:	89 74 24 0c          	mov    %esi,0xc(%esp)
  10139a:	89 4c 24 08          	mov    %ecx,0x8(%esp)
  10139e:	89 54 24 04          	mov    %edx,0x4(%esp)
  1013a2:	c7 04 24 b0 80 10 00 	movl   $0x1080b0,(%esp)
  1013a9:	e8 66 39 00 00       	call   104d14 <error_kprintf>
  1013ae:	89 1c 24             	mov    %ebx,(%esp)
  1013b1:	e8 ba 0a 00 00       	call   101e70 <dump_registers>
  1013b6:	eb fe                	jmp    1013b6 <page_fault_handler+0x70>

001013b8 <set_fpu_cw>:
  1013b8:	83 ec 04             	sub    $0x4,%esp
  1013bb:	8b 44 24 08          	mov    0x8(%esp),%eax
  1013bf:	66 89 04 24          	mov    %ax,(%esp)
  1013c3:	d9 2c 24             	fldcw  (%esp)
  1013c6:	83 c4 04             	add    $0x4,%esp
  1013c9:	c3                   	ret    

001013ca <enable_fpu>:
  1013ca:	83 ec 04             	sub    $0x4,%esp
  1013cd:	0f 20 e0             	mov    %cr4,%eax
  1013d0:	80 cc 02             	or     $0x2,%ah
  1013d3:	0f 22 e0             	mov    %eax,%cr4
  1013d6:	c7 04 24 7f 03 00 00 	movl   $0x37f,(%esp)
  1013dd:	e8 d6 ff ff ff       	call   1013b8 <set_fpu_cw>
  1013e2:	83 c4 04             	add    $0x4,%esp
  1013e5:	c3                   	ret    

001013e6 <init_fpu>:
  1013e6:	e8 df ff ff ff       	call   1013ca <enable_fpu>
  1013eb:	c3                   	ret    

001013ec <gdt_set_gate>:
  1013ec:	53                   	push   %ebx
  1013ed:	8b 44 24 08          	mov    0x8(%esp),%eax
  1013f1:	8b 54 24 0c          	mov    0xc(%esp),%edx
  1013f5:	8b 4c 24 10          	mov    0x10(%esp),%ecx
  1013f9:	66 89 14 c5 a2 aa 11 	mov    %dx,0x11aaa2(,%eax,8)
  101400:	00 
  101401:	89 d3                	mov    %edx,%ebx
  101403:	c1 eb 10             	shr    $0x10,%ebx
  101406:	88 1c c5 a4 aa 11 00 	mov    %bl,0x11aaa4(,%eax,8)
  10140d:	c1 ea 18             	shr    $0x18,%edx
  101410:	88 14 c5 a7 aa 11 00 	mov    %dl,0x11aaa7(,%eax,8)
  101417:	66 89 0c c5 a0 aa 11 	mov    %cx,0x11aaa0(,%eax,8)
  10141e:	00 
  10141f:	8a 54 24 18          	mov    0x18(%esp),%dl
  101423:	83 e2 f0             	and    $0xfffffff0,%edx
  101426:	c1 e9 10             	shr    $0x10,%ecx
  101429:	83 e1 0f             	and    $0xf,%ecx
  10142c:	09 d1                	or     %edx,%ecx
  10142e:	88 0c c5 a6 aa 11 00 	mov    %cl,0x11aaa6(,%eax,8)
  101435:	8b 54 24 14          	mov    0x14(%esp),%edx
  101439:	88 14 c5 a5 aa 11 00 	mov    %dl,0x11aaa5(,%eax,8)
  101440:	5b                   	pop    %ebx
  101441:	c3                   	ret    

00101442 <write_tss>:
  101442:	56                   	push   %esi
  101443:	53                   	push   %ebx
  101444:	83 ec 24             	sub    $0x24,%esp
  101447:	8b 74 24 34          	mov    0x34(%esp),%esi
  10144b:	8b 5c 24 38          	mov    0x38(%esp),%ebx
  10144f:	c7 44 24 10 00 00 00 	movl   $0x0,0x10(%esp)
  101456:	00 
  101457:	c7 44 24 0c e9 00 00 	movl   $0xe9,0xc(%esp)
  10145e:	00 
  10145f:	c7 44 24 08 44 ab 11 	movl   $0x11ab44,0x8(%esp)
  101466:	00 
  101467:	c7 44 24 04 e0 aa 11 	movl   $0x11aae0,0x4(%esp)
  10146e:	00 
  10146f:	8b 44 24 30          	mov    0x30(%esp),%eax
  101473:	89 04 24             	mov    %eax,(%esp)
  101476:	e8 71 ff ff ff       	call   1013ec <gdt_set_gate>
  10147b:	c7 44 24 08 64 00 00 	movl   $0x64,0x8(%esp)
  101482:	00 
  101483:	c7 44 24 04 00 00 00 	movl   $0x0,0x4(%esp)
  10148a:	00 
  10148b:	c7 04 24 e0 aa 11 00 	movl   $0x11aae0,(%esp)
  101492:	e8 26 5e 00 00       	call   1072bd <memset>
  101497:	81 e6 ff ff 00 00    	and    $0xffff,%esi
  10149d:	89 35 e8 aa 11 00    	mov    %esi,0x11aae8
  1014a3:	81 e3 ff ff 00 00    	and    $0xffff,%ebx
  1014a9:	89 1d e4 aa 11 00    	mov    %ebx,0x11aae4
  1014af:	c7 05 2c ab 11 00 0b 	movl   $0xb,0x11ab2c
  1014b6:	00 00 00 
  1014b9:	c7 05 3c ab 11 00 13 	movl   $0x13,0x11ab3c
  1014c0:	00 00 00 
  1014c3:	c7 05 38 ab 11 00 13 	movl   $0x13,0x11ab38
  1014ca:	00 00 00 
  1014cd:	c7 05 28 ab 11 00 13 	movl   $0x13,0x11ab28
  1014d4:	00 00 00 
  1014d7:	c7 05 34 ab 11 00 13 	movl   $0x13,0x11ab34
  1014de:	00 00 00 
  1014e1:	c7 05 30 ab 11 00 13 	movl   $0x13,0x11ab30
  1014e8:	00 00 00 
  1014eb:	83 c4 24             	add    $0x24,%esp
  1014ee:	5b                   	pop    %ebx
  1014ef:	5e                   	pop    %esi
  1014f0:	c3                   	ret    

001014f1 <set_kernel_stack>:
  1014f1:	83 ec 1c             	sub    $0x1c,%esp
  1014f4:	8b 44 24 20          	mov    0x20(%esp),%eax
  1014f8:	a3 e4 aa 11 00       	mov    %eax,0x11aae4
  1014fd:	c7 44 24 08 00 00 00 	movl   $0x0,0x8(%esp)
  101504:	00 
  101505:	89 44 24 04          	mov    %eax,0x4(%esp)
  101509:	c7 04 24 75 01 00 00 	movl   $0x175,(%esp)
  101510:	e8 aa 0d 00 00       	call   1022bf <wrmsr>
  101515:	83 c4 1c             	add    $0x1c,%esp
  101518:	c3                   	ret    

00101519 <gdt_install>:
  101519:	83 ec 2c             	sub    $0x2c,%esp
  10151c:	66 c7 05 80 aa 11 00 	movw   $0x2f,0x11aa80
  101523:	2f 00 
  101525:	c7 05 82 aa 11 00 a0 	movl   $0x11aaa0,0x11aa82
  10152c:	aa 11 00 
  10152f:	c7 44 24 10 00 00 00 	movl   $0x0,0x10(%esp)
  101536:	00 
  101537:	c7 44 24 0c 00 00 00 	movl   $0x0,0xc(%esp)
  10153e:	00 
  10153f:	c7 44 24 08 00 00 00 	movl   $0x0,0x8(%esp)
  101546:	00 
  101547:	c7 44 24 04 00 00 00 	movl   $0x0,0x4(%esp)
  10154e:	00 
  10154f:	c7 04 24 00 00 00 00 	movl   $0x0,(%esp)
  101556:	e8 91 fe ff ff       	call   1013ec <gdt_set_gate>
  10155b:	c7 44 24 10 cf 00 00 	movl   $0xcf,0x10(%esp)
  101562:	00 
  101563:	c7 44 24 0c 9a 00 00 	movl   $0x9a,0xc(%esp)
  10156a:	00 
  10156b:	c7 44 24 08 ff ff ff 	movl   $0xffffffff,0x8(%esp)
  101572:	ff 
  101573:	c7 44 24 04 00 00 00 	movl   $0x0,0x4(%esp)
  10157a:	00 
  10157b:	c7 04 24 01 00 00 00 	movl   $0x1,(%esp)
  101582:	e8 65 fe ff ff       	call   1013ec <gdt_set_gate>
  101587:	c7 44 24 10 cf 00 00 	movl   $0xcf,0x10(%esp)
  10158e:	00 
  10158f:	c7 44 24 0c 92 00 00 	movl   $0x92,0xc(%esp)
  101596:	00 
  101597:	c7 44 24 08 ff ff ff 	movl   $0xffffffff,0x8(%esp)
  10159e:	ff 
  10159f:	c7 44 24 04 00 00 00 	movl   $0x0,0x4(%esp)
  1015a6:	00 
  1015a7:	c7 04 24 02 00 00 00 	movl   $0x2,(%esp)
  1015ae:	e8 39 fe ff ff       	call   1013ec <gdt_set_gate>
  1015b3:	c7 44 24 10 cf 00 00 	movl   $0xcf,0x10(%esp)
  1015ba:	00 
  1015bb:	c7 44 24 0c fa 00 00 	movl   $0xfa,0xc(%esp)
  1015c2:	00 
  1015c3:	c7 44 24 08 ff ff ff 	movl   $0xffffffff,0x8(%esp)
  1015ca:	ff 
  1015cb:	c7 44 24 04 00 00 00 	movl   $0x0,0x4(%esp)
  1015d2:	00 
  1015d3:	c7 04 24 03 00 00 00 	movl   $0x3,(%esp)
  1015da:	e8 0d fe ff ff       	call   1013ec <gdt_set_gate>
  1015df:	c7 44 24 10 cf 00 00 	movl   $0xcf,0x10(%esp)
  1015e6:	00 
  1015e7:	c7 44 24 0c f2 00 00 	movl   $0xf2,0xc(%esp)
  1015ee:	00 
  1015ef:	c7 44 24 08 ff ff ff 	movl   $0xffffffff,0x8(%esp)
  1015f6:	ff 
  1015f7:	c7 44 24 04 00 00 00 	movl   $0x0,0x4(%esp)
  1015fe:	00 
  1015ff:	c7 04 24 04 00 00 00 	movl   $0x4,(%esp)
  101606:	e8 e1 fd ff ff       	call   1013ec <gdt_set_gate>
  10160b:	c7 44 24 08 10 00 00 	movl   $0x10,0x8(%esp)
  101612:	00 
  101613:	c7 44 24 04 10 00 00 	movl   $0x10,0x4(%esp)
  10161a:	00 
  10161b:	c7 04 24 05 00 00 00 	movl   $0x5,(%esp)
  101622:	e8 1b fe ff ff       	call   101442 <write_tss>
  101627:	e8 d4 f9 ff ff       	call   101000 <code>
  10162c:	e8 ec f9 ff ff       	call   10101d <tss_flush>
  101631:	83 c4 2c             	add    $0x2c,%esp
  101634:	c3                   	ret    
  101635:	66 90                	xchg   %ax,%ax
  101637:	90                   	nop

00101638 <idt_set_gate>:
  101638:	8b 54 24 08          	mov    0x8(%esp),%edx
  10163c:	31 c0                	xor    %eax,%eax
  10163e:	8a 44 24 04          	mov    0x4(%esp),%al
  101642:	66 89 14 c5 80 ab 11 	mov    %dx,0x11ab80(,%eax,8)
  101649:	00 
  10164a:	c1 ea 10             	shr    $0x10,%edx
  10164d:	66 89 14 c5 86 ab 11 	mov    %dx,0x11ab86(,%eax,8)
  101654:	00 
  101655:	66 c7 04 c5 82 ab 11 	movw   $0x8,0x11ab82(,%eax,8)
  10165c:	00 08 00 
  10165f:	c6 04 c5 84 ab 11 00 	movb   $0x0,0x11ab84(,%eax,8)
  101666:	00 
  101667:	80 7c 24 0c 01       	cmpb   $0x1,0xc(%esp)
  10166c:	19 d2                	sbb    %edx,%edx
  10166e:	83 e2 a0             	and    $0xffffffa0,%edx
  101671:	83 ea 12             	sub    $0x12,%edx
  101674:	88 14 c5 85 ab 11 00 	mov    %dl,0x11ab85(,%eax,8)
  10167b:	c3                   	ret    

0010167c <idt_install>:
  10167c:	83 ec 1c             	sub    $0x1c,%esp
  10167f:	66 c7 05 60 ab 11 00 	movw   $0x7ff,0x11ab60
  101686:	ff 07 
  101688:	c7 05 62 ab 11 00 80 	movl   $0x11ab80,0x11ab62
  10168f:	ab 11 00 
  101692:	c7 44 24 08 00 08 00 	movl   $0x800,0x8(%esp)
  101699:	00 
  10169a:	c7 44 24 04 00 00 00 	movl   $0x0,0x4(%esp)
  1016a1:	00 
  1016a2:	c7 04 24 80 ab 11 00 	movl   $0x11ab80,(%esp)
  1016a9:	e8 0f 5c 00 00       	call   1072bd <memset>
  1016ae:	e8 7d f9 ff ff       	call   101030 <idt_load>
  1016b3:	83 c4 1c             	add    $0x1c,%esp
  1016b6:	c3                   	ret    
  1016b7:	90                   	nop

001016b8 <ioapic_read_register>:
  1016b8:	31 d2                	xor    %edx,%edx
  1016ba:	8a 54 24 04          	mov    0x4(%esp),%dl
  1016be:	a1 80 b3 11 00       	mov    0x11b380,%eax
  1016c3:	89 10                	mov    %edx,(%eax)
  1016c5:	a1 80 b3 11 00       	mov    0x11b380,%eax
  1016ca:	8b 40 10             	mov    0x10(%eax),%eax
  1016cd:	c3                   	ret    

001016ce <ioapic_write_register>:
  1016ce:	31 d2                	xor    %edx,%edx
  1016d0:	8a 54 24 04          	mov    0x4(%esp),%dl
  1016d4:	a1 80 b3 11 00       	mov    0x11b380,%eax
  1016d9:	89 10                	mov    %edx,(%eax)
  1016db:	a1 80 b3 11 00       	mov    0x11b380,%eax
  1016e0:	8b 54 24 08          	mov    0x8(%esp),%edx
  1016e4:	89 50 10             	mov    %edx,0x10(%eax)
  1016e7:	c3                   	ret    

001016e8 <ioapic_configure_irq>:
  1016e8:	56                   	push   %esi
  1016e9:	53                   	push   %ebx
  1016ea:	83 ec 08             	sub    $0x8,%esp
  1016ed:	0f b6 74 24 24       	movzbl 0x24(%esp),%esi
  1016f2:	31 db                	xor    %ebx,%ebx
  1016f4:	8a 5c 24 14          	mov    0x14(%esp),%bl
  1016f8:	8d 5c 1b 10          	lea    0x10(%ebx,%ebx,1),%ebx
  1016fc:	31 c0                	xor    %eax,%eax
  1016fe:	8a 44 24 1c          	mov    0x1c(%esp),%al
  101702:	c1 e0 08             	shl    $0x8,%eax
  101705:	31 d2                	xor    %edx,%edx
  101707:	8a 54 24 18          	mov    0x18(%esp),%dl
  10170b:	09 d0                	or     %edx,%eax
  10170d:	31 d2                	xor    %edx,%edx
  10170f:	8a 54 24 20          	mov    0x20(%esp),%dl
  101713:	c1 e2 0b             	shl    $0xb,%edx
  101716:	09 d0                	or     %edx,%eax
  101718:	89 44 24 04          	mov    %eax,0x4(%esp)
  10171c:	31 c0                	xor    %eax,%eax
  10171e:	88 d8                	mov    %bl,%al
  101720:	89 04 24             	mov    %eax,(%esp)
  101723:	e8 a6 ff ff ff       	call   1016ce <ioapic_write_register>
  101728:	81 e6 ff 00 00 00    	and    $0xff,%esi
  10172e:	89 74 24 04          	mov    %esi,0x4(%esp)
  101732:	43                   	inc    %ebx
  101733:	81 e3 ff 00 00 00    	and    $0xff,%ebx
  101739:	89 1c 24             	mov    %ebx,(%esp)
  10173c:	e8 8d ff ff ff       	call   1016ce <ioapic_write_register>
  101741:	83 c4 08             	add    $0x8,%esp
  101744:	5b                   	pop    %ebx
  101745:	5e                   	pop    %esi
  101746:	c3                   	ret    

00101747 <ioapic_install>:
  101747:	53                   	push   %ebx
  101748:	83 ec 18             	sub    $0x18,%esp
  10174b:	c7 05 80 b3 11 00 00 	movl   $0xfec00000,0x11b380
  101752:	00 c0 fe 
  101755:	bb 14 00 00 00       	mov    $0x14,%ebx
  10175a:	c7 44 24 14 00 00 00 	movl   $0x0,0x14(%esp)
  101761:	00 
  101762:	c7 44 24 10 01 00 00 	movl   $0x1,0x10(%esp)
  101769:	00 
  10176a:	c7 44 24 0c 00 00 00 	movl   $0x0,0xc(%esp)
  101771:	00 
  101772:	c7 44 24 08 00 00 00 	movl   $0x0,0x8(%esp)
  101779:	00 
  10177a:	c7 44 24 04 00 00 00 	movl   $0x0,0x4(%esp)
  101781:	00 
  101782:	0f b6 c3             	movzbl %bl,%eax
  101785:	89 04 24             	mov    %eax,(%esp)
  101788:	e8 5b ff ff ff       	call   1016e8 <ioapic_configure_irq>
  10178d:	43                   	inc    %ebx
  10178e:	83 fb 18             	cmp    $0x18,%ebx
  101791:	75 c7                	jne    10175a <ioapic_install+0x13>
  101793:	83 c4 18             	add    $0x18,%esp
  101796:	5b                   	pop    %ebx
  101797:	c3                   	ret    

00101798 <irq_install>:
  101798:	83 ec 1c             	sub    $0x1c,%esp
  10179b:	e8 24 0d 00 00       	call   1024c4 <pic_install>
  1017a0:	c7 44 24 08 03 00 00 	movl   $0x3,0x8(%esp)
  1017a7:	00 
  1017a8:	c7 44 24 04 98 11 10 	movl   $0x101198,0x4(%esp)
  1017af:	00 
  1017b0:	c7 04 24 20 00 00 00 	movl   $0x20,(%esp)
  1017b7:	e8 7c fe ff ff       	call   101638 <idt_set_gate>
  1017bc:	c7 44 24 08 03 00 00 	movl   $0x3,0x8(%esp)
  1017c3:	00 
  1017c4:	c7 44 24 04 a2 11 10 	movl   $0x1011a2,0x4(%esp)
  1017cb:	00 
  1017cc:	c7 04 24 21 00 00 00 	movl   $0x21,(%esp)
  1017d3:	e8 60 fe ff ff       	call   101638 <idt_set_gate>
  1017d8:	c7 44 24 08 03 00 00 	movl   $0x3,0x8(%esp)
  1017df:	00 
  1017e0:	c7 44 24 04 ac 11 10 	movl   $0x1011ac,0x4(%esp)
  1017e7:	00 
  1017e8:	c7 04 24 22 00 00 00 	movl   $0x22,(%esp)
  1017ef:	e8 44 fe ff ff       	call   101638 <idt_set_gate>
  1017f4:	c7 44 24 08 03 00 00 	movl   $0x3,0x8(%esp)
  1017fb:	00 
  1017fc:	c7 44 24 04 b6 11 10 	movl   $0x1011b6,0x4(%esp)
  101803:	00 
  101804:	c7 04 24 23 00 00 00 	movl   $0x23,(%esp)
  10180b:	e8 28 fe ff ff       	call   101638 <idt_set_gate>
  101810:	c7 44 24 08 03 00 00 	movl   $0x3,0x8(%esp)
  101817:	00 
  101818:	c7 44 24 04 c0 11 10 	movl   $0x1011c0,0x4(%esp)
  10181f:	00 
  101820:	c7 04 24 24 00 00 00 	movl   $0x24,(%esp)
  101827:	e8 0c fe ff ff       	call   101638 <idt_set_gate>
  10182c:	c7 44 24 08 03 00 00 	movl   $0x3,0x8(%esp)
  101833:	00 
  101834:	c7 44 24 04 ca 11 10 	movl   $0x1011ca,0x4(%esp)
  10183b:	00 
  10183c:	c7 04 24 25 00 00 00 	movl   $0x25,(%esp)
  101843:	e8 f0 fd ff ff       	call   101638 <idt_set_gate>
  101848:	c7 44 24 08 03 00 00 	movl   $0x3,0x8(%esp)
  10184f:	00 
  101850:	c7 44 24 04 d4 11 10 	movl   $0x1011d4,0x4(%esp)
  101857:	00 
  101858:	c7 04 24 26 00 00 00 	movl   $0x26,(%esp)
  10185f:	e8 d4 fd ff ff       	call   101638 <idt_set_gate>
  101864:	c7 44 24 08 03 00 00 	movl   $0x3,0x8(%esp)
  10186b:	00 
  10186c:	c7 44 24 04 de 11 10 	movl   $0x1011de,0x4(%esp)
  101873:	00 
  101874:	c7 04 24 27 00 00 00 	movl   $0x27,(%esp)
  10187b:	e8 b8 fd ff ff       	call   101638 <idt_set_gate>
  101880:	c7 44 24 08 03 00 00 	movl   $0x3,0x8(%esp)
  101887:	00 
  101888:	c7 44 24 04 e8 11 10 	movl   $0x1011e8,0x4(%esp)
  10188f:	00 
  101890:	c7 04 24 28 00 00 00 	movl   $0x28,(%esp)
  101897:	e8 9c fd ff ff       	call   101638 <idt_set_gate>
  10189c:	c7 44 24 08 03 00 00 	movl   $0x3,0x8(%esp)
  1018a3:	00 
  1018a4:	c7 44 24 04 f2 11 10 	movl   $0x1011f2,0x4(%esp)
  1018ab:	00 
  1018ac:	c7 04 24 29 00 00 00 	movl   $0x29,(%esp)
  1018b3:	e8 80 fd ff ff       	call   101638 <idt_set_gate>
  1018b8:	c7 44 24 08 03 00 00 	movl   $0x3,0x8(%esp)
  1018bf:	00 
  1018c0:	c7 44 24 04 fc 11 10 	movl   $0x1011fc,0x4(%esp)
  1018c7:	00 
  1018c8:	c7 04 24 2a 00 00 00 	movl   $0x2a,(%esp)
  1018cf:	e8 64 fd ff ff       	call   101638 <idt_set_gate>
  1018d4:	c7 44 24 08 03 00 00 	movl   $0x3,0x8(%esp)
  1018db:	00 
  1018dc:	c7 44 24 04 06 12 10 	movl   $0x101206,0x4(%esp)
  1018e3:	00 
  1018e4:	c7 04 24 2b 00 00 00 	movl   $0x2b,(%esp)
  1018eb:	e8 48 fd ff ff       	call   101638 <idt_set_gate>
  1018f0:	c7 44 24 08 03 00 00 	movl   $0x3,0x8(%esp)
  1018f7:	00 
  1018f8:	c7 44 24 04 10 12 10 	movl   $0x101210,0x4(%esp)
  1018ff:	00 
  101900:	c7 04 24 2c 00 00 00 	movl   $0x2c,(%esp)
  101907:	e8 2c fd ff ff       	call   101638 <idt_set_gate>
  10190c:	c7 44 24 08 03 00 00 	movl   $0x3,0x8(%esp)
  101913:	00 
  101914:	c7 44 24 04 1a 12 10 	movl   $0x10121a,0x4(%esp)
  10191b:	00 
  10191c:	c7 04 24 2d 00 00 00 	movl   $0x2d,(%esp)
  101923:	e8 10 fd ff ff       	call   101638 <idt_set_gate>
  101928:	c7 44 24 08 03 00 00 	movl   $0x3,0x8(%esp)
  10192f:	00 
  101930:	c7 44 24 04 24 12 10 	movl   $0x101224,0x4(%esp)
  101937:	00 
  101938:	c7 04 24 2e 00 00 00 	movl   $0x2e,(%esp)
  10193f:	e8 f4 fc ff ff       	call   101638 <idt_set_gate>
  101944:	c7 44 24 08 03 00 00 	movl   $0x3,0x8(%esp)
  10194b:	00 
  10194c:	c7 44 24 04 2e 12 10 	movl   $0x10122e,0x4(%esp)
  101953:	00 
  101954:	c7 04 24 2f 00 00 00 	movl   $0x2f,(%esp)
  10195b:	e8 d8 fc ff ff       	call   101638 <idt_set_gate>
  101960:	83 c4 1c             	add    $0x1c,%esp
  101963:	c3                   	ret    

00101964 <irq_install_handler>:
  101964:	8b 54 24 08          	mov    0x8(%esp),%edx
  101968:	8b 44 24 04          	mov    0x4(%esp),%eax
  10196c:	89 14 85 c0 a1 11 00 	mov    %edx,0x11a1c0(,%eax,4)
  101973:	c3                   	ret    

00101974 <irq_uninstall_handler>:
  101974:	8b 44 24 04          	mov    0x4(%esp),%eax
  101978:	c7 04 85 c0 a1 11 00 	movl   $0x0,0x11a1c0(,%eax,4)
  10197f:	00 00 00 00 
  101983:	c3                   	ret    

00101984 <irq_handler>:
  101984:	53                   	push   %ebx
  101985:	83 ec 18             	sub    $0x18,%esp
  101988:	8b 5c 24 20          	mov    0x20(%esp),%ebx
  10198c:	8b 43 30             	mov    0x30(%ebx),%eax
  10198f:	8b 04 85 40 a1 11 00 	mov    0x11a140(,%eax,4),%eax
  101996:	85 c0                	test   %eax,%eax
  101998:	74 05                	je     10199f <irq_handler+0x1b>
  10199a:	89 1c 24             	mov    %ebx,(%esp)
  10199d:	ff d0                	call   *%eax
  10199f:	a0 a0 a1 11 00       	mov    0x11a1a0,%al
  1019a4:	84 c0                	test   %al,%al
  1019a6:	75 10                	jne    1019b8 <irq_handler+0x34>
  1019a8:	8b 43 30             	mov    0x30(%ebx),%eax
  1019ab:	83 e8 20             	sub    $0x20,%eax
  1019ae:	89 04 24             	mov    %eax,(%esp)
  1019b1:	e8 fa 09 00 00       	call   1023b0 <pic_eoi>
  1019b6:	eb 09                	jmp    1019c1 <irq_handler+0x3d>
  1019b8:	3c 01                	cmp    $0x1,%al
  1019ba:	75 05                	jne    1019c1 <irq_handler+0x3d>
  1019bc:	e8 21 07 00 00       	call   1020e2 <lapic_eoi>
  1019c1:	83 c4 18             	add    $0x18,%esp
  1019c4:	5b                   	pop    %ebx
  1019c5:	c3                   	ret    
  1019c6:	66 90                	xchg   %ax,%ax

001019c8 <isr_install_handler>:
  1019c8:	8b 54 24 08          	mov    0x8(%esp),%edx
  1019cc:	8b 44 24 04          	mov    0x4(%esp),%eax
  1019d0:	89 14 85 20 a2 11 00 	mov    %edx,0x11a220(,%eax,4)
  1019d7:	c3                   	ret    

001019d8 <isrs_install>:
  1019d8:	83 ec 1c             	sub    $0x1c,%esp
  1019db:	c7 44 24 08 03 00 00 	movl   $0x3,0x8(%esp)
  1019e2:	00 
  1019e3:	c7 44 24 04 38 10 10 	movl   $0x101038,0x4(%esp)
  1019ea:	00 
  1019eb:	c7 04 24 00 00 00 00 	movl   $0x0,(%esp)
  1019f2:	e8 41 fc ff ff       	call   101638 <idt_set_gate>
  1019f7:	c7 44 24 08 03 00 00 	movl   $0x3,0x8(%esp)
  1019fe:	00 
  1019ff:	c7 44 24 04 42 10 10 	movl   $0x101042,0x4(%esp)
  101a06:	00 
  101a07:	c7 04 24 01 00 00 00 	movl   $0x1,(%esp)
  101a0e:	e8 25 fc ff ff       	call   101638 <idt_set_gate>
  101a13:	c7 44 24 08 03 00 00 	movl   $0x3,0x8(%esp)
  101a1a:	00 
  101a1b:	c7 44 24 04 4c 10 10 	movl   $0x10104c,0x4(%esp)
  101a22:	00 
  101a23:	c7 04 24 02 00 00 00 	movl   $0x2,(%esp)
  101a2a:	e8 09 fc ff ff       	call   101638 <idt_set_gate>
  101a2f:	c7 44 24 08 03 00 00 	movl   $0x3,0x8(%esp)
  101a36:	00 
  101a37:	c7 44 24 04 56 10 10 	movl   $0x101056,0x4(%esp)
  101a3e:	00 
  101a3f:	c7 04 24 03 00 00 00 	movl   $0x3,(%esp)
  101a46:	e8 ed fb ff ff       	call   101638 <idt_set_gate>
  101a4b:	c7 44 24 08 03 00 00 	movl   $0x3,0x8(%esp)
  101a52:	00 
  101a53:	c7 44 24 04 60 10 10 	movl   $0x101060,0x4(%esp)
  101a5a:	00 
  101a5b:	c7 04 24 04 00 00 00 	movl   $0x4,(%esp)
  101a62:	e8 d1 fb ff ff       	call   101638 <idt_set_gate>
  101a67:	c7 44 24 08 03 00 00 	movl   $0x3,0x8(%esp)
  101a6e:	00 
  101a6f:	c7 44 24 04 6a 10 10 	movl   $0x10106a,0x4(%esp)
  101a76:	00 
  101a77:	c7 04 24 05 00 00 00 	movl   $0x5,(%esp)
  101a7e:	e8 b5 fb ff ff       	call   101638 <idt_set_gate>
  101a83:	c7 44 24 08 03 00 00 	movl   $0x3,0x8(%esp)
  101a8a:	00 
  101a8b:	c7 44 24 04 74 10 10 	movl   $0x101074,0x4(%esp)
  101a92:	00 
  101a93:	c7 04 24 06 00 00 00 	movl   $0x6,(%esp)
  101a9a:	e8 99 fb ff ff       	call   101638 <idt_set_gate>
  101a9f:	c7 44 24 08 03 00 00 	movl   $0x3,0x8(%esp)
  101aa6:	00 
  101aa7:	c7 44 24 04 7e 10 10 	movl   $0x10107e,0x4(%esp)
  101aae:	00 
  101aaf:	c7 04 24 07 00 00 00 	movl   $0x7,(%esp)
  101ab6:	e8 7d fb ff ff       	call   101638 <idt_set_gate>
  101abb:	c7 44 24 08 03 00 00 	movl   $0x3,0x8(%esp)
  101ac2:	00 
  101ac3:	c7 44 24 04 88 10 10 	movl   $0x101088,0x4(%esp)
  101aca:	00 
  101acb:	c7 04 24 08 00 00 00 	movl   $0x8,(%esp)
  101ad2:	e8 61 fb ff ff       	call   101638 <idt_set_gate>
  101ad7:	c7 44 24 08 03 00 00 	movl   $0x3,0x8(%esp)
  101ade:	00 
  101adf:	c7 44 24 04 90 10 10 	movl   $0x101090,0x4(%esp)
  101ae6:	00 
  101ae7:	c7 04 24 09 00 00 00 	movl   $0x9,(%esp)
  101aee:	e8 45 fb ff ff       	call   101638 <idt_set_gate>
  101af3:	c7 44 24 08 03 00 00 	movl   $0x3,0x8(%esp)
  101afa:	00 
  101afb:	c7 44 24 04 9a 10 10 	movl   $0x10109a,0x4(%esp)
  101b02:	00 
  101b03:	c7 04 24 0a 00 00 00 	movl   $0xa,(%esp)
  101b0a:	e8 29 fb ff ff       	call   101638 <idt_set_gate>
  101b0f:	c7 44 24 08 03 00 00 	movl   $0x3,0x8(%esp)
  101b16:	00 
  101b17:	c7 44 24 04 a2 10 10 	movl   $0x1010a2,0x4(%esp)
  101b1e:	00 
  101b1f:	c7 04 24 0b 00 00 00 	movl   $0xb,(%esp)
  101b26:	e8 0d fb ff ff       	call   101638 <idt_set_gate>
  101b2b:	c7 44 24 08 03 00 00 	movl   $0x3,0x8(%esp)
  101b32:	00 
  101b33:	c7 44 24 04 aa 10 10 	movl   $0x1010aa,0x4(%esp)
  101b3a:	00 
  101b3b:	c7 04 24 0c 00 00 00 	movl   $0xc,(%esp)
  101b42:	e8 f1 fa ff ff       	call   101638 <idt_set_gate>
  101b47:	c7 44 24 08 03 00 00 	movl   $0x3,0x8(%esp)
  101b4e:	00 
  101b4f:	c7 44 24 04 b2 10 10 	movl   $0x1010b2,0x4(%esp)
  101b56:	00 
  101b57:	c7 04 24 0d 00 00 00 	movl   $0xd,(%esp)
  101b5e:	e8 d5 fa ff ff       	call   101638 <idt_set_gate>
  101b63:	c7 44 24 08 03 00 00 	movl   $0x3,0x8(%esp)
  101b6a:	00 
  101b6b:	c7 44 24 04 ba 10 10 	movl   $0x1010ba,0x4(%esp)
  101b72:	00 
  101b73:	c7 04 24 0e 00 00 00 	movl   $0xe,(%esp)
  101b7a:	e8 b9 fa ff ff       	call   101638 <idt_set_gate>
  101b7f:	c7 44 24 08 03 00 00 	movl   $0x3,0x8(%esp)
  101b86:	00 
  101b87:	c7 44 24 04 c2 10 10 	movl   $0x1010c2,0x4(%esp)
  101b8e:	00 
  101b8f:	c7 04 24 0f 00 00 00 	movl   $0xf,(%esp)
  101b96:	e8 9d fa ff ff       	call   101638 <idt_set_gate>
  101b9b:	c7 44 24 08 03 00 00 	movl   $0x3,0x8(%esp)
  101ba2:	00 
  101ba3:	c7 44 24 04 cc 10 10 	movl   $0x1010cc,0x4(%esp)
  101baa:	00 
  101bab:	c7 04 24 10 00 00 00 	movl   $0x10,(%esp)
  101bb2:	e8 81 fa ff ff       	call   101638 <idt_set_gate>
  101bb7:	c7 44 24 08 03 00 00 	movl   $0x3,0x8(%esp)
  101bbe:	00 
  101bbf:	c7 44 24 04 d6 10 10 	movl   $0x1010d6,0x4(%esp)
  101bc6:	00 
  101bc7:	c7 04 24 11 00 00 00 	movl   $0x11,(%esp)
  101bce:	e8 65 fa ff ff       	call   101638 <idt_set_gate>
  101bd3:	c7 44 24 08 03 00 00 	movl   $0x3,0x8(%esp)
  101bda:	00 
  101bdb:	c7 44 24 04 e0 10 10 	movl   $0x1010e0,0x4(%esp)
  101be2:	00 
  101be3:	c7 04 24 12 00 00 00 	movl   $0x12,(%esp)
  101bea:	e8 49 fa ff ff       	call   101638 <idt_set_gate>
  101bef:	c7 44 24 08 03 00 00 	movl   $0x3,0x8(%esp)
  101bf6:	00 
  101bf7:	c7 44 24 04 ea 10 10 	movl   $0x1010ea,0x4(%esp)
  101bfe:	00 
  101bff:	c7 04 24 13 00 00 00 	movl   $0x13,(%esp)
  101c06:	e8 2d fa ff ff       	call   101638 <idt_set_gate>
  101c0b:	c7 44 24 08 03 00 00 	movl   $0x3,0x8(%esp)
  101c12:	00 
  101c13:	c7 44 24 04 f4 10 10 	movl   $0x1010f4,0x4(%esp)
  101c1a:	00 
  101c1b:	c7 04 24 14 00 00 00 	movl   $0x14,(%esp)
  101c22:	e8 11 fa ff ff       	call   101638 <idt_set_gate>
  101c27:	c7 44 24 08 03 00 00 	movl   $0x3,0x8(%esp)
  101c2e:	00 
  101c2f:	c7 44 24 04 fe 10 10 	movl   $0x1010fe,0x4(%esp)
  101c36:	00 
  101c37:	c7 04 24 15 00 00 00 	movl   $0x15,(%esp)
  101c3e:	e8 f5 f9 ff ff       	call   101638 <idt_set_gate>
  101c43:	c7 44 24 08 03 00 00 	movl   $0x3,0x8(%esp)
  101c4a:	00 
  101c4b:	c7 44 24 04 08 11 10 	movl   $0x101108,0x4(%esp)
  101c52:	00 
  101c53:	c7 04 24 16 00 00 00 	movl   $0x16,(%esp)
  101c5a:	e8 d9 f9 ff ff       	call   101638 <idt_set_gate>
  101c5f:	c7 44 24 08 03 00 00 	movl   $0x3,0x8(%esp)
  101c66:	00 
  101c67:	c7 44 24 04 12 11 10 	movl   $0x101112,0x4(%esp)
  101c6e:	00 
  101c6f:	c7 04 24 17 00 00 00 	movl   $0x17,(%esp)
  101c76:	e8 bd f9 ff ff       	call   101638 <idt_set_gate>
  101c7b:	c7 44 24 08 03 00 00 	movl   $0x3,0x8(%esp)
  101c82:	00 
  101c83:	c7 44 24 04 1c 11 10 	movl   $0x10111c,0x4(%esp)
  101c8a:	00 
  101c8b:	c7 04 24 18 00 00 00 	movl   $0x18,(%esp)
  101c92:	e8 a1 f9 ff ff       	call   101638 <idt_set_gate>
  101c97:	c7 44 24 08 03 00 00 	movl   $0x3,0x8(%esp)
  101c9e:	00 
  101c9f:	c7 44 24 04 26 11 10 	movl   $0x101126,0x4(%esp)
  101ca6:	00 
  101ca7:	c7 04 24 19 00 00 00 	movl   $0x19,(%esp)
  101cae:	e8 85 f9 ff ff       	call   101638 <idt_set_gate>
  101cb3:	c7 44 24 08 03 00 00 	movl   $0x3,0x8(%esp)
  101cba:	00 
  101cbb:	c7 44 24 04 30 11 10 	movl   $0x101130,0x4(%esp)
  101cc2:	00 
  101cc3:	c7 04 24 1a 00 00 00 	movl   $0x1a,(%esp)
  101cca:	e8 69 f9 ff ff       	call   101638 <idt_set_gate>
  101ccf:	c7 44 24 08 03 00 00 	movl   $0x3,0x8(%esp)
  101cd6:	00 
  101cd7:	c7 44 24 04 3a 11 10 	movl   $0x10113a,0x4(%esp)
  101cde:	00 
  101cdf:	c7 04 24 1b 00 00 00 	movl   $0x1b,(%esp)
  101ce6:	e8 4d f9 ff ff       	call   101638 <idt_set_gate>
  101ceb:	c7 44 24 08 03 00 00 	movl   $0x3,0x8(%esp)
  101cf2:	00 
  101cf3:	c7 44 24 04 44 11 10 	movl   $0x101144,0x4(%esp)
  101cfa:	00 
  101cfb:	c7 04 24 1c 00 00 00 	movl   $0x1c,(%esp)
  101d02:	e8 31 f9 ff ff       	call   101638 <idt_set_gate>
  101d07:	c7 44 24 08 03 00 00 	movl   $0x3,0x8(%esp)
  101d0e:	00 
  101d0f:	c7 44 24 04 4e 11 10 	movl   $0x10114e,0x4(%esp)
  101d16:	00 
  101d17:	c7 04 24 1d 00 00 00 	movl   $0x1d,(%esp)
  101d1e:	e8 15 f9 ff ff       	call   101638 <idt_set_gate>
  101d23:	c7 44 24 08 03 00 00 	movl   $0x3,0x8(%esp)
  101d2a:	00 
  101d2b:	c7 44 24 04 58 11 10 	movl   $0x101158,0x4(%esp)
  101d32:	00 
  101d33:	c7 04 24 1e 00 00 00 	movl   $0x1e,(%esp)
  101d3a:	e8 f9 f8 ff ff       	call   101638 <idt_set_gate>
  101d3f:	c7 44 24 08 03 00 00 	movl   $0x3,0x8(%esp)
  101d46:	00 
  101d47:	c7 44 24 04 62 11 10 	movl   $0x101162,0x4(%esp)
  101d4e:	00 
  101d4f:	c7 04 24 1f 00 00 00 	movl   $0x1f,(%esp)
  101d56:	e8 dd f8 ff ff       	call   101638 <idt_set_gate>
  101d5b:	c7 44 24 04 fc 12 10 	movl   $0x1012fc,0x4(%esp)
  101d62:	00 
  101d63:	c7 04 24 0d 00 00 00 	movl   $0xd,(%esp)
  101d6a:	e8 59 fc ff ff       	call   1019c8 <isr_install_handler>
  101d6f:	c7 44 24 04 46 13 10 	movl   $0x101346,0x4(%esp)
  101d76:	00 
  101d77:	c7 04 24 0e 00 00 00 	movl   $0xe,(%esp)
  101d7e:	e8 45 fc ff ff       	call   1019c8 <isr_install_handler>
  101d83:	83 c4 1c             	add    $0x1c,%esp
  101d86:	c3                   	ret    

00101d87 <isr_uninstall_handler>:
  101d87:	8b 44 24 04          	mov    0x4(%esp),%eax
  101d8b:	c7 04 85 20 a2 11 00 	movl   $0x0,0x11a220(,%eax,4)
  101d92:	00 00 00 00 
  101d96:	c3                   	ret    

00101d97 <create_registers>:
  101d97:	53                   	push   %ebx
  101d98:	83 ec 18             	sub    $0x18,%esp
  101d9b:	8a 5c 24 24          	mov    0x24(%esp),%bl
  101d9f:	c7 04 24 5c 00 00 00 	movl   $0x5c,(%esp)
  101da6:	e8 dc 20 00 00       	call   103e87 <kmalloc>
  101dab:	c7 40 40 02 02 00 00 	movl   $0x202,0x40(%eax)
  101db2:	c7 40 3c 08 00 00 00 	movl   $0x8,0x3c(%eax)
  101db9:	8b 54 24 20          	mov    0x20(%esp),%edx
  101dbd:	89 50 38             	mov    %edx,0x38(%eax)
  101dc0:	c7 40 2c 00 00 00 00 	movl   $0x0,0x2c(%eax)
  101dc7:	c7 40 28 00 00 00 00 	movl   $0x0,0x28(%eax)
  101dce:	c7 40 24 00 00 00 00 	movl   $0x0,0x24(%eax)
  101dd5:	c7 40 20 00 00 00 00 	movl   $0x0,0x20(%eax)
  101ddc:	c7 40 1c 00 00 00 00 	movl   $0x0,0x1c(%eax)
  101de3:	c7 40 18 00 00 00 00 	movl   $0x0,0x18(%eax)
  101dea:	c7 40 14 00 00 00 00 	movl   $0x0,0x14(%eax)
  101df1:	c7 40 10 00 00 00 00 	movl   $0x0,0x10(%eax)
  101df8:	c7 00 10 00 00 00    	movl   $0x10,(%eax)
  101dfe:	c7 40 04 10 00 00 00 	movl   $0x10,0x4(%eax)
  101e05:	c7 40 08 10 00 00 00 	movl   $0x10,0x8(%eax)
  101e0c:	c7 40 0c 10 00 00 00 	movl   $0x10,0xc(%eax)
  101e13:	80 fb 03             	cmp    $0x3,%bl
  101e16:	75 30                	jne    101e48 <create_registers+0xb1>
  101e18:	c7 40 48 23 00 00 00 	movl   $0x23,0x48(%eax)
  101e1f:	c7 40 44 00 00 00 00 	movl   $0x0,0x44(%eax)
  101e26:	c7 40 3c 1b 00 00 00 	movl   $0x1b,0x3c(%eax)
  101e2d:	c7 00 23 00 00 00    	movl   $0x23,(%eax)
  101e33:	c7 40 04 23 00 00 00 	movl   $0x23,0x4(%eax)
  101e3a:	c7 40 08 23 00 00 00 	movl   $0x23,0x8(%eax)
  101e41:	c7 40 0c 23 00 00 00 	movl   $0x23,0xc(%eax)
  101e48:	83 c4 18             	add    $0x18,%esp
  101e4b:	5b                   	pop    %ebx
  101e4c:	c3                   	ret    

00101e4d <copy_registers>:
  101e4d:	83 ec 1c             	sub    $0x1c,%esp
  101e50:	c7 44 24 08 5c 00 00 	movl   $0x5c,0x8(%esp)
  101e57:	00 
  101e58:	8b 44 24 24          	mov    0x24(%esp),%eax
  101e5c:	89 44 24 04          	mov    %eax,0x4(%esp)
  101e60:	8b 44 24 20          	mov    0x20(%esp),%eax
  101e64:	89 04 24             	mov    %eax,(%esp)
  101e67:	e8 2c 54 00 00       	call   107298 <memcpy>
  101e6c:	83 c4 1c             	add    $0x1c,%esp
  101e6f:	c3                   	ret    

00101e70 <dump_registers>:
  101e70:	53                   	push   %ebx
  101e71:	83 ec 28             	sub    $0x28,%esp
  101e74:	8b 5c 24 30          	mov    0x30(%esp),%ebx
  101e78:	c7 04 24 d3 80 10 00 	movl   $0x1080d3,(%esp)
  101e7f:	e8 52 2e 00 00       	call   104cd6 <kprintf>
  101e84:	8b 43 24             	mov    0x24(%ebx),%eax
  101e87:	89 44 24 10          	mov    %eax,0x10(%esp)
  101e8b:	8b 43 28             	mov    0x28(%ebx),%eax
  101e8e:	89 44 24 0c          	mov    %eax,0xc(%esp)
  101e92:	8b 43 20             	mov    0x20(%ebx),%eax
  101e95:	89 44 24 08          	mov    %eax,0x8(%esp)
  101e99:	8b 43 2c             	mov    0x2c(%ebx),%eax
  101e9c:	89 44 24 04          	mov    %eax,0x4(%esp)
  101ea0:	c7 04 24 40 82 10 00 	movl   $0x108240,(%esp)
  101ea7:	e8 2a 2e 00 00       	call   104cd6 <kprintf>
  101eac:	8b 43 18             	mov    0x18(%ebx),%eax
  101eaf:	89 44 24 10          	mov    %eax,0x10(%esp)
  101eb3:	8b 43 44             	mov    0x44(%ebx),%eax
  101eb6:	89 44 24 0c          	mov    %eax,0xc(%esp)
  101eba:	8b 43 10             	mov    0x10(%ebx),%eax
  101ebd:	89 44 24 08          	mov    %eax,0x8(%esp)
  101ec1:	8b 43 14             	mov    0x14(%ebx),%eax
  101ec4:	89 44 24 04          	mov    %eax,0x4(%esp)
  101ec8:	c7 04 24 6c 82 10 00 	movl   $0x10826c,(%esp)
  101ecf:	e8 02 2e 00 00       	call   104cd6 <kprintf>
  101ed4:	8b 43 08             	mov    0x8(%ebx),%eax
  101ed7:	89 44 24 0c          	mov    %eax,0xc(%esp)
  101edb:	8b 43 0c             	mov    0xc(%ebx),%eax
  101ede:	89 44 24 08          	mov    %eax,0x8(%esp)
  101ee2:	8b 43 3c             	mov    0x3c(%ebx),%eax
  101ee5:	89 44 24 04          	mov    %eax,0x4(%esp)
  101ee9:	c7 04 24 98 82 10 00 	movl   $0x108298,(%esp)
  101ef0:	e8 e1 2d 00 00       	call   104cd6 <kprintf>
  101ef5:	8b 43 48             	mov    0x48(%ebx),%eax
  101ef8:	89 44 24 0c          	mov    %eax,0xc(%esp)
  101efc:	8b 03                	mov    (%ebx),%eax
  101efe:	89 44 24 08          	mov    %eax,0x8(%esp)
  101f02:	8b 43 04             	mov    0x4(%ebx),%eax
  101f05:	89 44 24 04          	mov    %eax,0x4(%esp)
  101f09:	c7 04 24 b8 82 10 00 	movl   $0x1082b8,(%esp)
  101f10:	e8 c1 2d 00 00       	call   104cd6 <kprintf>
  101f15:	8b 43 40             	mov    0x40(%ebx),%eax
  101f18:	89 44 24 08          	mov    %eax,0x8(%esp)
  101f1c:	8b 43 38             	mov    0x38(%ebx),%eax
  101f1f:	89 44 24 04          	mov    %eax,0x4(%esp)
  101f23:	c7 04 24 e3 80 10 00 	movl   $0x1080e3,(%esp)
  101f2a:	e8 a7 2d 00 00       	call   104cd6 <kprintf>
  101f2f:	0f 20 c0             	mov    %cr0,%eax
  101f32:	0f 20 d2             	mov    %cr2,%edx
  101f35:	0f 20 d9             	mov    %cr3,%ecx
  101f38:	0f 20 e3             	mov    %cr4,%ebx
  101f3b:	89 5c 24 10          	mov    %ebx,0x10(%esp)
  101f3f:	89 4c 24 0c          	mov    %ecx,0xc(%esp)
  101f43:	89 54 24 08          	mov    %edx,0x8(%esp)
  101f47:	89 44 24 04          	mov    %eax,0x4(%esp)
  101f4b:	c7 04 24 d8 82 10 00 	movl   $0x1082d8,(%esp)
  101f52:	e8 7f 2d 00 00       	call   104cd6 <kprintf>
  101f57:	83 c4 28             	add    $0x28,%esp
  101f5a:	5b                   	pop    %ebx
  101f5b:	c3                   	ret    

00101f5c <fault_handler>:
  101f5c:	53                   	push   %ebx
  101f5d:	83 ec 18             	sub    $0x18,%esp
  101f60:	8b 5c 24 20          	mov    0x20(%esp),%ebx
  101f64:	8b 43 30             	mov    0x30(%ebx),%eax
  101f67:	83 f8 1f             	cmp    $0x1f,%eax
  101f6a:	77 3a                	ja     101fa6 <fault_handler+0x4a>
  101f6c:	8b 14 85 20 a2 11 00 	mov    0x11a220(,%eax,4),%edx
  101f73:	85 d2                	test   %edx,%edx
  101f75:	74 07                	je     101f7e <fault_handler+0x22>
  101f77:	89 1c 24             	mov    %ebx,(%esp)
  101f7a:	ff d2                	call   *%edx
  101f7c:	eb 28                	jmp    101fa6 <fault_handler+0x4a>
  101f7e:	8b 53 38             	mov    0x38(%ebx),%edx
  101f81:	89 54 24 08          	mov    %edx,0x8(%esp)
  101f85:	8b 04 85 00 a0 10 00 	mov    0x10a000(,%eax,4),%eax
  101f8c:	89 44 24 04          	mov    %eax,0x4(%esp)
  101f90:	c7 04 24 04 83 10 00 	movl   $0x108304,(%esp)
  101f97:	e8 78 2d 00 00       	call   104d14 <error_kprintf>
  101f9c:	89 1c 24             	mov    %ebx,(%esp)
  101f9f:	e8 cc fe ff ff       	call   101e70 <dump_registers>
  101fa4:	eb fe                	jmp    101fa4 <fault_handler+0x48>
  101fa6:	83 c4 18             	add    $0x18,%esp
  101fa9:	5b                   	pop    %ebx
  101faa:	c3                   	ret    

00101fab <stack_trace>:
  101fab:	56                   	push   %esi
  101fac:	53                   	push   %ebx
  101fad:	83 ec 14             	sub    $0x14,%esp
  101fb0:	8b 74 24 24          	mov    0x24(%esp),%esi
  101fb4:	39 74 24 20          	cmp    %esi,0x20(%esp)
  101fb8:	73 1d                	jae    101fd7 <stack_trace+0x2c>
  101fba:	8b 5c 24 20          	mov    0x20(%esp),%ebx
  101fbe:	8b 03                	mov    (%ebx),%eax
  101fc0:	89 44 24 04          	mov    %eax,0x4(%esp)
  101fc4:	c7 04 24 fb 80 10 00 	movl   $0x1080fb,(%esp)
  101fcb:	e8 06 2d 00 00       	call   104cd6 <kprintf>
  101fd0:	83 c3 04             	add    $0x4,%ebx
  101fd3:	39 de                	cmp    %ebx,%esi
  101fd5:	77 e7                	ja     101fbe <stack_trace+0x13>
  101fd7:	83 c4 14             	add    $0x14,%esp
  101fda:	5b                   	pop    %ebx
  101fdb:	5e                   	pop    %esi
  101fdc:	c3                   	ret    
  101fdd:	66 90                	xchg   %ax,%ax
  101fdf:	90                   	nop

00101fe0 <lapic_timer_handler>:
  101fe0:	83 ec 1c             	sub    $0x1c,%esp
  101fe3:	a1 88 b3 11 00       	mov    0x11b388,%eax
  101fe8:	40                   	inc    %eax
  101fe9:	a3 88 b3 11 00       	mov    %eax,0x11b388
  101fee:	8b 44 24 20          	mov    0x20(%esp),%eax
  101ff2:	89 04 24             	mov    %eax,(%esp)
  101ff5:	e8 b6 3a 00 00       	call   105ab0 <switch_tasks_roundrobin>
  101ffa:	83 c4 1c             	add    $0x1c,%esp
  101ffd:	c3                   	ret    

00101ffe <lapic_detect>:
  101ffe:	83 ec 2c             	sub    $0x2c,%esp
  102001:	8d 44 24 18          	lea    0x18(%esp),%eax
  102005:	89 44 24 08          	mov    %eax,0x8(%esp)
  102009:	8d 44 24 1c          	lea    0x1c(%esp),%eax
  10200d:	89 44 24 04          	mov    %eax,0x4(%esp)
  102011:	c7 04 24 01 00 00 00 	movl   $0x1,(%esp)
  102018:	e8 af f2 ff ff       	call   1012cc <cpuid>
  10201d:	b0 00                	mov    $0x0,%al
  10201f:	83 c4 2c             	add    $0x2c,%esp
  102022:	c3                   	ret    

00102023 <lapic_set_base>:
  102023:	53                   	push   %ebx
  102024:	83 ec 18             	sub    $0x18,%esp
  102027:	8b 5c 24 20          	mov    0x20(%esp),%ebx
  10202b:	f7 c3 ff 0f 00 00    	test   $0xfff,%ebx
  102031:	74 2b                	je     10205e <lapic_set_base+0x3b>
  102033:	81 e3 00 f0 ff ff    	and    $0xfffff000,%ebx
  102039:	81 c3 00 10 00 00    	add    $0x1000,%ebx
  10203f:	c7 44 24 08 00 00 00 	movl   $0x0,0x8(%esp)
  102046:	00 
  102047:	89 d8                	mov    %ebx,%eax
  102049:	80 cc 08             	or     $0x8,%ah
  10204c:	89 44 24 04          	mov    %eax,0x4(%esp)
  102050:	c7 04 24 1b 00 00 00 	movl   $0x1b,(%esp)
  102057:	e8 63 02 00 00       	call   1022bf <wrmsr>
  10205c:	eb 1d                	jmp    10207b <lapic_set_base+0x58>
  10205e:	c7 44 24 08 00 00 00 	movl   $0x0,0x8(%esp)
  102065:	00 
  102066:	89 d8                	mov    %ebx,%eax
  102068:	80 cc 08             	or     $0x8,%ah
  10206b:	89 44 24 04          	mov    %eax,0x4(%esp)
  10206f:	c7 04 24 1b 00 00 00 	movl   $0x1b,(%esp)
  102076:	e8 44 02 00 00       	call   1022bf <wrmsr>
  10207b:	89 1d 84 b3 11 00    	mov    %ebx,0x11b384
  102081:	83 c4 18             	add    $0x18,%esp
  102084:	5b                   	pop    %ebx
  102085:	c3                   	ret    

00102086 <lapic_get_base>:
  102086:	83 ec 2c             	sub    $0x2c,%esp
  102089:	8d 44 24 18          	lea    0x18(%esp),%eax
  10208d:	89 44 24 08          	mov    %eax,0x8(%esp)
  102091:	8d 44 24 1c          	lea    0x1c(%esp),%eax
  102095:	89 44 24 04          	mov    %eax,0x4(%esp)
  102099:	c7 04 24 1b 00 00 00 	movl   $0x1b,(%esp)
  1020a0:	e8 07 02 00 00       	call   1022ac <rdmsr>
  1020a5:	8b 44 24 1c          	mov    0x1c(%esp),%eax
  1020a9:	a9 ff 0f 00 00       	test   $0xfff,%eax
  1020ae:	74 0a                	je     1020ba <lapic_get_base+0x34>
  1020b0:	25 00 f0 ff ff       	and    $0xfffff000,%eax
  1020b5:	05 00 10 00 00       	add    $0x1000,%eax
  1020ba:	83 c4 2c             	add    $0x2c,%esp
  1020bd:	c3                   	ret    

001020be <lapic_read_register>:
  1020be:	8b 54 24 04          	mov    0x4(%esp),%edx
  1020c2:	c1 ea 04             	shr    $0x4,%edx
  1020c5:	a1 84 b3 11 00       	mov    0x11b384,%eax
  1020ca:	8b 04 90             	mov    (%eax,%edx,4),%eax
  1020cd:	c3                   	ret    

001020ce <lapic_write_register>:
  1020ce:	8b 54 24 04          	mov    0x4(%esp),%edx
  1020d2:	c1 ea 04             	shr    $0x4,%edx
  1020d5:	a1 84 b3 11 00       	mov    0x11b384,%eax
  1020da:	8b 4c 24 08          	mov    0x8(%esp),%ecx
  1020de:	89 0c 90             	mov    %ecx,(%eax,%edx,4)
  1020e1:	c3                   	ret    

001020e2 <lapic_eoi>:
  1020e2:	83 ec 08             	sub    $0x8,%esp
  1020e5:	c7 44 24 04 00 00 00 	movl   $0x0,0x4(%esp)
  1020ec:	00 
  1020ed:	c7 04 24 b0 00 00 00 	movl   $0xb0,(%esp)
  1020f4:	e8 d5 ff ff ff       	call   1020ce <lapic_write_register>
  1020f9:	83 c4 08             	add    $0x8,%esp
  1020fc:	c3                   	ret    

001020fd <lapic_timer_wait>:
  1020fd:	8b 15 88 b3 11 00    	mov    0x11b388,%edx
  102103:	03 54 24 04          	add    0x4(%esp),%edx
  102107:	a1 88 b3 11 00       	mov    0x11b388,%eax
  10210c:	39 c2                	cmp    %eax,%edx
  10210e:	72 f7                	jb     102107 <lapic_timer_wait+0xa>
  102110:	c3                   	ret    

00102111 <lapic_timer_sleep>:
  102111:	83 ec 04             	sub    $0x4,%esp
  102114:	8b 44 24 08          	mov    0x8(%esp),%eax
  102118:	0f af 05 8c b3 11 00 	imul   0x11b38c,%eax
  10211f:	89 04 24             	mov    %eax,(%esp)
  102122:	e8 d6 ff ff ff       	call   1020fd <lapic_timer_wait>
  102127:	83 c4 04             	add    $0x4,%esp
  10212a:	c3                   	ret    

0010212b <lapic_timer_install>:
  10212b:	53                   	push   %ebx
  10212c:	83 ec 18             	sub    $0x18,%esp
  10212f:	8b 5c 24 20          	mov    0x20(%esp),%ebx
  102133:	c7 44 24 04 e0 1f 10 	movl   $0x101fe0,0x4(%esp)
  10213a:	00 
  10213b:	c7 04 24 00 00 00 00 	movl   $0x0,(%esp)
  102142:	e8 1d f8 ff ff       	call   101964 <irq_install_handler>
  102147:	c7 44 24 04 20 00 00 	movl   $0x20,0x4(%esp)
  10214e:	00 
  10214f:	c7 04 24 20 03 00 00 	movl   $0x320,(%esp)
  102156:	e8 73 ff ff ff       	call   1020ce <lapic_write_register>
  10215b:	c7 44 24 04 03 00 00 	movl   $0x3,0x4(%esp)
  102162:	00 
  102163:	c7 04 24 e0 03 00 00 	movl   $0x3e0,(%esp)
  10216a:	e8 5f ff ff ff       	call   1020ce <lapic_write_register>
  10216f:	c7 44 24 04 64 00 00 	movl   $0x64,0x4(%esp)
  102176:	00 
  102177:	c7 04 24 02 00 00 00 	movl   $0x2,(%esp)
  10217e:	e8 ff 04 00 00       	call   102682 <pit_install>
  102183:	c7 44 24 04 ff ff ff 	movl   $0xffffffff,0x4(%esp)
  10218a:	ff 
  10218b:	c7 04 24 80 03 00 00 	movl   $0x380,(%esp)
  102192:	e8 37 ff ff ff       	call   1020ce <lapic_write_register>
  102197:	c7 04 24 61 00 00 00 	movl   $0x61,(%esp)
  10219e:	e8 fd 05 00 00       	call   1027a0 <inportb>
  1021a3:	a8 20                	test   $0x20,%al
  1021a5:	74 f0                	je     102197 <lapic_timer_install+0x6c>
  1021a7:	c7 44 24 04 00 00 01 	movl   $0x10000,0x4(%esp)
  1021ae:	00 
  1021af:	c7 04 24 20 03 00 00 	movl   $0x320,(%esp)
  1021b6:	e8 13 ff ff ff       	call   1020ce <lapic_write_register>
  1021bb:	c7 04 24 80 03 00 00 	movl   $0x380,(%esp)
  1021c2:	e8 f7 fe ff ff       	call   1020be <lapic_read_register>
  1021c7:	8d 04 80             	lea    (%eax,%eax,4),%eax
  1021ca:	8d 04 80             	lea    (%eax,%eax,4),%eax
  1021cd:	c1 e0 06             	shl    $0x6,%eax
  1021d0:	f7 d8                	neg    %eax
  1021d2:	ba 00 00 00 00       	mov    $0x0,%edx
  1021d7:	f7 f3                	div    %ebx
  1021d9:	c1 e8 04             	shr    $0x4,%eax
  1021dc:	83 f8 10             	cmp    $0x10,%eax
  1021df:	73 05                	jae    1021e6 <lapic_timer_install+0xbb>
  1021e1:	b8 10 00 00 00       	mov    $0x10,%eax
  1021e6:	89 44 24 04          	mov    %eax,0x4(%esp)
  1021ea:	c7 04 24 80 03 00 00 	movl   $0x380,(%esp)
  1021f1:	e8 d8 fe ff ff       	call   1020ce <lapic_write_register>
  1021f6:	c7 44 24 04 20 00 02 	movl   $0x20020,0x4(%esp)
  1021fd:	00 
  1021fe:	c7 04 24 20 03 00 00 	movl   $0x320,(%esp)
  102205:	e8 c4 fe ff ff       	call   1020ce <lapic_write_register>
  10220a:	c7 44 24 04 03 00 00 	movl   $0x3,0x4(%esp)
  102211:	00 
  102212:	c7 04 24 e0 03 00 00 	movl   $0x3e0,(%esp)
  102219:	e8 b0 fe ff ff       	call   1020ce <lapic_write_register>
  10221e:	89 1d 8c b3 11 00    	mov    %ebx,0x11b38c
  102224:	83 c4 18             	add    $0x18,%esp
  102227:	5b                   	pop    %ebx
  102228:	c3                   	ret    

00102229 <lapic_install>:
  102229:	83 ec 1c             	sub    $0x1c,%esp
  10222c:	e8 cd fd ff ff       	call   101ffe <lapic_detect>
  102231:	84 c0                	test   %al,%al
  102233:	74 2b                	je     102260 <lapic_install+0x37>
  102235:	c7 04 24 00 00 00 fe 	movl   $0xfe000000,(%esp)
  10223c:	e8 e2 fd ff ff       	call   102023 <lapic_set_base>
  102241:	c7 04 24 f0 00 00 00 	movl   $0xf0,(%esp)
  102248:	e8 71 fe ff ff       	call   1020be <lapic_read_register>
  10224d:	80 cc 01             	or     $0x1,%ah
  102250:	89 44 24 04          	mov    %eax,0x4(%esp)
  102254:	c7 04 24 f0 00 00 00 	movl   $0xf0,(%esp)
  10225b:	e8 6e fe ff ff       	call   1020ce <lapic_write_register>
  102260:	83 c4 1c             	add    $0x1c,%esp
  102263:	c3                   	ret    

00102264 <hal_main>:
  102264:	83 ec 1c             	sub    $0x1c,%esp
  102267:	e8 ad f2 ff ff       	call   101519 <gdt_install>
  10226c:	e8 0b f4 ff ff       	call   10167c <idt_install>
  102271:	e8 62 f7 ff ff       	call   1019d8 <isrs_install>
  102276:	e8 1d f5 ff ff       	call   101798 <irq_install>
  10227b:	c7 04 24 64 00 00 00 	movl   $0x64,(%esp)
  102282:	e8 83 06 00 00       	call   10290a <timer_install>
  102287:	8b 44 24 20          	mov    0x20(%esp),%eax
  10228b:	8b 40 08             	mov    0x8(%eax),%eax
  10228e:	05 00 04 00 00       	add    $0x400,%eax
  102293:	c1 e0 0a             	shl    $0xa,%eax
  102296:	89 04 24             	mov    %eax,(%esp)
  102299:	e8 be 04 00 00       	call   10275c <init_pmm>
  10229e:	e8 02 0a 00 00       	call   102ca5 <init_vmm>
  1022a3:	83 c4 1c             	add    $0x1c,%esp
  1022a6:	c3                   	ret    

001022a7 <hal_cli>:
  1022a7:	fa                   	cli    
  1022a8:	c3                   	ret    

001022a9 <hal_sti>:
  1022a9:	fb                   	sti    
  1022aa:	c3                   	ret    
  1022ab:	90                   	nop

001022ac <rdmsr>:
  1022ac:	8b 4c 24 04          	mov    0x4(%esp),%ecx
  1022b0:	0f 32                	rdmsr  
  1022b2:	8b 4c 24 08          	mov    0x8(%esp),%ecx
  1022b6:	89 01                	mov    %eax,(%ecx)
  1022b8:	8b 44 24 0c          	mov    0xc(%esp),%eax
  1022bc:	89 10                	mov    %edx,(%eax)
  1022be:	c3                   	ret    

001022bf <wrmsr>:
  1022bf:	8b 54 24 0c          	mov    0xc(%esp),%edx
  1022c3:	8b 44 24 08          	mov    0x8(%esp),%eax
  1022c7:	8b 4c 24 04          	mov    0x4(%esp),%ecx
  1022cb:	0f 30                	wrmsr  
  1022cd:	c3                   	ret    
  1022ce:	66 90                	xchg   %ax,%ax

001022d0 <pic_remap>:
  1022d0:	56                   	push   %esi
  1022d1:	53                   	push   %ebx
  1022d2:	83 ec 14             	sub    $0x14,%esp
  1022d5:	0f b6 74 24 20       	movzbl 0x20(%esp),%esi
  1022da:	8a 5c 24 24          	mov    0x24(%esp),%bl
  1022de:	c7 44 24 04 11 00 00 	movl   $0x11,0x4(%esp)
  1022e5:	00 
  1022e6:	c7 04 24 20 00 00 00 	movl   $0x20,(%esp)
  1022ed:	e8 bb 04 00 00       	call   1027ad <outportb>
  1022f2:	c7 44 24 04 11 00 00 	movl   $0x11,0x4(%esp)
  1022f9:	00 
  1022fa:	c7 04 24 a0 00 00 00 	movl   $0xa0,(%esp)
  102301:	e8 a7 04 00 00       	call   1027ad <outportb>
  102306:	81 e6 ff 00 00 00    	and    $0xff,%esi
  10230c:	89 74 24 04          	mov    %esi,0x4(%esp)
  102310:	c7 04 24 21 00 00 00 	movl   $0x21,(%esp)
  102317:	e8 91 04 00 00       	call   1027ad <outportb>
  10231c:	81 e3 ff 00 00 00    	and    $0xff,%ebx
  102322:	89 5c 24 04          	mov    %ebx,0x4(%esp)
  102326:	c7 04 24 a1 00 00 00 	movl   $0xa1,(%esp)
  10232d:	e8 7b 04 00 00       	call   1027ad <outportb>
  102332:	c7 44 24 04 04 00 00 	movl   $0x4,0x4(%esp)
  102339:	00 
  10233a:	c7 04 24 21 00 00 00 	movl   $0x21,(%esp)
  102341:	e8 67 04 00 00       	call   1027ad <outportb>
  102346:	c7 44 24 04 02 00 00 	movl   $0x2,0x4(%esp)
  10234d:	00 
  10234e:	c7 04 24 a1 00 00 00 	movl   $0xa1,(%esp)
  102355:	e8 53 04 00 00       	call   1027ad <outportb>
  10235a:	c7 44 24 04 01 00 00 	movl   $0x1,0x4(%esp)
  102361:	00 
  102362:	c7 04 24 21 00 00 00 	movl   $0x21,(%esp)
  102369:	e8 3f 04 00 00       	call   1027ad <outportb>
  10236e:	c7 44 24 04 01 00 00 	movl   $0x1,0x4(%esp)
  102375:	00 
  102376:	c7 04 24 a1 00 00 00 	movl   $0xa1,(%esp)
  10237d:	e8 2b 04 00 00       	call   1027ad <outportb>
  102382:	c7 44 24 04 00 00 00 	movl   $0x0,0x4(%esp)
  102389:	00 
  10238a:	c7 04 24 21 00 00 00 	movl   $0x21,(%esp)
  102391:	e8 17 04 00 00       	call   1027ad <outportb>
  102396:	c7 44 24 04 00 00 00 	movl   $0x0,0x4(%esp)
  10239d:	00 
  10239e:	c7 04 24 a1 00 00 00 	movl   $0xa1,(%esp)
  1023a5:	e8 03 04 00 00       	call   1027ad <outportb>
  1023aa:	83 c4 14             	add    $0x14,%esp
  1023ad:	5b                   	pop    %ebx
  1023ae:	5e                   	pop    %esi
  1023af:	c3                   	ret    

001023b0 <pic_eoi>:
  1023b0:	83 ec 1c             	sub    $0x1c,%esp
  1023b3:	83 7c 24 20 07       	cmpl   $0x7,0x20(%esp)
  1023b8:	7e 14                	jle    1023ce <pic_eoi+0x1e>
  1023ba:	c7 44 24 04 20 00 00 	movl   $0x20,0x4(%esp)
  1023c1:	00 
  1023c2:	c7 04 24 a0 00 00 00 	movl   $0xa0,(%esp)
  1023c9:	e8 df 03 00 00       	call   1027ad <outportb>
  1023ce:	c7 44 24 04 20 00 00 	movl   $0x20,0x4(%esp)
  1023d5:	00 
  1023d6:	c7 04 24 20 00 00 00 	movl   $0x20,(%esp)
  1023dd:	e8 cb 03 00 00       	call   1027ad <outportb>
  1023e2:	83 c4 1c             	add    $0x1c,%esp
  1023e5:	c3                   	ret    

001023e6 <pic_set_irq_mask>:
  1023e6:	83 ec 1c             	sub    $0x1c,%esp
  1023e9:	83 7c 24 20 07       	cmpl   $0x7,0x20(%esp)
  1023ee:	7f 30                	jg     102420 <pic_set_irq_mask+0x3a>
  1023f0:	c7 04 24 21 00 00 00 	movl   $0x21,(%esp)
  1023f7:	e8 a4 03 00 00       	call   1027a0 <inportb>
  1023fc:	ba 01 00 00 00       	mov    $0x1,%edx
  102401:	8a 4c 24 20          	mov    0x20(%esp),%cl
  102405:	d3 e2                	shl    %cl,%edx
  102407:	09 d0                	or     %edx,%eax
  102409:	25 ff 00 00 00       	and    $0xff,%eax
  10240e:	89 44 24 04          	mov    %eax,0x4(%esp)
  102412:	c7 04 24 21 00 00 00 	movl   $0x21,(%esp)
  102419:	e8 8f 03 00 00       	call   1027ad <outportb>
  10241e:	eb 31                	jmp    102451 <pic_set_irq_mask+0x6b>
  102420:	c7 04 24 a1 00 00 00 	movl   $0xa1,(%esp)
  102427:	e8 74 03 00 00       	call   1027a0 <inportb>
  10242c:	8b 4c 24 20          	mov    0x20(%esp),%ecx
  102430:	83 e9 08             	sub    $0x8,%ecx
  102433:	ba 01 00 00 00       	mov    $0x1,%edx
  102438:	d3 e2                	shl    %cl,%edx
  10243a:	09 d0                	or     %edx,%eax
  10243c:	25 ff 00 00 00       	and    $0xff,%eax
  102441:	89 44 24 04          	mov    %eax,0x4(%esp)
  102445:	c7 04 24 a1 00 00 00 	movl   $0xa1,(%esp)
  10244c:	e8 5c 03 00 00       	call   1027ad <outportb>
  102451:	83 c4 1c             	add    $0x1c,%esp
  102454:	c3                   	ret    

00102455 <pic_clear_irq_mask>:
  102455:	83 ec 1c             	sub    $0x1c,%esp
  102458:	83 7c 24 20 07       	cmpl   $0x7,0x20(%esp)
  10245d:	7f 30                	jg     10248f <pic_clear_irq_mask+0x3a>
  10245f:	c7 04 24 21 00 00 00 	movl   $0x21,(%esp)
  102466:	e8 35 03 00 00       	call   1027a0 <inportb>
  10246b:	ba fe ff ff ff       	mov    $0xfffffffe,%edx
  102470:	8a 4c 24 20          	mov    0x20(%esp),%cl
  102474:	d3 c2                	rol    %cl,%edx
  102476:	21 d0                	and    %edx,%eax
  102478:	25 ff 00 00 00       	and    $0xff,%eax
  10247d:	89 44 24 04          	mov    %eax,0x4(%esp)
  102481:	c7 04 24 21 00 00 00 	movl   $0x21,(%esp)
  102488:	e8 20 03 00 00       	call   1027ad <outportb>
  10248d:	eb 31                	jmp    1024c0 <pic_clear_irq_mask+0x6b>
  10248f:	c7 04 24 a1 00 00 00 	movl   $0xa1,(%esp)
  102496:	e8 05 03 00 00       	call   1027a0 <inportb>
  10249b:	8b 4c 24 20          	mov    0x20(%esp),%ecx
  10249f:	83 e9 08             	sub    $0x8,%ecx
  1024a2:	ba fe ff ff ff       	mov    $0xfffffffe,%edx
  1024a7:	d3 c2                	rol    %cl,%edx
  1024a9:	21 d0                	and    %edx,%eax
  1024ab:	25 ff 00 00 00       	and    $0xff,%eax
  1024b0:	89 44 24 04          	mov    %eax,0x4(%esp)
  1024b4:	c7 04 24 a1 00 00 00 	movl   $0xa1,(%esp)
  1024bb:	e8 ed 02 00 00       	call   1027ad <outportb>
  1024c0:	83 c4 1c             	add    $0x1c,%esp
  1024c3:	c3                   	ret    

001024c4 <pic_install>:
  1024c4:	83 ec 1c             	sub    $0x1c,%esp
  1024c7:	c7 44 24 04 28 00 00 	movl   $0x28,0x4(%esp)
  1024ce:	00 
  1024cf:	c7 04 24 20 00 00 00 	movl   $0x20,(%esp)
  1024d6:	e8 f5 fd ff ff       	call   1022d0 <pic_remap>
  1024db:	83 c4 1c             	add    $0x1c,%esp
  1024de:	c3                   	ret    

001024df <pic_uninstall>:
  1024df:	83 ec 1c             	sub    $0x1c,%esp
  1024e2:	c7 44 24 04 ff 00 00 	movl   $0xff,0x4(%esp)
  1024e9:	00 
  1024ea:	c7 04 24 21 00 00 00 	movl   $0x21,(%esp)
  1024f1:	e8 b7 02 00 00       	call   1027ad <outportb>
  1024f6:	c7 44 24 04 ff 00 00 	movl   $0xff,0x4(%esp)
  1024fd:	00 
  1024fe:	c7 04 24 a1 00 00 00 	movl   $0xa1,(%esp)
  102505:	e8 a3 02 00 00       	call   1027ad <outportb>
  10250a:	83 c4 1c             	add    $0x1c,%esp
  10250d:	c3                   	ret    
  10250e:	66 90                	xchg   %ax,%ax

00102510 <pit_handler>:
  102510:	83 ec 1c             	sub    $0x1c,%esp
  102513:	a1 a0 a2 11 00       	mov    0x11a2a0,%eax
  102518:	40                   	inc    %eax
  102519:	a3 a0 a2 11 00       	mov    %eax,0x11a2a0
  10251e:	8b 44 24 20          	mov    0x20(%esp),%eax
  102522:	89 04 24             	mov    %eax,(%esp)
  102525:	e8 86 35 00 00       	call   105ab0 <switch_tasks_roundrobin>
  10252a:	83 c4 1c             	add    $0x1c,%esp
  10252d:	c3                   	ret    

0010252e <pit_wait>:
  10252e:	8b 15 a0 a2 11 00    	mov    0x11a2a0,%edx
  102534:	03 54 24 04          	add    0x4(%esp),%edx
  102538:	a1 a0 a2 11 00       	mov    0x11a2a0,%eax
  10253d:	39 c2                	cmp    %eax,%edx
  10253f:	77 f7                	ja     102538 <pit_wait+0xa>
  102541:	c3                   	ret    

00102542 <pit_sleep>:
  102542:	83 ec 04             	sub    $0x4,%esp
  102545:	8b 44 24 08          	mov    0x8(%esp),%eax
  102549:	0f af 05 90 b3 11 00 	imul   0x11b390,%eax
  102550:	89 04 24             	mov    %eax,(%esp)
  102553:	e8 d6 ff ff ff       	call   10252e <pit_wait>
  102558:	83 c4 04             	add    $0x4,%esp
  10255b:	c3                   	ret    

0010255c <pit_channel0_install>:
  10255c:	56                   	push   %esi
  10255d:	53                   	push   %ebx
  10255e:	83 ec 14             	sub    $0x14,%esp
  102561:	8b 74 24 20          	mov    0x20(%esp),%esi
  102565:	c7 44 24 04 10 25 10 	movl   $0x102510,0x4(%esp)
  10256c:	00 
  10256d:	c7 04 24 00 00 00 00 	movl   $0x0,(%esp)
  102574:	e8 eb f3 ff ff       	call   101964 <irq_install_handler>
  102579:	b8 dc 34 12 00       	mov    $0x1234dc,%eax
  10257e:	89 c2                	mov    %eax,%edx
  102580:	c1 fa 1f             	sar    $0x1f,%edx
  102583:	f7 fe                	idiv   %esi
  102585:	89 c3                	mov    %eax,%ebx
  102587:	c7 44 24 04 36 00 00 	movl   $0x36,0x4(%esp)
  10258e:	00 
  10258f:	c7 04 24 43 00 00 00 	movl   $0x43,(%esp)
  102596:	e8 12 02 00 00       	call   1027ad <outportb>
  10259b:	0f b6 c3             	movzbl %bl,%eax
  10259e:	89 44 24 04          	mov    %eax,0x4(%esp)
  1025a2:	c7 04 24 40 00 00 00 	movl   $0x40,(%esp)
  1025a9:	e8 ff 01 00 00       	call   1027ad <outportb>
  1025ae:	0f b6 df             	movzbl %bh,%ebx
  1025b1:	89 5c 24 04          	mov    %ebx,0x4(%esp)
  1025b5:	c7 04 24 40 00 00 00 	movl   $0x40,(%esp)
  1025bc:	e8 ec 01 00 00       	call   1027ad <outportb>
  1025c1:	89 35 90 b3 11 00    	mov    %esi,0x11b390
  1025c7:	83 c4 14             	add    $0x14,%esp
  1025ca:	5b                   	pop    %ebx
  1025cb:	5e                   	pop    %esi
  1025cc:	c3                   	ret    

001025cd <pit_channel2_install>:
  1025cd:	53                   	push   %ebx
  1025ce:	83 ec 18             	sub    $0x18,%esp
  1025d1:	c7 04 24 61 00 00 00 	movl   $0x61,(%esp)
  1025d8:	e8 c3 01 00 00       	call   1027a0 <inportb>
  1025dd:	25 fc 00 00 00       	and    $0xfc,%eax
  1025e2:	83 c8 01             	or     $0x1,%eax
  1025e5:	89 44 24 04          	mov    %eax,0x4(%esp)
  1025e9:	c7 04 24 61 00 00 00 	movl   $0x61,(%esp)
  1025f0:	e8 b8 01 00 00       	call   1027ad <outportb>
  1025f5:	b8 dc 34 12 00       	mov    $0x1234dc,%eax
  1025fa:	89 c2                	mov    %eax,%edx
  1025fc:	c1 fa 1f             	sar    $0x1f,%edx
  1025ff:	f7 7c 24 20          	idivl  0x20(%esp)
  102603:	89 c3                	mov    %eax,%ebx
  102605:	c7 44 24 04 b2 00 00 	movl   $0xb2,0x4(%esp)
  10260c:	00 
  10260d:	c7 04 24 43 00 00 00 	movl   $0x43,(%esp)
  102614:	e8 94 01 00 00       	call   1027ad <outportb>
  102619:	0f b6 c3             	movzbl %bl,%eax
  10261c:	89 44 24 04          	mov    %eax,0x4(%esp)
  102620:	c7 04 24 42 00 00 00 	movl   $0x42,(%esp)
  102627:	e8 81 01 00 00       	call   1027ad <outportb>
  10262c:	0f b6 df             	movzbl %bh,%ebx
  10262f:	89 5c 24 04          	mov    %ebx,0x4(%esp)
  102633:	c7 04 24 42 00 00 00 	movl   $0x42,(%esp)
  10263a:	e8 6e 01 00 00       	call   1027ad <outportb>
  10263f:	c7 04 24 61 00 00 00 	movl   $0x61,(%esp)
  102646:	e8 55 01 00 00       	call   1027a0 <inportb>
  10264b:	88 c3                	mov    %al,%bl
  10264d:	83 e3 fe             	and    $0xfffffffe,%ebx
  102650:	31 c0                	xor    %eax,%eax
  102652:	88 d8                	mov    %bl,%al
  102654:	89 44 24 04          	mov    %eax,0x4(%esp)
  102658:	c7 04 24 61 00 00 00 	movl   $0x61,(%esp)
  10265f:	e8 49 01 00 00       	call   1027ad <outportb>
  102664:	83 cb 01             	or     $0x1,%ebx
  102667:	81 e3 ff 00 00 00    	and    $0xff,%ebx
  10266d:	89 5c 24 04          	mov    %ebx,0x4(%esp)
  102671:	c7 04 24 61 00 00 00 	movl   $0x61,(%esp)
  102678:	e8 30 01 00 00       	call   1027ad <outportb>
  10267d:	83 c4 18             	add    $0x18,%esp
  102680:	5b                   	pop    %ebx
  102681:	c3                   	ret    

00102682 <pit_install>:
  102682:	83 ec 1c             	sub    $0x1c,%esp
  102685:	8b 44 24 20          	mov    0x20(%esp),%eax
  102689:	85 c0                	test   %eax,%eax
  10268b:	75 0e                	jne    10269b <pit_install+0x19>
  10268d:	8b 44 24 24          	mov    0x24(%esp),%eax
  102691:	89 04 24             	mov    %eax,(%esp)
  102694:	e8 c3 fe ff ff       	call   10255c <pit_channel0_install>
  102699:	eb 11                	jmp    1026ac <pit_install+0x2a>
  10269b:	83 f8 02             	cmp    $0x2,%eax
  10269e:	75 0c                	jne    1026ac <pit_install+0x2a>
  1026a0:	8b 54 24 24          	mov    0x24(%esp),%edx
  1026a4:	89 14 24             	mov    %edx,(%esp)
  1026a7:	e8 21 ff ff ff       	call   1025cd <pit_channel2_install>
  1026ac:	83 c4 1c             	add    $0x1c,%esp
  1026af:	c3                   	ret    

001026b0 <pmm_alloc_page>:
  1026b0:	55                   	push   %ebp
  1026b1:	57                   	push   %edi
  1026b2:	56                   	push   %esi
  1026b3:	53                   	push   %ebx
  1026b4:	83 ec 1c             	sub    $0x1c,%esp
  1026b7:	bd 00 00 00 00       	mov    $0x0,%ebp
  1026bc:	a1 98 b3 11 00       	mov    0x11b398,%eax
  1026c1:	c1 e8 05             	shr    $0x5,%eax
  1026c4:	75 52                	jne    102718 <pmm_alloc_page+0x68>
  1026c6:	eb 5e                	jmp    102726 <pmm_alloc_page+0x76>
  1026c8:	0f b6 f3             	movzbl %bl,%esi
  1026cb:	89 74 24 04          	mov    %esi,0x4(%esp)
  1026cf:	a1 94 b3 11 00       	mov    0x11b394,%eax
  1026d4:	8b 04 38             	mov    (%eax,%edi,1),%eax
  1026d7:	89 04 24             	mov    %eax,(%esp)
  1026da:	e8 85 49 00 00       	call   107064 <bit_test>
  1026df:	85 c0                	test   %eax,%eax
  1026e1:	75 22                	jne    102705 <pmm_alloc_page+0x55>
  1026e3:	03 3d 94 b3 11 00    	add    0x11b394,%edi
  1026e9:	89 74 24 04          	mov    %esi,0x4(%esp)
  1026ed:	8b 07                	mov    (%edi),%eax
  1026ef:	89 04 24             	mov    %eax,(%esp)
  1026f2:	e8 4d 49 00 00       	call   107044 <bit_set>
  1026f7:	89 07                	mov    %eax,(%edi)
  1026f9:	89 d8                	mov    %ebx,%eax
  1026fb:	c1 e0 0c             	shl    $0xc,%eax
  1026fe:	c1 e5 11             	shl    $0x11,%ebp
  102701:	01 e8                	add    %ebp,%eax
  102703:	eb 21                	jmp    102726 <pmm_alloc_page+0x76>
  102705:	43                   	inc    %ebx
  102706:	83 fb 20             	cmp    $0x20,%ebx
  102709:	75 bd                	jne    1026c8 <pmm_alloc_page+0x18>
  10270b:	45                   	inc    %ebp
  10270c:	a1 98 b3 11 00       	mov    0x11b398,%eax
  102711:	c1 e8 05             	shr    $0x5,%eax
  102714:	39 e8                	cmp    %ebp,%eax
  102716:	76 0e                	jbe    102726 <pmm_alloc_page+0x76>
  102718:	8d 3c ad 00 00 00 00 	lea    0x0(,%ebp,4),%edi
  10271f:	bb 00 00 00 00       	mov    $0x0,%ebx
  102724:	eb a2                	jmp    1026c8 <pmm_alloc_page+0x18>
  102726:	83 c4 1c             	add    $0x1c,%esp
  102729:	5b                   	pop    %ebx
  10272a:	5e                   	pop    %esi
  10272b:	5f                   	pop    %edi
  10272c:	5d                   	pop    %ebp
  10272d:	c3                   	ret    

0010272e <pmm_free_page>:
  10272e:	53                   	push   %ebx
  10272f:	83 ec 18             	sub    $0x18,%esp
  102732:	8b 44 24 20          	mov    0x20(%esp),%eax
  102736:	89 c1                	mov    %eax,%ecx
  102738:	c1 e9 05             	shr    $0x5,%ecx
  10273b:	8b 15 94 b3 11 00    	mov    0x11b394,%edx
  102741:	8d 1c 8a             	lea    (%edx,%ecx,4),%ebx
  102744:	83 e0 1f             	and    $0x1f,%eax
  102747:	89 44 24 04          	mov    %eax,0x4(%esp)
  10274b:	8b 03                	mov    (%ebx),%eax
  10274d:	89 04 24             	mov    %eax,(%esp)
  102750:	e8 ff 48 00 00       	call   107054 <bit_clear>
  102755:	89 03                	mov    %eax,(%ebx)
  102757:	83 c4 18             	add    $0x18,%esp
  10275a:	5b                   	pop    %ebx
  10275b:	c3                   	ret    

0010275c <init_pmm>:
  10275c:	83 ec 1c             	sub    $0x1c,%esp
  10275f:	8b 44 24 20          	mov    0x20(%esp),%eax
  102763:	89 c2                	mov    %eax,%edx
  102765:	c1 ea 0c             	shr    $0xc,%edx
  102768:	89 15 98 b3 11 00    	mov    %edx,0x11b398
  10276e:	c1 e8 11             	shr    $0x11,%eax
  102771:	89 04 24             	mov    %eax,(%esp)
  102774:	e8 0e 17 00 00       	call   103e87 <kmalloc>
  102779:	a3 94 b3 11 00       	mov    %eax,0x11b394
  10277e:	8b 15 98 b3 11 00    	mov    0x11b398,%edx
  102784:	c1 ea 05             	shr    $0x5,%edx
  102787:	89 54 24 08          	mov    %edx,0x8(%esp)
  10278b:	c7 44 24 04 00 00 00 	movl   $0x0,0x4(%esp)
  102792:	00 
  102793:	89 04 24             	mov    %eax,(%esp)
  102796:	e8 22 4b 00 00       	call   1072bd <memset>
  10279b:	83 c4 1c             	add    $0x1c,%esp
  10279e:	c3                   	ret    
  10279f:	90                   	nop

001027a0 <inportb>:
  1027a0:	8b 54 24 04          	mov    0x4(%esp),%edx
  1027a4:	ec                   	in     (%dx),%al
  1027a5:	c3                   	ret    

001027a6 <inmemb>:
  1027a6:	8b 44 24 04          	mov    0x4(%esp),%eax
  1027aa:	8a 00                	mov    (%eax),%al
  1027ac:	c3                   	ret    

001027ad <outportb>:
  1027ad:	8b 54 24 04          	mov    0x4(%esp),%edx
  1027b1:	8a 44 24 08          	mov    0x8(%esp),%al
  1027b5:	ee                   	out    %al,(%dx)
  1027b6:	c3                   	ret    

001027b7 <outmemb>:
  1027b7:	8b 44 24 08          	mov    0x8(%esp),%eax
  1027bb:	8b 54 24 04          	mov    0x4(%esp),%edx
  1027bf:	88 02                	mov    %al,(%edx)
  1027c1:	c3                   	ret    

001027c2 <inportw>:
  1027c2:	8b 54 24 04          	mov    0x4(%esp),%edx
  1027c6:	66 ed                	in     (%dx),%ax
  1027c8:	c3                   	ret    

001027c9 <inmemw>:
  1027c9:	8b 44 24 04          	mov    0x4(%esp),%eax
  1027cd:	66 8b 00             	mov    (%eax),%ax
  1027d0:	c3                   	ret    

001027d1 <outportw>:
  1027d1:	8b 44 24 08          	mov    0x8(%esp),%eax
  1027d5:	8b 54 24 04          	mov    0x4(%esp),%edx
  1027d9:	66 ef                	out    %ax,(%dx)
  1027db:	c3                   	ret    

001027dc <outmemw>:
  1027dc:	8b 54 24 08          	mov    0x8(%esp),%edx
  1027e0:	8b 44 24 04          	mov    0x4(%esp),%eax
  1027e4:	66 89 10             	mov    %dx,(%eax)
  1027e7:	c3                   	ret    

001027e8 <inportl>:
  1027e8:	8b 54 24 04          	mov    0x4(%esp),%edx
  1027ec:	ed                   	in     (%dx),%eax
  1027ed:	c3                   	ret    

001027ee <inmeml>:
  1027ee:	8b 44 24 04          	mov    0x4(%esp),%eax
  1027f2:	8b 00                	mov    (%eax),%eax
  1027f4:	c3                   	ret    

001027f5 <outportl>:
  1027f5:	8b 44 24 08          	mov    0x8(%esp),%eax
  1027f9:	8b 54 24 04          	mov    0x4(%esp),%edx
  1027fd:	ef                   	out    %eax,(%dx)
  1027fe:	c3                   	ret    

001027ff <outmeml>:
  1027ff:	8b 54 24 08          	mov    0x8(%esp),%edx
  102803:	8b 44 24 04          	mov    0x4(%esp),%eax
  102807:	89 10                	mov    %edx,(%eax)
  102809:	c3                   	ret    
  10280a:	66 90                	xchg   %ax,%ax

0010280c <hal_init_syscalls>:
  10280c:	83 ec 1c             	sub    $0x1c,%esp
  10280f:	c7 44 24 08 03 00 00 	movl   $0x3,0x8(%esp)
  102816:	00 
  102817:	c7 44 24 04 90 12 10 	movl   $0x101290,0x4(%esp)
  10281e:	00 
  10281f:	c7 04 24 80 00 00 00 	movl   $0x80,(%esp)
  102826:	e8 0d ee ff ff       	call   101638 <idt_set_gate>
  10282b:	c7 44 24 08 00 00 00 	movl   $0x0,0x8(%esp)
  102832:	00 
  102833:	c7 44 24 04 08 00 00 	movl   $0x8,0x4(%esp)
  10283a:	00 
  10283b:	c7 04 24 74 01 00 00 	movl   $0x174,(%esp)
  102842:	e8 78 fa ff ff       	call   1022bf <wrmsr>
  102847:	e8 20 36 00 00       	call   105e6c <getthread>
  10284c:	c7 44 24 08 00 00 00 	movl   $0x0,0x8(%esp)
  102853:	00 
  102854:	8b 40 0c             	mov    0xc(%eax),%eax
  102857:	89 44 24 04          	mov    %eax,0x4(%esp)
  10285b:	c7 04 24 75 01 00 00 	movl   $0x175,(%esp)
  102862:	e8 58 fa ff ff       	call   1022bf <wrmsr>
  102867:	c7 44 24 08 00 00 00 	movl   $0x0,0x8(%esp)
  10286e:	00 
  10286f:	c7 44 24 04 c1 12 10 	movl   $0x1012c1,0x4(%esp)
  102876:	00 
  102877:	c7 04 24 76 01 00 00 	movl   $0x176,(%esp)
  10287e:	e8 3c fa ff ff       	call   1022bf <wrmsr>
  102883:	83 c4 1c             	add    $0x1c,%esp
  102886:	c3                   	ret    

00102887 <syscall_install_handler>:
  102887:	8b 44 24 04          	mov    0x4(%esp),%eax
  10288b:	3b 05 80 a0 10 00    	cmp    0x10a080,%eax
  102891:	73 0b                	jae    10289e <syscall_install_handler+0x17>
  102893:	8b 54 24 08          	mov    0x8(%esp),%edx
  102897:	89 14 85 c0 a2 11 00 	mov    %edx,0x11a2c0(,%eax,4)
  10289e:	c3                   	ret    

0010289f <syscall_handler>:
  10289f:	55                   	push   %ebp
  1028a0:	57                   	push   %edi
  1028a1:	56                   	push   %esi
  1028a2:	53                   	push   %ebx
  1028a3:	8b 54 24 14          	mov    0x14(%esp),%edx
  1028a7:	8b 4a 2c             	mov    0x2c(%edx),%ecx
  1028aa:	3b 0d 80 a0 10 00    	cmp    0x10a080,%ecx
  1028b0:	73 25                	jae    1028d7 <syscall_handler+0x38>
  1028b2:	8b 42 20             	mov    0x20(%edx),%eax
  1028b5:	8b 0c 8d c0 a2 11 00 	mov    0x11a2c0(,%ecx,4),%ecx
  1028bc:	8b 5a 10             	mov    0x10(%edx),%ebx
  1028bf:	8b 72 14             	mov    0x14(%edx),%esi
  1028c2:	8b 7a 24             	mov    0x24(%edx),%edi
  1028c5:	8b 6a 28             	mov    0x28(%edx),%ebp
  1028c8:	53                   	push   %ebx
  1028c9:	56                   	push   %esi
  1028ca:	57                   	push   %edi
  1028cb:	55                   	push   %ebp
  1028cc:	50                   	push   %eax
  1028cd:	ff d1                	call   *%ecx
  1028cf:	5b                   	pop    %ebx
  1028d0:	5b                   	pop    %ebx
  1028d1:	5b                   	pop    %ebx
  1028d2:	5b                   	pop    %ebx
  1028d3:	5b                   	pop    %ebx
  1028d4:	89 42 2c             	mov    %eax,0x2c(%edx)
  1028d7:	5b                   	pop    %ebx
  1028d8:	5e                   	pop    %esi
  1028d9:	5f                   	pop    %edi
  1028da:	5d                   	pop    %ebp
  1028db:	c3                   	ret    

001028dc <sleep>:
  1028dc:	83 ec 1c             	sub    $0x1c,%esp
  1028df:	a0 e0 a5 11 00       	mov    0x11a5e0,%al
  1028e4:	84 c0                	test   %al,%al
  1028e6:	75 0e                	jne    1028f6 <sleep+0x1a>
  1028e8:	8b 44 24 20          	mov    0x20(%esp),%eax
  1028ec:	89 04 24             	mov    %eax,(%esp)
  1028ef:	e8 4e fc ff ff       	call   102542 <pit_sleep>
  1028f4:	eb 10                	jmp    102906 <sleep+0x2a>
  1028f6:	3c 01                	cmp    $0x1,%al
  1028f8:	75 0c                	jne    102906 <sleep+0x2a>
  1028fa:	8b 44 24 20          	mov    0x20(%esp),%eax
  1028fe:	89 04 24             	mov    %eax,(%esp)
  102901:	e8 0b f8 ff ff       	call   102111 <lapic_timer_sleep>
  102906:	83 c4 1c             	add    $0x1c,%esp
  102909:	c3                   	ret    

0010290a <timer_install>:
  10290a:	83 ec 1c             	sub    $0x1c,%esp
  10290d:	8b 44 24 20          	mov    0x20(%esp),%eax
  102911:	89 44 24 04          	mov    %eax,0x4(%esp)
  102915:	c7 04 24 00 00 00 00 	movl   $0x0,(%esp)
  10291c:	e8 61 fd ff ff       	call   102682 <pit_install>
  102921:	c6 05 e0 a5 11 00 00 	movb   $0x0,0x11a5e0
  102928:	83 c4 1c             	add    $0x1c,%esp
  10292b:	c3                   	ret    

0010292c <get_page>:
  10292c:	57                   	push   %edi
  10292d:	56                   	push   %esi
  10292e:	53                   	push   %ebx
  10292f:	83 ec 20             	sub    $0x20,%esp
  102932:	8b 5c 24 30          	mov    0x30(%esp),%ebx
  102936:	8b 44 24 34          	mov    0x34(%esp),%eax
  10293a:	8a 4c 24 38          	mov    0x38(%esp),%cl
  10293e:	89 c6                	mov    %eax,%esi
  102940:	c1 ee 0c             	shr    $0xc,%esi
  102943:	89 c7                	mov    %eax,%edi
  102945:	c1 ef 16             	shr    $0x16,%edi
  102948:	8b 14 bb             	mov    (%ebx,%edi,4),%edx
  10294b:	85 d2                	test   %edx,%edx
  10294d:	74 0b                	je     10295a <get_page+0x2e>
  10294f:	81 e6 ff 03 00 00    	and    $0x3ff,%esi
  102955:	8d 04 b2             	lea    (%edx,%esi,4),%eax
  102958:	eb 58                	jmp    1029b2 <get_page+0x86>
  10295a:	84 c9                	test   %cl,%cl
  10295c:	74 4f                	je     1029ad <get_page+0x81>
  10295e:	8d 44 24 1c          	lea    0x1c(%esp),%eax
  102962:	89 44 24 04          	mov    %eax,0x4(%esp)
  102966:	c7 04 24 00 10 00 00 	movl   $0x1000,(%esp)
  10296d:	e8 03 16 00 00       	call   103f75 <kmalloc_ap>
  102972:	89 04 bb             	mov    %eax,(%ebx,%edi,4)
  102975:	c7 44 24 08 00 10 00 	movl   $0x1000,0x8(%esp)
  10297c:	00 
  10297d:	c7 44 24 04 00 00 00 	movl   $0x0,0x4(%esp)
  102984:	00 
  102985:	89 04 24             	mov    %eax,(%esp)
  102988:	e8 30 49 00 00       	call   1072bd <memset>
  10298d:	8b 44 24 3c          	mov    0x3c(%esp),%eax
  102991:	0b 44 24 1c          	or     0x1c(%esp),%eax
  102995:	83 c8 01             	or     $0x1,%eax
  102998:	89 84 bb 00 10 00 00 	mov    %eax,0x1000(%ebx,%edi,4)
  10299f:	81 e6 ff 03 00 00    	and    $0x3ff,%esi
  1029a5:	8b 04 bb             	mov    (%ebx,%edi,4),%eax
  1029a8:	8d 04 b0             	lea    (%eax,%esi,4),%eax
  1029ab:	eb 05                	jmp    1029b2 <get_page+0x86>
  1029ad:	b8 00 00 00 00       	mov    $0x0,%eax
  1029b2:	83 c4 20             	add    $0x20,%esp
  1029b5:	5b                   	pop    %ebx
  1029b6:	5e                   	pop    %esi
  1029b7:	5f                   	pop    %edi
  1029b8:	c3                   	ret    

001029b9 <map_page>:
  1029b9:	53                   	push   %ebx
  1029ba:	83 ec 18             	sub    $0x18,%esp
  1029bd:	8b 5c 24 2c          	mov    0x2c(%esp),%ebx
  1029c1:	89 5c 24 0c          	mov    %ebx,0xc(%esp)
  1029c5:	c7 44 24 08 01 00 00 	movl   $0x1,0x8(%esp)
  1029cc:	00 
  1029cd:	8b 44 24 24          	mov    0x24(%esp),%eax
  1029d1:	89 44 24 04          	mov    %eax,0x4(%esp)
  1029d5:	8b 44 24 20          	mov    0x20(%esp),%eax
  1029d9:	89 04 24             	mov    %eax,(%esp)
  1029dc:	e8 4b ff ff ff       	call   10292c <get_page>
  1029e1:	8b 54 24 28          	mov    0x28(%esp),%edx
  1029e5:	83 ca 01             	or     $0x1,%edx
  1029e8:	09 d3                	or     %edx,%ebx
  1029ea:	89 18                	mov    %ebx,(%eax)
  1029ec:	8b 44 24 24          	mov    0x24(%esp),%eax
  1029f0:	0f 01 38             	invlpg (%eax)
  1029f3:	83 c4 18             	add    $0x18,%esp
  1029f6:	5b                   	pop    %ebx
  1029f7:	c3                   	ret    

001029f8 <unmap_page>:
  1029f8:	53                   	push   %ebx
  1029f9:	83 ec 18             	sub    $0x18,%esp
  1029fc:	c7 44 24 0c 00 00 00 	movl   $0x0,0xc(%esp)
  102a03:	00 
  102a04:	c7 44 24 08 00 00 00 	movl   $0x0,0x8(%esp)
  102a0b:	00 
  102a0c:	8b 44 24 24          	mov    0x24(%esp),%eax
  102a10:	89 44 24 04          	mov    %eax,0x4(%esp)
  102a14:	8b 44 24 20          	mov    0x20(%esp),%eax
  102a18:	89 04 24             	mov    %eax,(%esp)
  102a1b:	e8 0c ff ff ff       	call   10292c <get_page>
  102a20:	89 c3                	mov    %eax,%ebx
  102a22:	85 c0                	test   %eax,%eax
  102a24:	74 1c                	je     102a42 <unmap_page+0x4a>
  102a26:	8b 00                	mov    (%eax),%eax
  102a28:	25 00 f0 ff ff       	and    $0xfffff000,%eax
  102a2d:	89 04 24             	mov    %eax,(%esp)
  102a30:	e8 f9 fc ff ff       	call   10272e <pmm_free_page>
  102a35:	c7 03 00 00 00 00    	movl   $0x0,(%ebx)
  102a3b:	8b 44 24 24          	mov    0x24(%esp),%eax
  102a3f:	0f 01 38             	invlpg (%eax)
  102a42:	83 c4 18             	add    $0x18,%esp
  102a45:	5b                   	pop    %ebx
  102a46:	c3                   	ret    

00102a47 <map_kernel>:
  102a47:	56                   	push   %esi
  102a48:	53                   	push   %ebx
  102a49:	83 ec 14             	sub    $0x14,%esp
  102a4c:	8b 74 24 20          	mov    0x20(%esp),%esi
  102a50:	bb 00 00 10 00       	mov    $0x100000,%ebx
  102a55:	3b 35 e8 a5 11 00    	cmp    0x11a5e8,%esi
  102a5b:	75 5d                	jne    102aba <map_kernel+0x73>
  102a5d:	e8 4e fc ff ff       	call   1026b0 <pmm_alloc_page>
  102a62:	c7 44 24 0c 07 00 00 	movl   $0x7,0xc(%esp)
  102a69:	00 
  102a6a:	89 44 24 08          	mov    %eax,0x8(%esp)
  102a6e:	89 5c 24 04          	mov    %ebx,0x4(%esp)
  102a72:	89 34 24             	mov    %esi,(%esp)
  102a75:	e8 3f ff ff ff       	call   1029b9 <map_page>
  102a7a:	81 c3 00 10 00 00    	add    $0x1000,%ebx
  102a80:	81 fb 00 00 40 00    	cmp    $0x400000,%ebx
  102a86:	75 d5                	jne    102a5d <map_kernel+0x16>
  102a88:	bb 00 00 00 e0       	mov    $0xe0000000,%ebx
  102a8d:	e8 1e fc ff ff       	call   1026b0 <pmm_alloc_page>
  102a92:	c7 44 24 0c 07 00 00 	movl   $0x7,0xc(%esp)
  102a99:	00 
  102a9a:	89 44 24 08          	mov    %eax,0x8(%esp)
  102a9e:	89 5c 24 04          	mov    %ebx,0x4(%esp)
  102aa2:	89 34 24             	mov    %esi,(%esp)
  102aa5:	e8 0f ff ff ff       	call   1029b9 <map_page>
  102aaa:	81 c3 00 10 00 00    	add    $0x1000,%ebx
  102ab0:	81 fb 00 00 10 e0    	cmp    $0xe0100000,%ebx
  102ab6:	75 d5                	jne    102a8d <map_kernel+0x46>
  102ab8:	eb 51                	jmp    102b0b <map_kernel+0xc4>
  102aba:	c7 44 24 0c 07 00 00 	movl   $0x7,0xc(%esp)
  102ac1:	00 
  102ac2:	89 5c 24 08          	mov    %ebx,0x8(%esp)
  102ac6:	89 5c 24 04          	mov    %ebx,0x4(%esp)
  102aca:	89 34 24             	mov    %esi,(%esp)
  102acd:	e8 e7 fe ff ff       	call   1029b9 <map_page>
  102ad2:	81 c3 00 10 00 00    	add    $0x1000,%ebx
  102ad8:	81 fb 00 00 40 00    	cmp    $0x400000,%ebx
  102ade:	75 da                	jne    102aba <map_kernel+0x73>
  102ae0:	bb 00 00 00 e0       	mov    $0xe0000000,%ebx
  102ae5:	c7 44 24 0c 07 00 00 	movl   $0x7,0xc(%esp)
  102aec:	00 
  102aed:	89 5c 24 08          	mov    %ebx,0x8(%esp)
  102af1:	89 5c 24 04          	mov    %ebx,0x4(%esp)
  102af5:	89 34 24             	mov    %esi,(%esp)
  102af8:	e8 bc fe ff ff       	call   1029b9 <map_page>
  102afd:	81 c3 00 10 00 00    	add    $0x1000,%ebx
  102b03:	81 fb 00 00 10 e0    	cmp    $0xe0100000,%ebx
  102b09:	75 da                	jne    102ae5 <map_kernel+0x9e>
  102b0b:	83 c4 14             	add    $0x14,%esp
  102b0e:	5b                   	pop    %ebx
  102b0f:	5e                   	pop    %esi
  102b10:	c3                   	ret    

00102b11 <clone_directory>:
  102b11:	55                   	push   %ebp
  102b12:	57                   	push   %edi
  102b13:	56                   	push   %esi
  102b14:	53                   	push   %ebx
  102b15:	83 ec 3c             	sub    $0x3c,%esp
  102b18:	8d 44 24 2c          	lea    0x2c(%esp),%eax
  102b1c:	89 44 24 04          	mov    %eax,0x4(%esp)
  102b20:	c7 04 24 04 20 00 00 	movl   $0x2004,(%esp)
  102b27:	e8 49 14 00 00       	call   103f75 <kmalloc_ap>
  102b2c:	89 44 24 1c          	mov    %eax,0x1c(%esp)
  102b30:	c7 44 24 08 04 20 00 	movl   $0x2004,0x8(%esp)
  102b37:	00 
  102b38:	c7 44 24 04 00 00 00 	movl   $0x0,0x4(%esp)
  102b3f:	00 
  102b40:	89 04 24             	mov    %eax,(%esp)
  102b43:	e8 75 47 00 00       	call   1072bd <memset>
  102b48:	8b 44 24 2c          	mov    0x2c(%esp),%eax
  102b4c:	05 00 10 00 00       	add    $0x1000,%eax
  102b51:	8b 54 24 1c          	mov    0x1c(%esp),%edx
  102b55:	89 82 00 20 00 00    	mov    %eax,0x2000(%edx)
  102b5b:	8b 4c 24 50          	mov    0x50(%esp),%ecx
  102b5f:	89 4c 24 14          	mov    %ecx,0x14(%esp)
  102b63:	89 d5                	mov    %edx,%ebp
  102b65:	c7 44 24 18 00 00 00 	movl   $0x0,0x18(%esp)
  102b6c:	00 
  102b6d:	8b 54 24 14          	mov    0x14(%esp),%edx
  102b71:	8b 32                	mov    (%edx),%esi
  102b73:	85 f6                	test   %esi,%esi
  102b75:	0f 84 c0 00 00 00    	je     102c3b <clone_directory+0x12a>
  102b7b:	a1 e8 a5 11 00       	mov    0x11a5e8,%eax
  102b80:	8b 4c 24 18          	mov    0x18(%esp),%ecx
  102b84:	3b 34 88             	cmp    (%eax,%ecx,4),%esi
  102b87:	75 14                	jne    102b9d <clone_directory+0x8c>
  102b89:	89 75 00             	mov    %esi,0x0(%ebp)
  102b8c:	8b 82 00 10 00 00    	mov    0x1000(%edx),%eax
  102b92:	89 85 00 10 00 00    	mov    %eax,0x1000(%ebp)
  102b98:	e9 9e 00 00 00       	jmp    102c3b <clone_directory+0x12a>
  102b9d:	8d 44 24 28          	lea    0x28(%esp),%eax
  102ba1:	89 44 24 04          	mov    %eax,0x4(%esp)
  102ba5:	c7 04 24 00 10 00 00 	movl   $0x1000,(%esp)
  102bac:	e8 c4 13 00 00       	call   103f75 <kmalloc_ap>
  102bb1:	89 c7                	mov    %eax,%edi
  102bb3:	c7 44 24 08 04 20 00 	movl   $0x2004,0x8(%esp)
  102bba:	00 
  102bbb:	c7 44 24 04 00 00 00 	movl   $0x0,0x4(%esp)
  102bc2:	00 
  102bc3:	89 04 24             	mov    %eax,(%esp)
  102bc6:	e8 f2 46 00 00       	call   1072bd <memset>
  102bcb:	bb 00 00 00 00       	mov    $0x0,%ebx
  102bd0:	8b 04 9e             	mov    (%esi,%ebx,4),%eax
  102bd3:	c1 e8 0c             	shr    $0xc,%eax
  102bd6:	74 4a                	je     102c22 <clone_directory+0x111>
  102bd8:	e8 d3 fa ff ff       	call   1026b0 <pmm_alloc_page>
  102bdd:	25 00 f0 ff ff       	and    $0xfffff000,%eax
  102be2:	8b 14 9f             	mov    (%edi,%ebx,4),%edx
  102be5:	81 e2 ff 0f 00 00    	and    $0xfff,%edx
  102beb:	09 d0                	or     %edx,%eax
  102bed:	89 04 9f             	mov    %eax,(%edi,%ebx,4)
  102bf0:	f6 04 9e 01          	testb  $0x1,(%esi,%ebx,4)
  102bf4:	74 04                	je     102bfa <clone_directory+0xe9>
  102bf6:	80 0c 9f 01          	orb    $0x1,(%edi,%ebx,4)
  102bfa:	f6 04 9e 02          	testb  $0x2,(%esi,%ebx,4)
  102bfe:	74 04                	je     102c04 <clone_directory+0xf3>
  102c00:	80 0c 9f 02          	orb    $0x2,(%edi,%ebx,4)
  102c04:	f6 04 9e 04          	testb  $0x4,(%esi,%ebx,4)
  102c08:	74 04                	je     102c0e <clone_directory+0xfd>
  102c0a:	80 0c 9f 04          	orb    $0x4,(%edi,%ebx,4)
  102c0e:	f6 04 9e 20          	testb  $0x20,(%esi,%ebx,4)
  102c12:	74 04                	je     102c18 <clone_directory+0x107>
  102c14:	80 0c 9f 20          	orb    $0x20,(%edi,%ebx,4)
  102c18:	f6 04 9e 40          	testb  $0x40,(%esi,%ebx,4)
  102c1c:	74 04                	je     102c22 <clone_directory+0x111>
  102c1e:	80 0c 9f 40          	orb    $0x40,(%edi,%ebx,4)
  102c22:	43                   	inc    %ebx
  102c23:	81 fb 00 04 00 00    	cmp    $0x400,%ebx
  102c29:	75 a5                	jne    102bd0 <clone_directory+0xbf>
  102c2b:	89 7d 00             	mov    %edi,0x0(%ebp)
  102c2e:	8b 44 24 28          	mov    0x28(%esp),%eax
  102c32:	83 c8 07             	or     $0x7,%eax
  102c35:	89 85 00 10 00 00    	mov    %eax,0x1000(%ebp)
  102c3b:	ff 44 24 18          	incl   0x18(%esp)
  102c3f:	83 44 24 14 04       	addl   $0x4,0x14(%esp)
  102c44:	83 c5 04             	add    $0x4,%ebp
  102c47:	81 7c 24 18 00 04 00 	cmpl   $0x400,0x18(%esp)
  102c4e:	00 
  102c4f:	0f 85 18 ff ff ff    	jne    102b6d <clone_directory+0x5c>
  102c55:	8b 44 24 1c          	mov    0x1c(%esp),%eax
  102c59:	83 c4 3c             	add    $0x3c,%esp
  102c5c:	5b                   	pop    %ebx
  102c5d:	5e                   	pop    %esi
  102c5e:	5f                   	pop    %edi
  102c5f:	5d                   	pop    %ebp
  102c60:	c3                   	ret    

00102c61 <create_page_directory>:
  102c61:	53                   	push   %ebx
  102c62:	83 ec 18             	sub    $0x18,%esp
  102c65:	c7 04 24 04 20 00 00 	movl   $0x2004,(%esp)
  102c6c:	e8 5a 13 00 00       	call   103fcb <kmalloc_a>
  102c71:	89 c3                	mov    %eax,%ebx
  102c73:	c7 44 24 08 04 20 00 	movl   $0x2004,0x8(%esp)
  102c7a:	00 
  102c7b:	c7 44 24 04 00 00 00 	movl   $0x0,0x4(%esp)
  102c82:	00 
  102c83:	89 04 24             	mov    %eax,(%esp)
  102c86:	e8 32 46 00 00       	call   1072bd <memset>
  102c8b:	89 d8                	mov    %ebx,%eax
  102c8d:	83 c4 18             	add    $0x18,%esp
  102c90:	5b                   	pop    %ebx
  102c91:	c3                   	ret    

00102c92 <switch_page_directory>:
  102c92:	8b 44 24 04          	mov    0x4(%esp),%eax
  102c96:	a3 e4 a5 11 00       	mov    %eax,0x11a5e4
  102c9b:	8b 80 00 20 00 00    	mov    0x2000(%eax),%eax
  102ca1:	0f 22 d8             	mov    %eax,%cr3
  102ca4:	c3                   	ret    

00102ca5 <init_vmm>:
  102ca5:	53                   	push   %ebx
  102ca6:	83 ec 28             	sub    $0x28,%esp
  102ca9:	e8 b3 ff ff ff       	call   102c61 <create_page_directory>
  102cae:	a3 e8 a5 11 00       	mov    %eax,0x11a5e8
  102cb3:	8d 90 00 10 00 00    	lea    0x1000(%eax),%edx
  102cb9:	89 90 00 20 00 00    	mov    %edx,0x2000(%eax)
  102cbf:	bb 00 00 00 00       	mov    $0x0,%ebx
  102cc4:	e8 e7 f9 ff ff       	call   1026b0 <pmm_alloc_page>
  102cc9:	c7 44 24 0c 07 00 00 	movl   $0x7,0xc(%esp)
  102cd0:	00 
  102cd1:	89 44 24 08          	mov    %eax,0x8(%esp)
  102cd5:	89 5c 24 04          	mov    %ebx,0x4(%esp)
  102cd9:	a1 e8 a5 11 00       	mov    0x11a5e8,%eax
  102cde:	89 04 24             	mov    %eax,(%esp)
  102ce1:	e8 d3 fc ff ff       	call   1029b9 <map_page>
  102ce6:	81 c3 00 10 00 00    	add    $0x1000,%ebx
  102cec:	81 fb 00 00 10 00    	cmp    $0x100000,%ebx
  102cf2:	75 d0                	jne    102cc4 <init_vmm+0x1f>
  102cf4:	a1 e8 a5 11 00       	mov    0x11a5e8,%eax
  102cf9:	89 04 24             	mov    %eax,(%esp)
  102cfc:	e8 46 fd ff ff       	call   102a47 <map_kernel>
  102d01:	a1 e8 a5 11 00       	mov    0x11a5e8,%eax
  102d06:	89 04 24             	mov    %eax,(%esp)
  102d09:	e8 84 ff ff ff       	call   102c92 <switch_page_directory>
  102d0e:	0f 20 c0             	mov    %cr0,%eax
  102d11:	0d 00 00 00 80       	or     $0x80000000,%eax
  102d16:	0f 22 c0             	mov    %eax,%cr0
  102d19:	c7 44 24 10 00 00 00 	movl   $0x0,0x10(%esp)
  102d20:	00 
  102d21:	c7 44 24 0c 00 00 00 	movl   $0x0,0xc(%esp)
  102d28:	00 
  102d29:	c7 44 24 08 00 f0 ff 	movl   $0xeffff000,0x8(%esp)
  102d30:	ef 
  102d31:	c7 44 24 04 00 00 10 	movl   $0xe0100000,0x4(%esp)
  102d38:	e0 
  102d39:	c7 04 24 00 00 00 e0 	movl   $0xe0000000,(%esp)
  102d40:	e8 6d 11 00 00       	call   103eb2 <create_heap>
  102d45:	a3 ec a5 11 00       	mov    %eax,0x11a5ec
  102d4a:	83 c4 28             	add    $0x28,%esp
  102d4d:	5b                   	pop    %ebx
  102d4e:	c3                   	ret    
  102d4f:	90                   	nop

00102d50 <bochs_puts>:
  102d50:	56                   	push   %esi
  102d51:	53                   	push   %ebx
  102d52:	83 ec 14             	sub    $0x14,%esp
  102d55:	8b 74 24 20          	mov    0x20(%esp),%esi
  102d59:	bb 00 00 00 00       	mov    $0x0,%ebx
  102d5e:	eb 16                	jmp    102d76 <bochs_puts+0x26>
  102d60:	31 c0                	xor    %eax,%eax
  102d62:	8a 04 1e             	mov    (%esi,%ebx,1),%al
  102d65:	89 44 24 04          	mov    %eax,0x4(%esp)
  102d69:	c7 04 24 e9 00 00 00 	movl   $0xe9,(%esp)
  102d70:	e8 38 fa ff ff       	call   1027ad <outportb>
  102d75:	43                   	inc    %ebx
  102d76:	89 34 24             	mov    %esi,(%esp)
  102d79:	e8 c6 45 00 00       	call   107344 <strlen>
  102d7e:	39 c3                	cmp    %eax,%ebx
  102d80:	7c de                	jl     102d60 <bochs_puts+0x10>
  102d82:	83 c4 14             	add    $0x14,%esp
  102d85:	5b                   	pop    %ebx
  102d86:	5e                   	pop    %esi
  102d87:	c3                   	ret    

00102d88 <elf_check_magic>:
  102d88:	8b 54 24 04          	mov    0x4(%esp),%edx
  102d8c:	b8 00 00 00 00       	mov    $0x0,%eax
  102d91:	80 3a 7f             	cmpb   $0x7f,(%edx)
  102d94:	75 18                	jne    102dae <elf_check_magic+0x26>
  102d96:	80 7a 01 00          	cmpb   $0x0,0x1(%edx)
  102d9a:	74 12                	je     102dae <elf_check_magic+0x26>
  102d9c:	80 7a 02 4c          	cmpb   $0x4c,0x2(%edx)
  102da0:	75 0c                	jne    102dae <elf_check_magic+0x26>
  102da2:	80 7a 03 46          	cmpb   $0x46,0x3(%edx)
  102da6:	0f 94 c0             	sete   %al
  102da9:	25 ff 00 00 00       	and    $0xff,%eax
  102dae:	c3                   	ret    

00102daf <elf_read_header>:
  102daf:	53                   	push   %ebx
  102db0:	83 ec 18             	sub    $0x18,%esp
  102db3:	8b 5c 24 20          	mov    0x20(%esp),%ebx
  102db7:	66 8b 43 10          	mov    0x10(%ebx),%ax
  102dbb:	25 ff ff 00 00       	and    $0xffff,%eax
  102dc0:	89 04 24             	mov    %eax,(%esp)
  102dc3:	e8 5d 09 00 00       	call   103725 <elf_get_type>
  102dc8:	89 44 24 04          	mov    %eax,0x4(%esp)
  102dcc:	c7 04 24 24 83 10 00 	movl   $0x108324,(%esp)
  102dd3:	e8 fe 1e 00 00       	call   104cd6 <kprintf>
  102dd8:	66 8b 43 12          	mov    0x12(%ebx),%ax
  102ddc:	25 ff ff 00 00       	and    $0xffff,%eax
  102de1:	89 04 24             	mov    %eax,(%esp)
  102de4:	e8 48 05 00 00       	call   103331 <elf_get_arch>
  102de9:	89 44 24 04          	mov    %eax,0x4(%esp)
  102ded:	c7 04 24 33 83 10 00 	movl   $0x108333,(%esp)
  102df4:	e8 dd 1e 00 00       	call   104cd6 <kprintf>
  102df9:	31 c0                	xor    %eax,%eax
  102dfb:	8a 43 04             	mov    0x4(%ebx),%al
  102dfe:	89 04 24             	mov    %eax,(%esp)
  102e01:	e8 ff 08 00 00       	call   103705 <elf_get_class>
  102e06:	89 44 24 04          	mov    %eax,0x4(%esp)
  102e0a:	c7 04 24 40 83 10 00 	movl   $0x108340,(%esp)
  102e11:	e8 c0 1e 00 00       	call   104cd6 <kprintf>
  102e16:	31 c0                	xor    %eax,%eax
  102e18:	8a 43 05             	mov    0x5(%ebx),%al
  102e1b:	89 04 24             	mov    %eax,(%esp)
  102e1e:	e8 ee 04 00 00       	call   103311 <elf_get_encoding>
  102e23:	89 44 24 04          	mov    %eax,0x4(%esp)
  102e27:	c7 04 24 4c 83 10 00 	movl   $0x10834c,(%esp)
  102e2e:	e8 a3 1e 00 00       	call   104cd6 <kprintf>
  102e33:	8a 43 06             	mov    0x6(%ebx),%al
  102e36:	84 c0                	test   %al,%al
  102e38:	74 17                	je     102e51 <elf_read_header+0xa2>
  102e3a:	25 ff 00 00 00       	and    $0xff,%eax
  102e3f:	89 44 24 04          	mov    %eax,0x4(%esp)
  102e43:	c7 04 24 5a 83 10 00 	movl   $0x10835a,(%esp)
  102e4a:	e8 87 1e 00 00       	call   104cd6 <kprintf>
  102e4f:	eb 0c                	jmp    102e5d <elf_read_header+0xae>
  102e51:	c7 04 24 67 83 10 00 	movl   $0x108367,(%esp)
  102e58:	e8 79 1e 00 00       	call   104cd6 <kprintf>
  102e5d:	83 c4 18             	add    $0x18,%esp
  102e60:	5b                   	pop    %ebx
  102e61:	c3                   	ret    

00102e62 <elf_get_section>:
  102e62:	8b 54 24 04          	mov    0x4(%esp),%edx
  102e66:	89 d1                	mov    %edx,%ecx
  102e68:	03 4a 20             	add    0x20(%edx),%ecx
  102e6b:	66 8b 42 2e          	mov    0x2e(%edx),%ax
  102e6f:	25 ff ff 00 00       	and    $0xffff,%eax
  102e74:	0f af 44 24 08       	imul   0x8(%esp),%eax
  102e79:	01 c8                	add    %ecx,%eax
  102e7b:	c3                   	ret    

00102e7c <elf_get_section_by_type>:
  102e7c:	56                   	push   %esi
  102e7d:	53                   	push   %ebx
  102e7e:	8b 54 24 0c          	mov    0xc(%esp),%edx
  102e82:	8b 5c 24 10          	mov    0x10(%esp),%ebx
  102e86:	89 d0                	mov    %edx,%eax
  102e88:	03 42 20             	add    0x20(%edx),%eax
  102e8b:	39 58 04             	cmp    %ebx,0x4(%eax)
  102e8e:	74 1b                	je     102eab <elf_get_section_by_type+0x2f>
  102e90:	66 8b 4a 2e          	mov    0x2e(%edx),%cx
  102e94:	81 e1 ff ff 00 00    	and    $0xffff,%ecx
  102e9a:	8d 14 08             	lea    (%eax,%ecx,1),%edx
  102e9d:	89 ce                	mov    %ecx,%esi
  102e9f:	f7 de                	neg    %esi
  102ea1:	89 d0                	mov    %edx,%eax
  102ea3:	01 ca                	add    %ecx,%edx
  102ea5:	39 5c 32 04          	cmp    %ebx,0x4(%edx,%esi,1)
  102ea9:	75 f6                	jne    102ea1 <elf_get_section_by_type+0x25>
  102eab:	5b                   	pop    %ebx
  102eac:	5e                   	pop    %esi
  102ead:	c3                   	ret    

00102eae <elf_get_section_string>:
  102eae:	53                   	push   %ebx
  102eaf:	83 ec 08             	sub    $0x8,%esp
  102eb2:	8b 5c 24 10          	mov    0x10(%esp),%ebx
  102eb6:	66 8b 43 32          	mov    0x32(%ebx),%ax
  102eba:	25 ff ff 00 00       	and    $0xffff,%eax
  102ebf:	89 44 24 04          	mov    %eax,0x4(%esp)
  102ec3:	89 1c 24             	mov    %ebx,(%esp)
  102ec6:	e8 97 ff ff ff       	call   102e62 <elf_get_section>
  102ecb:	8b 54 24 14          	mov    0x14(%esp),%edx
  102ecf:	03 50 10             	add    0x10(%eax),%edx
  102ed2:	89 d0                	mov    %edx,%eax
  102ed4:	01 d8                	add    %ebx,%eax
  102ed6:	83 c4 08             	add    $0x8,%esp
  102ed9:	5b                   	pop    %ebx
  102eda:	c3                   	ret    

00102edb <elf_get_section_by_name>:
  102edb:	57                   	push   %edi
  102edc:	56                   	push   %esi
  102edd:	53                   	push   %ebx
  102ede:	83 ec 10             	sub    $0x10,%esp
  102ee1:	8b 74 24 20          	mov    0x20(%esp),%esi
  102ee5:	8b 7c 24 24          	mov    0x24(%esp),%edi
  102ee9:	89 f3                	mov    %esi,%ebx
  102eeb:	03 5e 20             	add    0x20(%esi),%ebx
  102eee:	eb 0b                	jmp    102efb <elf_get_section_by_name+0x20>
  102ef0:	66 8b 46 2e          	mov    0x2e(%esi),%ax
  102ef4:	25 ff ff 00 00       	and    $0xffff,%eax
  102ef9:	01 c3                	add    %eax,%ebx
  102efb:	8b 03                	mov    (%ebx),%eax
  102efd:	89 44 24 04          	mov    %eax,0x4(%esp)
  102f01:	89 34 24             	mov    %esi,(%esp)
  102f04:	e8 a5 ff ff ff       	call   102eae <elf_get_section_string>
  102f09:	89 7c 24 04          	mov    %edi,0x4(%esp)
  102f0d:	89 04 24             	mov    %eax,(%esp)
  102f10:	e8 99 44 00 00       	call   1073ae <strequal>
  102f15:	84 c0                	test   %al,%al
  102f17:	74 d7                	je     102ef0 <elf_get_section_by_name+0x15>
  102f19:	89 d8                	mov    %ebx,%eax
  102f1b:	83 c4 10             	add    $0x10,%esp
  102f1e:	5b                   	pop    %ebx
  102f1f:	5e                   	pop    %esi
  102f20:	5f                   	pop    %edi
  102f21:	c3                   	ret    

00102f22 <elf_dump_symtab>:
  102f22:	55                   	push   %ebp
  102f23:	57                   	push   %edi
  102f24:	56                   	push   %esi
  102f25:	53                   	push   %ebx
  102f26:	83 ec 4c             	sub    $0x4c,%esp
  102f29:	8b 6c 24 60          	mov    0x60(%esp),%ebp
  102f2d:	c7 44 24 04 79 83 10 	movl   $0x108379,0x4(%esp)
  102f34:	00 
  102f35:	89 2c 24             	mov    %ebp,(%esp)
  102f38:	e8 9e ff ff ff       	call   102edb <elf_get_section_by_name>
  102f3d:	8b 58 14             	mov    0x14(%eax),%ebx
  102f40:	c1 eb 04             	shr    $0x4,%ebx
  102f43:	89 ee                	mov    %ebp,%esi
  102f45:	03 70 10             	add    0x10(%eax),%esi
  102f48:	89 5c 24 04          	mov    %ebx,0x4(%esp)
  102f4c:	c7 04 24 81 83 10 00 	movl   $0x108381,(%esp)
  102f53:	e8 7e 1d 00 00       	call   104cd6 <kprintf>
  102f58:	c7 04 24 dc 83 10 00 	movl   $0x1083dc,(%esp)
  102f5f:	e8 72 1d 00 00       	call   104cd6 <kprintf>
  102f64:	c7 44 24 04 8e 83 10 	movl   $0x10838e,0x4(%esp)
  102f6b:	00 
  102f6c:	89 2c 24             	mov    %ebp,(%esp)
  102f6f:	e8 67 ff ff ff       	call   102edb <elf_get_section_by_name>
  102f74:	89 44 24 38          	mov    %eax,0x38(%esp)
  102f78:	85 db                	test   %ebx,%ebx
  102f7a:	0f 84 a5 00 00 00    	je     103025 <elf_dump_symtab+0x103>
  102f80:	89 5c 24 3c          	mov    %ebx,0x3c(%esp)
  102f84:	bb 00 00 00 00       	mov    $0x0,%ebx
  102f89:	89 e8                	mov    %ebp,%eax
  102f8b:	03 06                	add    (%esi),%eax
  102f8d:	8b 54 24 38          	mov    0x38(%esp),%edx
  102f91:	03 42 10             	add    0x10(%edx),%eax
  102f94:	89 44 24 30          	mov    %eax,0x30(%esp)
  102f98:	66 8b 46 0e          	mov    0xe(%esi),%ax
  102f9c:	25 ff ff 00 00       	and    $0xffff,%eax
  102fa1:	89 44 24 04          	mov    %eax,0x4(%esp)
  102fa5:	89 2c 24             	mov    %ebp,(%esp)
  102fa8:	e8 b5 fe ff ff       	call   102e62 <elf_get_section>
  102fad:	8b 00                	mov    (%eax),%eax
  102faf:	89 44 24 04          	mov    %eax,0x4(%esp)
  102fb3:	89 2c 24             	mov    %ebp,(%esp)
  102fb6:	e8 f3 fe ff ff       	call   102eae <elf_get_section_string>
  102fbb:	89 44 24 34          	mov    %eax,0x34(%esp)
  102fbf:	8a 46 0c             	mov    0xc(%esi),%al
  102fc2:	c0 e8 04             	shr    $0x4,%al
  102fc5:	25 ff 00 00 00       	and    $0xff,%eax
  102fca:	89 04 24             	mov    %eax,(%esp)
  102fcd:	e8 fb 02 00 00       	call   1032cd <elf_get_symbol_bind>
  102fd2:	89 44 24 2c          	mov    %eax,0x2c(%esp)
  102fd6:	8b 7e 08             	mov    0x8(%esi),%edi
  102fd9:	8a 46 0c             	mov    0xc(%esi),%al
  102fdc:	83 e0 0f             	and    $0xf,%eax
  102fdf:	89 04 24             	mov    %eax,(%esp)
  102fe2:	e8 a1 02 00 00       	call   103288 <elf_get_symbol_type>
  102fe7:	8b 54 24 34          	mov    0x34(%esp),%edx
  102feb:	89 54 24 18          	mov    %edx,0x18(%esp)
  102fef:	8b 54 24 30          	mov    0x30(%esp),%edx
  102ff3:	89 54 24 14          	mov    %edx,0x14(%esp)
  102ff7:	8b 54 24 2c          	mov    0x2c(%esp),%edx
  102ffb:	89 54 24 10          	mov    %edx,0x10(%esp)
  102fff:	89 7c 24 0c          	mov    %edi,0xc(%esp)
  103003:	89 44 24 08          	mov    %eax,0x8(%esp)
  103007:	89 5c 24 04          	mov    %ebx,0x4(%esp)
  10300b:	c7 04 24 96 83 10 00 	movl   $0x108396,(%esp)
  103012:	e8 bf 1c 00 00       	call   104cd6 <kprintf>
  103017:	83 c6 10             	add    $0x10,%esi
  10301a:	43                   	inc    %ebx
  10301b:	3b 5c 24 3c          	cmp    0x3c(%esp),%ebx
  10301f:	0f 85 64 ff ff ff    	jne    102f89 <elf_dump_symtab+0x67>
  103025:	83 c4 4c             	add    $0x4c,%esp
  103028:	5b                   	pop    %ebx
  103029:	5e                   	pop    %esi
  10302a:	5f                   	pop    %edi
  10302b:	5d                   	pop    %ebp
  10302c:	c3                   	ret    

0010302d <elf_dump_sections>:
  10302d:	57                   	push   %edi
  10302e:	56                   	push   %esi
  10302f:	53                   	push   %ebx
  103030:	83 ec 10             	sub    $0x10,%esp
  103033:	8b 74 24 20          	mov    0x20(%esp),%esi
  103037:	89 74 24 08          	mov    %esi,0x8(%esp)
  10303b:	66 8b 46 30          	mov    0x30(%esi),%ax
  10303f:	25 ff ff 00 00       	and    $0xffff,%eax
  103044:	89 44 24 04          	mov    %eax,0x4(%esp)
  103048:	c7 04 24 a6 83 10 00 	movl   $0x1083a6,(%esp)
  10304f:	e8 82 1c 00 00       	call   104cd6 <kprintf>
  103054:	c7 04 24 b7 83 10 00 	movl   $0x1083b7,(%esp)
  10305b:	e8 76 1c 00 00       	call   104cd6 <kprintf>
  103060:	66 83 7e 30 00       	cmpw   $0x0,0x30(%esi)
  103065:	74 4a                	je     1030b1 <elf_dump_sections+0x84>
  103067:	bb 00 00 00 00       	mov    $0x0,%ebx
  10306c:	89 5c 24 04          	mov    %ebx,0x4(%esp)
  103070:	89 34 24             	mov    %esi,(%esp)
  103073:	e8 ea fd ff ff       	call   102e62 <elf_get_section>
  103078:	89 c7                	mov    %eax,%edi
  10307a:	8b 00                	mov    (%eax),%eax
  10307c:	89 44 24 04          	mov    %eax,0x4(%esp)
  103080:	89 34 24             	mov    %esi,(%esp)
  103083:	e8 26 fe ff ff       	call   102eae <elf_get_section_string>
  103088:	8b 57 14             	mov    0x14(%edi),%edx
  10308b:	89 54 24 0c          	mov    %edx,0xc(%esp)
  10308f:	89 44 24 08          	mov    %eax,0x8(%esp)
  103093:	89 5c 24 04          	mov    %ebx,0x4(%esp)
  103097:	c7 04 24 c5 83 10 00 	movl   $0x1083c5,(%esp)
  10309e:	e8 33 1c 00 00       	call   104cd6 <kprintf>
  1030a3:	43                   	inc    %ebx
  1030a4:	66 8b 46 30          	mov    0x30(%esi),%ax
  1030a8:	25 ff ff 00 00       	and    $0xffff,%eax
  1030ad:	39 d8                	cmp    %ebx,%eax
  1030af:	7f bb                	jg     10306c <elf_dump_sections+0x3f>
  1030b1:	83 c4 10             	add    $0x10,%esp
  1030b4:	5b                   	pop    %ebx
  1030b5:	5e                   	pop    %esi
  1030b6:	5f                   	pop    %edi
  1030b7:	c3                   	ret    

001030b8 <elf_get_string>:
  1030b8:	53                   	push   %ebx
  1030b9:	83 ec 18             	sub    $0x18,%esp
  1030bc:	8b 5c 24 20          	mov    0x20(%esp),%ebx
  1030c0:	c7 44 24 04 8e 83 10 	movl   $0x10838e,0x4(%esp)
  1030c7:	00 
  1030c8:	89 1c 24             	mov    %ebx,(%esp)
  1030cb:	e8 0b fe ff ff       	call   102edb <elf_get_section_by_name>
  1030d0:	8b 54 24 24          	mov    0x24(%esp),%edx
  1030d4:	03 50 10             	add    0x10(%eax),%edx
  1030d7:	89 d0                	mov    %edx,%eax
  1030d9:	01 d8                	add    %ebx,%eax
  1030db:	83 c4 18             	add    $0x18,%esp
  1030de:	5b                   	pop    %ebx
  1030df:	c3                   	ret    

001030e0 <elf_load_section>:
  1030e0:	55                   	push   %ebp
  1030e1:	57                   	push   %edi
  1030e2:	56                   	push   %esi
  1030e3:	53                   	push   %ebx
  1030e4:	83 ec 2c             	sub    $0x2c,%esp
  1030e7:	8b 6c 24 48          	mov    0x48(%esp),%ebp
  1030eb:	8b 44 24 44          	mov    0x44(%esp),%eax
  1030ef:	89 44 24 04          	mov    %eax,0x4(%esp)
  1030f3:	8b 44 24 40          	mov    0x40(%esp),%eax
  1030f7:	89 04 24             	mov    %eax,(%esp)
  1030fa:	e8 63 fd ff ff       	call   102e62 <elf_get_section>
  1030ff:	8b 50 10             	mov    0x10(%eax),%edx
  103102:	89 54 24 1c          	mov    %edx,0x1c(%esp)
  103106:	8b 78 14             	mov    0x14(%eax),%edi
  103109:	83 78 04 01          	cmpl   $0x1,0x4(%eax)
  10310d:	75 56                	jne    103165 <elf_load_section+0x85>
  10310f:	85 ff                	test   %edi,%edi
  103111:	74 3a                	je     10314d <elf_load_section+0x6d>
  103113:	be 00 00 00 00       	mov    $0x0,%esi
  103118:	bb 00 00 00 00       	mov    $0x0,%ebx
  10311d:	e8 8e f5 ff ff       	call   1026b0 <pmm_alloc_page>
  103122:	c7 44 24 0c 07 00 00 	movl   $0x7,0xc(%esp)
  103129:	00 
  10312a:	89 44 24 08          	mov    %eax,0x8(%esp)
  10312e:	01 ee                	add    %ebp,%esi
  103130:	89 74 24 04          	mov    %esi,0x4(%esp)
  103134:	a1 e4 a5 11 00       	mov    0x11a5e4,%eax
  103139:	89 04 24             	mov    %eax,(%esp)
  10313c:	e8 78 f8 ff ff       	call   1029b9 <map_page>
  103141:	81 c3 00 10 00 00    	add    $0x1000,%ebx
  103147:	89 de                	mov    %ebx,%esi
  103149:	39 df                	cmp    %ebx,%edi
  10314b:	77 d0                	ja     10311d <elf_load_section+0x3d>
  10314d:	89 7c 24 08          	mov    %edi,0x8(%esp)
  103151:	8b 44 24 40          	mov    0x40(%esp),%eax
  103155:	03 44 24 1c          	add    0x1c(%esp),%eax
  103159:	89 44 24 04          	mov    %eax,0x4(%esp)
  10315d:	89 2c 24             	mov    %ebp,(%esp)
  103160:	e8 33 41 00 00       	call   107298 <memcpy>
  103165:	83 c4 2c             	add    $0x2c,%esp
  103168:	5b                   	pop    %ebx
  103169:	5e                   	pop    %esi
  10316a:	5f                   	pop    %edi
  10316b:	5d                   	pop    %ebp
  10316c:	c3                   	ret    

0010316d <elf_get_section_data>:
  10316d:	8b 44 24 08          	mov    0x8(%esp),%eax
  103171:	8b 40 10             	mov    0x10(%eax),%eax
  103174:	03 44 24 04          	add    0x4(%esp),%eax
  103178:	c3                   	ret    

00103179 <elf_get_symbol_address>:
  103179:	56                   	push   %esi
  10317a:	53                   	push   %ebx
  10317b:	83 ec 08             	sub    $0x8,%esp
  10317e:	8b 74 24 14          	mov    0x14(%esp),%esi
  103182:	8b 5c 24 18          	mov    0x18(%esp),%ebx
  103186:	66 8b 43 0e          	mov    0xe(%ebx),%ax
  10318a:	25 ff ff 00 00       	and    $0xffff,%eax
  10318f:	89 44 24 04          	mov    %eax,0x4(%esp)
  103193:	89 34 24             	mov    %esi,(%esp)
  103196:	e8 c7 fc ff ff       	call   102e62 <elf_get_section>
  10319b:	89 44 24 04          	mov    %eax,0x4(%esp)
  10319f:	89 34 24             	mov    %esi,(%esp)
  1031a2:	e8 c6 ff ff ff       	call   10316d <elf_get_section_data>
  1031a7:	03 43 04             	add    0x4(%ebx),%eax
  1031aa:	83 c4 08             	add    $0x8,%esp
  1031ad:	5b                   	pop    %ebx
  1031ae:	5e                   	pop    %esi
  1031af:	c3                   	ret    

001031b0 <elf_lookup_symbol>:
  1031b0:	55                   	push   %ebp
  1031b1:	57                   	push   %edi
  1031b2:	56                   	push   %esi
  1031b3:	53                   	push   %ebx
  1031b4:	83 ec 2c             	sub    $0x2c,%esp
  1031b7:	8b 6c 24 44          	mov    0x44(%esp),%ebp
  1031bb:	c7 44 24 04 02 00 00 	movl   $0x2,0x4(%esp)
  1031c2:	00 
  1031c3:	8b 44 24 40          	mov    0x40(%esp),%eax
  1031c7:	89 04 24             	mov    %eax,(%esp)
  1031ca:	e8 ad fc ff ff       	call   102e7c <elf_get_section_by_type>
  1031cf:	8b 70 14             	mov    0x14(%eax),%esi
  1031d2:	c1 ee 04             	shr    $0x4,%esi
  1031d5:	8b 5c 24 40          	mov    0x40(%esp),%ebx
  1031d9:	03 58 10             	add    0x10(%eax),%ebx
  1031dc:	c7 44 24 04 8e 83 10 	movl   $0x10838e,0x4(%esp)
  1031e3:	00 
  1031e4:	8b 54 24 40          	mov    0x40(%esp),%edx
  1031e8:	89 14 24             	mov    %edx,(%esp)
  1031eb:	e8 eb fc ff ff       	call   102edb <elf_get_section_by_name>
  1031f0:	85 f6                	test   %esi,%esi
  1031f2:	74 32                	je     103226 <elf_lookup_symbol+0x76>
  1031f4:	89 c7                	mov    %eax,%edi
  1031f6:	89 74 24 1c          	mov    %esi,0x1c(%esp)
  1031fa:	be 00 00 00 00       	mov    $0x0,%esi
  1031ff:	89 6c 24 04          	mov    %ebp,0x4(%esp)
  103203:	8b 44 24 40          	mov    0x40(%esp),%eax
  103207:	03 03                	add    (%ebx),%eax
  103209:	03 47 10             	add    0x10(%edi),%eax
  10320c:	89 04 24             	mov    %eax,(%esp)
  10320f:	e8 9a 41 00 00       	call   1073ae <strequal>
  103214:	84 c0                	test   %al,%al
  103216:	74 04                	je     10321c <elf_lookup_symbol+0x6c>
  103218:	89 d8                	mov    %ebx,%eax
  10321a:	eb 0a                	jmp    103226 <elf_lookup_symbol+0x76>
  10321c:	83 c3 10             	add    $0x10,%ebx
  10321f:	46                   	inc    %esi
  103220:	3b 74 24 1c          	cmp    0x1c(%esp),%esi
  103224:	75 d9                	jne    1031ff <elf_lookup_symbol+0x4f>
  103226:	83 c4 2c             	add    $0x2c,%esp
  103229:	5b                   	pop    %ebx
  10322a:	5e                   	pop    %esi
  10322b:	5f                   	pop    %edi
  10322c:	5d                   	pop    %ebp
  10322d:	c3                   	ret    

0010322e <elf_relocate>:
  10322e:	57                   	push   %edi
  10322f:	56                   	push   %esi
  103230:	53                   	push   %ebx
  103231:	83 ec 10             	sub    $0x10,%esp
  103234:	8b 7c 24 20          	mov    0x20(%esp),%edi
  103238:	89 fb                	mov    %edi,%ebx
  10323a:	03 5f 20             	add    0x20(%edi),%ebx
  10323d:	66 83 7f 30 00       	cmpw   $0x0,0x30(%edi)
  103242:	74 3c                	je     103280 <elf_relocate+0x52>
  103244:	be 00 00 00 00       	mov    $0x0,%esi
  103249:	8b 03                	mov    (%ebx),%eax
  10324b:	89 44 24 04          	mov    %eax,0x4(%esp)
  10324f:	89 3c 24             	mov    %edi,(%esp)
  103252:	e8 57 fc ff ff       	call   102eae <elf_get_section_string>
  103257:	c7 44 24 08 05 00 00 	movl   $0x5,0x8(%esp)
  10325e:	00 
  10325f:	c7 44 24 04 d3 83 10 	movl   $0x1083d3,0x4(%esp)
  103266:	00 
  103267:	89 04 24             	mov    %eax,(%esp)
  10326a:	e8 9b 41 00 00       	call   10740a <strnequal>
  10326f:	83 c3 28             	add    $0x28,%ebx
  103272:	46                   	inc    %esi
  103273:	66 8b 47 30          	mov    0x30(%edi),%ax
  103277:	25 ff ff 00 00       	and    $0xffff,%eax
  10327c:	39 f0                	cmp    %esi,%eax
  10327e:	7f c9                	jg     103249 <elf_relocate+0x1b>
  103280:	83 c4 10             	add    $0x10,%esp
  103283:	5b                   	pop    %ebx
  103284:	5e                   	pop    %esi
  103285:	5f                   	pop    %edi
  103286:	c3                   	ret    
  103287:	90                   	nop

00103288 <elf_get_symbol_type>:
  103288:	8a 54 24 04          	mov    0x4(%esp),%dl
  10328c:	b8 26 84 10 00       	mov    $0x108426,%eax
  103291:	80 fa 06             	cmp    $0x6,%dl
  103294:	77 36                	ja     1032cc <elf_get_symbol_type+0x44>
  103296:	81 e2 ff 00 00 00    	and    $0xff,%edx
  10329c:	ff 24 95 6c 8d 10 00 	jmp    *0x108d6c(,%edx,4)
  1032a3:	b8 fb 83 10 00       	mov    $0x1083fb,%eax
  1032a8:	c3                   	ret    
  1032a9:	b8 09 84 10 00       	mov    $0x108409,%eax
  1032ae:	c3                   	ret    
  1032af:	b8 0e 84 10 00       	mov    $0x10840e,%eax
  1032b4:	c3                   	ret    
  1032b5:	b8 16 84 10 00       	mov    $0x108416,%eax
  1032ba:	c3                   	ret    
  1032bb:	b8 1b 84 10 00       	mov    $0x10841b,%eax
  1032c0:	c3                   	ret    
  1032c1:	b8 22 84 10 00       	mov    $0x108422,%eax
  1032c6:	c3                   	ret    
  1032c7:	b8 02 84 10 00       	mov    $0x108402,%eax
  1032cc:	c3                   	ret    

001032cd <elf_get_symbol_bind>:
  1032cd:	8a 44 24 04          	mov    0x4(%esp),%al
  1032d1:	3c 0f                	cmp    $0xf,%al
  1032d3:	77 30                	ja     103305 <elf_get_symbol_bind+0x38>
  1032d5:	25 ff 00 00 00       	and    $0xff,%eax
  1032da:	ff 24 85 88 8d 10 00 	jmp    *0x108d88(,%eax,4)
  1032e1:	b8 2e 84 10 00       	mov    $0x10842e,%eax
  1032e6:	c3                   	ret    
  1032e7:	b8 3b 84 10 00       	mov    $0x10843b,%eax
  1032ec:	c3                   	ret    
  1032ed:	b8 40 84 10 00       	mov    $0x108440,%eax
  1032f2:	c3                   	ret    
  1032f3:	b8 45 84 10 00       	mov    $0x108445,%eax
  1032f8:	c3                   	ret    
  1032f9:	b8 4a 84 10 00       	mov    $0x10844a,%eax
  1032fe:	c3                   	ret    
  1032ff:	b8 51 84 10 00       	mov    $0x108451,%eax
  103304:	c3                   	ret    
  103305:	b8 26 84 10 00       	mov    $0x108426,%eax
  10330a:	c3                   	ret    
  10330b:	b8 34 84 10 00       	mov    $0x108434,%eax
  103310:	c3                   	ret    

00103311 <elf_get_encoding>:
  103311:	8a 44 24 04          	mov    0x4(%esp),%al
  103315:	3c 01                	cmp    $0x1,%al
  103317:	74 06                	je     10331f <elf_get_encoding+0xe>
  103319:	3c 02                	cmp    $0x2,%al
  10331b:	75 08                	jne    103325 <elf_get_encoding+0x14>
  10331d:	eb 0c                	jmp    10332b <elf_get_encoding+0x1a>
  10331f:	b8 58 84 10 00       	mov    $0x108458,%eax
  103324:	c3                   	ret    
  103325:	b8 71 84 10 00       	mov    $0x108471,%eax
  10332a:	c3                   	ret    
  10332b:	b8 66 84 10 00       	mov    $0x108466,%eax
  103330:	c3                   	ret    

00103331 <elf_get_arch>:
  103331:	8b 44 24 04          	mov    0x4(%esp),%eax
  103335:	66 3d cc 00          	cmp    $0xcc,%ax
  103339:	0f 87 ba 03 00 00    	ja     1036f9 <elf_get_arch+0x3c8>
  10333f:	25 ff ff 00 00       	and    $0xffff,%eax
  103344:	ff 24 85 c8 8d 10 00 	jmp    *0x108dc8(,%eax,4)
  10334b:	b8 79 84 10 00       	mov    $0x108479,%eax
  103350:	c3                   	ret    
  103351:	b8 92 84 10 00       	mov    $0x108492,%eax
  103356:	c3                   	ret    
  103357:	b8 98 84 10 00       	mov    $0x108498,%eax
  10335c:	c3                   	ret    
  10335d:	b8 ab 84 10 00       	mov    $0x1084ab,%eax
  103362:	c3                   	ret    
  103363:	b8 ba 84 10 00       	mov    $0x1084ba,%eax
  103368:	c3                   	ret    
  103369:	b8 c9 84 10 00       	mov    $0x1084c9,%eax
  10336e:	c3                   	ret    
  10336f:	b8 d5 84 10 00       	mov    $0x1084d5,%eax
  103374:	c3                   	ret    
  103375:	b8 e9 84 10 00       	mov    $0x1084e9,%eax
  10337a:	c3                   	ret    
  10337b:	b8 02 85 10 00       	mov    $0x108502,%eax
  103380:	c3                   	ret    
  103381:	b8 1c 85 10 00       	mov    $0x10851c,%eax
  103386:	c3                   	ret    
  103387:	b8 34 85 10 00       	mov    $0x108534,%eax
  10338c:	c3                   	ret    
  10338d:	b8 fc 90 10 00       	mov    $0x1090fc,%eax
  103392:	c3                   	ret    
  103393:	b8 43 85 10 00       	mov    $0x108543,%eax
  103398:	c3                   	ret    
  103399:	b8 4f 85 10 00       	mov    $0x10854f,%eax
  10339e:	c3                   	ret    
  10339f:	b8 57 85 10 00       	mov    $0x108557,%eax
  1033a4:	c3                   	ret    
  1033a5:	b8 66 85 10 00       	mov    $0x108566,%eax
  1033aa:	c3                   	ret    
  1033ab:	b8 7f 85 10 00       	mov    $0x10857f,%eax
  1033b0:	c3                   	ret    
  1033b1:	b8 8b 85 10 00       	mov    $0x10858b,%eax
  1033b6:	c3                   	ret    
  1033b7:	b8 94 85 10 00       	mov    $0x108594,%eax
  1033bc:	c3                   	ret    
  1033bd:	b8 a1 85 10 00       	mov    $0x1085a1,%eax
  1033c2:	c3                   	ret    
  1033c3:	b8 ab 85 10 00       	mov    $0x1085ab,%eax
  1033c8:	c3                   	ret    
  1033c9:	b8 b8 85 10 00       	mov    $0x1085b8,%eax
  1033ce:	c3                   	ret    
  1033cf:	b8 c3 85 10 00       	mov    $0x1085c3,%eax
  1033d4:	c3                   	ret    
  1033d5:	b8 d1 85 10 00       	mov    $0x1085d1,%eax
  1033da:	c3                   	ret    
  1033db:	b8 dc 85 10 00       	mov    $0x1085dc,%eax
  1033e0:	c3                   	ret    
  1033e1:	b8 ec 85 10 00       	mov    $0x1085ec,%eax
  1033e6:	c3                   	ret    
  1033e7:	b8 fc 85 10 00       	mov    $0x1085fc,%eax
  1033ec:	c3                   	ret    
  1033ed:	b8 0f 86 10 00       	mov    $0x10860f,%eax
  1033f2:	c3                   	ret    
  1033f3:	b8 1e 86 10 00       	mov    $0x10861e,%eax
  1033f8:	c3                   	ret    
  1033f9:	b8 2e 86 10 00       	mov    $0x10862e,%eax
  1033fe:	c3                   	ret    
  1033ff:	b8 3a 86 10 00       	mov    $0x10863a,%eax
  103404:	c3                   	ret    
  103405:	b8 49 86 10 00       	mov    $0x108649,%eax
  10340a:	c3                   	ret    
  10340b:	b8 55 86 10 00       	mov    $0x108655,%eax
  103410:	c3                   	ret    
  103411:	b8 65 86 10 00       	mov    $0x108665,%eax
  103416:	c3                   	ret    
  103417:	b8 77 86 10 00       	mov    $0x108677,%eax
  10341c:	c3                   	ret    
  10341d:	b8 1c 91 10 00       	mov    $0x10911c,%eax
  103422:	c3                   	ret    
  103423:	b8 88 86 10 00       	mov    $0x108688,%eax
  103428:	c3                   	ret    
  103429:	b8 94 86 10 00       	mov    $0x108694,%eax
  10342e:	c3                   	ret    
  10342f:	b8 a3 86 10 00       	mov    $0x1086a3,%eax
  103434:	c3                   	ret    
  103435:	b8 ae 86 10 00       	mov    $0x1086ae,%eax
  10343a:	c3                   	ret    
  10343b:	b8 c0 86 10 00       	mov    $0x1086c0,%eax
  103440:	c3                   	ret    
  103441:	b8 cc 86 10 00       	mov    $0x1086cc,%eax
  103446:	c3                   	ret    
  103447:	b8 e5 86 10 00       	mov    $0x1086e5,%eax
  10344c:	c3                   	ret    
  10344d:	b8 00 87 10 00       	mov    $0x108700,%eax
  103452:	c3                   	ret    
  103453:	b8 0b 87 10 00       	mov    $0x10870b,%eax
  103458:	c3                   	ret    
  103459:	b8 40 91 10 00       	mov    $0x109140,%eax
  10345e:	c3                   	ret    
  10345f:	b8 60 91 10 00       	mov    $0x109160,%eax
  103464:	c3                   	ret    
  103465:	b8 14 87 10 00       	mov    $0x108714,%eax
  10346a:	c3                   	ret    
  10346b:	b8 21 87 10 00       	mov    $0x108721,%eax
  103470:	c3                   	ret    
  103471:	b8 39 87 10 00       	mov    $0x108739,%eax
  103476:	c3                   	ret    
  103477:	b8 50 87 10 00       	mov    $0x108750,%eax
  10347c:	c3                   	ret    
  10347d:	b8 62 87 10 00       	mov    $0x108762,%eax
  103482:	c3                   	ret    
  103483:	b8 74 87 10 00       	mov    $0x108774,%eax
  103488:	c3                   	ret    
  103489:	b8 86 87 10 00       	mov    $0x108786,%eax
  10348e:	c3                   	ret    
  10348f:	b8 98 87 10 00       	mov    $0x108798,%eax
  103494:	c3                   	ret    
  103495:	b8 ad 87 10 00       	mov    $0x1087ad,%eax
  10349a:	c3                   	ret    
  10349b:	b8 c5 87 10 00       	mov    $0x1087c5,%eax
  1034a0:	c3                   	ret    
  1034a1:	b8 80 91 10 00       	mov    $0x109180,%eax
  1034a6:	c3                   	ret    
  1034a7:	b8 b0 91 10 00       	mov    $0x1091b0,%eax
  1034ac:	c3                   	ret    
  1034ad:	b8 d1 87 10 00       	mov    $0x1087d1,%eax
  1034b2:	c3                   	ret    
  1034b3:	b8 e0 87 10 00       	mov    $0x1087e0,%eax
  1034b8:	c3                   	ret    
  1034b9:	b8 e0 91 10 00       	mov    $0x1091e0,%eax
  1034be:	c3                   	ret    
  1034bf:	b8 0c 92 10 00       	mov    $0x10920c,%eax
  1034c4:	c3                   	ret    
  1034c5:	b8 ee 87 10 00       	mov    $0x1087ee,%eax
  1034ca:	c3                   	ret    
  1034cb:	b8 fb 87 10 00       	mov    $0x1087fb,%eax
  1034d0:	c3                   	ret    
  1034d1:	b8 05 88 10 00       	mov    $0x108805,%eax
  1034d6:	c3                   	ret    
  1034d7:	b8 12 88 10 00       	mov    $0x108812,%eax
  1034dc:	c3                   	ret    
  1034dd:	b8 22 88 10 00       	mov    $0x108822,%eax
  1034e2:	c3                   	ret    
  1034e3:	b8 32 88 10 00       	mov    $0x108832,%eax
  1034e8:	c3                   	ret    
  1034e9:	b8 3b 88 10 00       	mov    $0x10883b,%eax
  1034ee:	c3                   	ret    
  1034ef:	b8 4b 88 10 00       	mov    $0x10884b,%eax
  1034f4:	c3                   	ret    
  1034f5:	b8 5e 88 10 00       	mov    $0x10885e,%eax
  1034fa:	c3                   	ret    
  1034fb:	b8 71 88 10 00       	mov    $0x108871,%eax
  103500:	c3                   	ret    
  103501:	b8 7a 88 10 00       	mov    $0x10887a,%eax
  103506:	c3                   	ret    
  103507:	b8 83 88 10 00       	mov    $0x108883,%eax
  10350c:	c3                   	ret    
  10350d:	b8 9f 88 10 00       	mov    $0x10889f,%eax
  103512:	c3                   	ret    
  103513:	b8 b0 88 10 00       	mov    $0x1088b0,%eax
  103518:	c3                   	ret    
  103519:	b8 34 92 10 00       	mov    $0x109234,%eax
  10351e:	c3                   	ret    
  10351f:	b8 64 92 10 00       	mov    $0x109264,%eax
  103524:	c3                   	ret    
  103525:	b8 c6 88 10 00       	mov    $0x1088c6,%eax
  10352a:	c3                   	ret    
  10352b:	b8 d8 88 10 00       	mov    $0x1088d8,%eax
  103530:	c3                   	ret    
  103531:	b8 e8 88 10 00       	mov    $0x1088e8,%eax
  103536:	c3                   	ret    
  103537:	b8 01 89 10 00       	mov    $0x108901,%eax
  10353c:	c3                   	ret    
  10353d:	b8 0f 89 10 00       	mov    $0x10890f,%eax
  103542:	c3                   	ret    
  103543:	b8 88 92 10 00       	mov    $0x109288,%eax
  103548:	c3                   	ret    
  103549:	b8 13 89 10 00       	mov    $0x108913,%eax
  10354e:	c3                   	ret    
  10354f:	b8 22 89 10 00       	mov    $0x108922,%eax
  103554:	c3                   	ret    
  103555:	b8 3b 89 10 00       	mov    $0x10893b,%eax
  10355a:	c3                   	ret    
  10355b:	b8 57 89 10 00       	mov    $0x108957,%eax
  103560:	c3                   	ret    
  103561:	b8 70 89 10 00       	mov    $0x108970,%eax
  103566:	c3                   	ret    
  103567:	b8 76 89 10 00       	mov    $0x108976,%eax
  10356c:	c3                   	ret    
  10356d:	b8 ac 92 10 00       	mov    $0x1092ac,%eax
  103572:	c3                   	ret    
  103573:	b8 80 89 10 00       	mov    $0x108980,%eax
  103578:	c3                   	ret    
  103579:	b8 f0 92 10 00       	mov    $0x1092f0,%eax
  10357e:	c3                   	ret    
  10357f:	b8 8b 89 10 00       	mov    $0x10898b,%eax
  103584:	c3                   	ret    
  103585:	b8 24 93 10 00       	mov    $0x109324,%eax
  10358a:	c3                   	ret    
  10358b:	b8 9a 89 10 00       	mov    $0x10899a,%eax
  103590:	c3                   	ret    
  103591:	b8 ab 89 10 00       	mov    $0x1089ab,%eax
  103596:	c3                   	ret    
  103597:	b8 bf 89 10 00       	mov    $0x1089bf,%eax
  10359c:	c3                   	ret    
  10359d:	b8 4c 93 10 00       	mov    $0x10934c,%eax
  1035a2:	c3                   	ret    
  1035a3:	b8 84 93 10 00       	mov    $0x109384,%eax
  1035a8:	c3                   	ret    
  1035a9:	b8 cc 89 10 00       	mov    $0x1089cc,%eax
  1035ae:	c3                   	ret    
  1035af:	b8 d9 89 10 00       	mov    $0x1089d9,%eax
  1035b4:	c3                   	ret    
  1035b5:	b8 e8 89 10 00       	mov    $0x1089e8,%eax
  1035ba:	c3                   	ret    
  1035bb:	b8 f7 89 10 00       	mov    $0x1089f7,%eax
  1035c0:	c3                   	ret    
  1035c1:	b8 0c 8a 10 00       	mov    $0x108a0c,%eax
  1035c6:	c3                   	ret    
  1035c7:	b8 22 8a 10 00       	mov    $0x108a22,%eax
  1035cc:	c3                   	ret    
  1035cd:	b8 37 8a 10 00       	mov    $0x108a37,%eax
  1035d2:	c3                   	ret    
  1035d3:	b8 52 8a 10 00       	mov    $0x108a52,%eax
  1035d8:	c3                   	ret    
  1035d9:	b8 69 8a 10 00       	mov    $0x108a69,%eax
  1035de:	c3                   	ret    
  1035df:	b8 7f 8a 10 00       	mov    $0x108a7f,%eax
  1035e4:	c3                   	ret    
  1035e5:	b8 8f 8a 10 00       	mov    $0x108a8f,%eax
  1035ea:	c3                   	ret    
  1035eb:	b8 ad 8a 10 00       	mov    $0x108aad,%eax
  1035f0:	c3                   	ret    
  1035f1:	b8 cb 8a 10 00       	mov    $0x108acb,%eax
  1035f6:	c3                   	ret    
  1035f7:	b8 a8 93 10 00       	mov    $0x1093a8,%eax
  1035fc:	c3                   	ret    
  1035fd:	b8 e9 8a 10 00       	mov    $0x108ae9,%eax
  103602:	c3                   	ret    
  103603:	b8 f5 8a 10 00       	mov    $0x108af5,%eax
  103608:	c3                   	ret    
  103609:	b8 02 8b 10 00       	mov    $0x108b02,%eax
  10360e:	c3                   	ret    
  10360f:	b8 1e 8b 10 00       	mov    $0x108b1e,%eax
  103614:	c3                   	ret    
  103615:	b8 2c 8b 10 00       	mov    $0x108b2c,%eax
  10361a:	c3                   	ret    
  10361b:	b8 cc 93 10 00       	mov    $0x1093cc,%eax
  103620:	c3                   	ret    
  103621:	b8 44 8b 10 00       	mov    $0x108b44,%eax
  103626:	c3                   	ret    
  103627:	b8 5a 8b 10 00       	mov    $0x108b5a,%eax
  10362c:	c3                   	ret    
  10362d:	b8 ec 93 10 00       	mov    $0x1093ec,%eax
  103632:	c3                   	ret    
  103633:	b8 71 8b 10 00       	mov    $0x108b71,%eax
  103638:	c3                   	ret    
  103639:	b8 10 94 10 00       	mov    $0x109410,%eax
  10363e:	c3                   	ret    
  10363f:	b8 34 94 10 00       	mov    $0x109434,%eax
  103644:	c3                   	ret    
  103645:	b8 8c 8b 10 00       	mov    $0x108b8c,%eax
  10364a:	c3                   	ret    
  10364b:	b8 58 94 10 00       	mov    $0x109458,%eax
  103650:	c3                   	ret    
  103651:	b8 97 8b 10 00       	mov    $0x108b97,%eax
  103656:	c3                   	ret    
  103657:	b8 a3 8b 10 00       	mov    $0x108ba3,%eax
  10365c:	c3                   	ret    
  10365d:	b8 90 94 10 00       	mov    $0x109490,%eax
  103662:	c3                   	ret    
  103663:	b8 bc 94 10 00       	mov    $0x1094bc,%eax
  103668:	c3                   	ret    
  103669:	b8 e4 94 10 00       	mov    $0x1094e4,%eax
  10366e:	c3                   	ret    
  10366f:	b8 ba 8b 10 00       	mov    $0x108bba,%eax
  103674:	c3                   	ret    
  103675:	b8 c5 8b 10 00       	mov    $0x108bc5,%eax
  10367a:	c3                   	ret    
  10367b:	b8 d0 8b 10 00       	mov    $0x108bd0,%eax
  103680:	c3                   	ret    
  103681:	b8 db 8b 10 00       	mov    $0x108bdb,%eax
  103686:	c3                   	ret    
  103687:	b8 f8 8b 10 00       	mov    $0x108bf8,%eax
  10368c:	c3                   	ret    
  10368d:	b8 10 8c 10 00       	mov    $0x108c10,%eax
  103692:	c3                   	ret    
  103693:	b8 1e 8c 10 00       	mov    $0x108c1e,%eax
  103698:	c3                   	ret    
  103699:	b8 2d 8c 10 00       	mov    $0x108c2d,%eax
  10369e:	c3                   	ret    
  10369f:	b8 44 8c 10 00       	mov    $0x108c44,%eax
  1036a4:	c3                   	ret    
  1036a5:	b8 50 8c 10 00       	mov    $0x108c50,%eax
  1036aa:	c3                   	ret    
  1036ab:	b8 5f 8c 10 00       	mov    $0x108c5f,%eax
  1036b0:	c3                   	ret    
  1036b1:	b8 08 95 10 00       	mov    $0x109508,%eax
  1036b6:	c3                   	ret    
  1036b7:	b8 2c 95 10 00       	mov    $0x10952c,%eax
  1036bc:	c3                   	ret    
  1036bd:	b8 6b 8c 10 00       	mov    $0x108c6b,%eax
  1036c2:	c3                   	ret    
  1036c3:	b8 81 8c 10 00       	mov    $0x108c81,%eax
  1036c8:	c3                   	ret    
  1036c9:	b8 92 8c 10 00       	mov    $0x108c92,%eax
  1036ce:	c3                   	ret    
  1036cf:	b8 9f 8c 10 00       	mov    $0x108c9f,%eax
  1036d4:	c3                   	ret    
  1036d5:	b8 b4 8c 10 00       	mov    $0x108cb4,%eax
  1036da:	c3                   	ret    
  1036db:	b8 c2 8c 10 00       	mov    $0x108cc2,%eax
  1036e0:	c3                   	ret    
  1036e1:	b8 d8 8c 10 00       	mov    $0x108cd8,%eax
  1036e6:	c3                   	ret    
  1036e7:	b8 e3 8c 10 00       	mov    $0x108ce3,%eax
  1036ec:	c3                   	ret    
  1036ed:	b8 ee 8c 10 00       	mov    $0x108cee,%eax
  1036f2:	c3                   	ret    
  1036f3:	b8 f9 8c 10 00       	mov    $0x108cf9,%eax
  1036f8:	c3                   	ret    
  1036f9:	b8 50 95 10 00       	mov    $0x109550,%eax
  1036fe:	c3                   	ret    
  1036ff:	b8 84 84 10 00       	mov    $0x108484,%eax
  103704:	c3                   	ret    

00103705 <elf_get_class>:
  103705:	8a 44 24 04          	mov    0x4(%esp),%al
  103709:	3c 01                	cmp    $0x1,%al
  10370b:	74 06                	je     103713 <elf_get_class+0xe>
  10370d:	3c 02                	cmp    $0x2,%al
  10370f:	75 08                	jne    103719 <elf_get_class+0x14>
  103711:	eb 0c                	jmp    10371f <elf_get_class+0x1a>
  103713:	b8 bc 85 10 00       	mov    $0x1085bc,%eax
  103718:	c3                   	ret    
  103719:	b8 0d 8d 10 00       	mov    $0x108d0d,%eax
  10371e:	c3                   	ret    
  10371f:	b8 5f 85 10 00       	mov    $0x10855f,%eax
  103724:	c3                   	ret    

00103725 <elf_get_type>:
  103725:	8b 44 24 04          	mov    0x4(%esp),%eax
  103729:	66 83 f8 02          	cmp    $0x2,%ax
  10372d:	74 34                	je     103763 <elf_get_type+0x3e>
  10372f:	66 83 f8 02          	cmp    $0x2,%ax
  103733:	77 08                	ja     10373d <elf_get_type+0x18>
  103735:	66 83 f8 01          	cmp    $0x1,%ax
  103739:	75 22                	jne    10375d <elf_get_type+0x38>
  10373b:	eb 0e                	jmp    10374b <elf_get_type+0x26>
  10373d:	66 83 f8 03          	cmp    $0x3,%ax
  103741:	74 0e                	je     103751 <elf_get_type+0x2c>
  103743:	66 83 f8 04          	cmp    $0x4,%ax
  103747:	75 14                	jne    10375d <elf_get_type+0x38>
  103749:	eb 0c                	jmp    103757 <elf_get_type+0x32>
  10374b:	b8 1b 8d 10 00       	mov    $0x108d1b,%eax
  103750:	c3                   	ret    
  103751:	b8 3c 8d 10 00       	mov    $0x108d3c,%eax
  103756:	c3                   	ret    
  103757:	b8 4f 8d 10 00       	mov    $0x108d4f,%eax
  10375c:	c3                   	ret    
  10375d:	b8 59 8d 10 00       	mov    $0x108d59,%eax
  103762:	c3                   	ret    
  103763:	b8 2c 8d 10 00       	mov    $0x108d2c,%eax
  103768:	c3                   	ret    
  103769:	66 90                	xchg   %ax,%ax
  10376b:	90                   	nop

0010376c <create>:
  10376c:	56                   	push   %esi
  10376d:	53                   	push   %ebx
  10376e:	83 ec 14             	sub    $0x14,%esp
  103771:	e8 71 1a 00 00       	call   1051e7 <getprocess>
  103776:	89 c6                	mov    %eax,%esi
  103778:	8b 40 18             	mov    0x18(%eax),%eax
  10377b:	89 c2                	mov    %eax,%edx
  10377d:	c1 e2 04             	shl    $0x4,%edx
  103780:	c1 e0 07             	shl    $0x7,%eax
  103783:	29 d0                	sub    %edx,%eax
  103785:	40                   	inc    %eax
  103786:	89 44 24 04          	mov    %eax,0x4(%esp)
  10378a:	8b 46 14             	mov    0x14(%esi),%eax
  10378d:	89 04 24             	mov    %eax,(%esp)
  103790:	e8 82 0b 00 00       	call   104317 <krealloc>
  103795:	89 46 14             	mov    %eax,0x14(%esi)
  103798:	8b 56 18             	mov    0x18(%esi),%edx
  10379b:	c7 04 90 00 00 00 00 	movl   $0x0,(%eax,%edx,4)
  1037a2:	8b 56 18             	mov    0x18(%esi),%edx
  1037a5:	42                   	inc    %edx
  1037a6:	89 56 18             	mov    %edx,0x18(%esi)
  1037a9:	85 d2                	test   %edx,%edx
  1037ab:	74 1c                	je     1037c9 <create+0x5d>
  1037ad:	8b 4e 14             	mov    0x14(%esi),%ecx
  1037b0:	83 39 00             	cmpl   $0x0,(%ecx)
  1037b3:	74 1b                	je     1037d0 <create+0x64>
  1037b5:	bb 00 00 00 00       	mov    $0x0,%ebx
  1037ba:	eb 06                	jmp    1037c2 <create+0x56>
  1037bc:	83 3c 99 00          	cmpl   $0x0,(%ecx,%ebx,4)
  1037c0:	74 13                	je     1037d5 <create+0x69>
  1037c2:	43                   	inc    %ebx
  1037c3:	39 da                	cmp    %ebx,%edx
  1037c5:	75 f5                	jne    1037bc <create+0x50>
  1037c7:	eb 0c                	jmp    1037d5 <create+0x69>
  1037c9:	bb 00 00 00 00       	mov    $0x0,%ebx
  1037ce:	eb 05                	jmp    1037d5 <create+0x69>
  1037d0:	bb 00 00 00 00       	mov    $0x0,%ebx
  1037d5:	8b 46 14             	mov    0x14(%esi),%eax
  1037d8:	8d 34 98             	lea    (%eax,%ebx,4),%esi
  1037db:	8b 44 24 24          	mov    0x24(%esp),%eax
  1037df:	89 44 24 04          	mov    %eax,0x4(%esp)
  1037e3:	8b 44 24 20          	mov    0x20(%esp),%eax
  1037e7:	89 04 24             	mov    %eax,(%esp)
  1037ea:	e8 ad 26 00 00       	call   105e9c <create_fs>
  1037ef:	89 06                	mov    %eax,(%esi)
  1037f1:	89 d8                	mov    %ebx,%eax
  1037f3:	83 c4 14             	add    $0x14,%esp
  1037f6:	5b                   	pop    %ebx
  1037f7:	5e                   	pop    %esi
  1037f8:	c3                   	ret    

001037f9 <open>:
  1037f9:	56                   	push   %esi
  1037fa:	53                   	push   %ebx
  1037fb:	83 ec 14             	sub    $0x14,%esp
  1037fe:	e8 e4 19 00 00       	call   1051e7 <getprocess>
  103803:	89 c6                	mov    %eax,%esi
  103805:	8b 40 18             	mov    0x18(%eax),%eax
  103808:	89 c2                	mov    %eax,%edx
  10380a:	c1 e2 04             	shl    $0x4,%edx
  10380d:	c1 e0 07             	shl    $0x7,%eax
  103810:	29 d0                	sub    %edx,%eax
  103812:	40                   	inc    %eax
  103813:	89 44 24 04          	mov    %eax,0x4(%esp)
  103817:	8b 46 14             	mov    0x14(%esi),%eax
  10381a:	89 04 24             	mov    %eax,(%esp)
  10381d:	e8 f5 0a 00 00       	call   104317 <krealloc>
  103822:	89 46 14             	mov    %eax,0x14(%esi)
  103825:	8b 56 18             	mov    0x18(%esi),%edx
  103828:	c7 04 90 00 00 00 00 	movl   $0x0,(%eax,%edx,4)
  10382f:	8b 56 18             	mov    0x18(%esi),%edx
  103832:	42                   	inc    %edx
  103833:	89 56 18             	mov    %edx,0x18(%esi)
  103836:	85 d2                	test   %edx,%edx
  103838:	74 1c                	je     103856 <open+0x5d>
  10383a:	8b 4e 14             	mov    0x14(%esi),%ecx
  10383d:	83 39 00             	cmpl   $0x0,(%ecx)
  103840:	74 1b                	je     10385d <open+0x64>
  103842:	bb 00 00 00 00       	mov    $0x0,%ebx
  103847:	eb 06                	jmp    10384f <open+0x56>
  103849:	83 3c 99 00          	cmpl   $0x0,(%ecx,%ebx,4)
  10384d:	74 13                	je     103862 <open+0x69>
  10384f:	43                   	inc    %ebx
  103850:	39 da                	cmp    %ebx,%edx
  103852:	75 f5                	jne    103849 <open+0x50>
  103854:	eb 0c                	jmp    103862 <open+0x69>
  103856:	bb 00 00 00 00       	mov    $0x0,%ebx
  10385b:	eb 05                	jmp    103862 <open+0x69>
  10385d:	bb 00 00 00 00       	mov    $0x0,%ebx
  103862:	8b 46 14             	mov    0x14(%esi),%eax
  103865:	8d 34 98             	lea    (%eax,%ebx,4),%esi
  103868:	8b 44 24 28          	mov    0x28(%esp),%eax
  10386c:	89 44 24 08          	mov    %eax,0x8(%esp)
  103870:	8b 44 24 24          	mov    0x24(%esp),%eax
  103874:	89 44 24 04          	mov    %eax,0x4(%esp)
  103878:	8b 44 24 20          	mov    0x20(%esp),%eax
  10387c:	89 04 24             	mov    %eax,(%esp)
  10387f:	e8 a1 2b 00 00       	call   106425 <open_fs>
  103884:	89 06                	mov    %eax,(%esi)
  103886:	89 d8                	mov    %ebx,%eax
  103888:	83 c4 14             	add    $0x14,%esp
  10388b:	5b                   	pop    %ebx
  10388c:	5e                   	pop    %esi
  10388d:	c3                   	ret    

0010388e <close>:
  10388e:	53                   	push   %ebx
  10388f:	83 ec 18             	sub    $0x18,%esp
  103892:	8b 5c 24 20          	mov    0x20(%esp),%ebx
  103896:	e8 4c 19 00 00       	call   1051e7 <getprocess>
  10389b:	3b 58 18             	cmp    0x18(%eax),%ebx
  10389e:	73 10                	jae    1038b0 <close+0x22>
  1038a0:	8b 40 14             	mov    0x14(%eax),%eax
  1038a3:	8b 04 98             	mov    (%eax,%ebx,4),%eax
  1038a6:	89 04 24             	mov    %eax,(%esp)
  1038a9:	e8 1f 26 00 00       	call   105ecd <close_fs>
  1038ae:	eb 00                	jmp    1038b0 <close+0x22>
  1038b0:	83 c4 18             	add    $0x18,%esp
  1038b3:	5b                   	pop    %ebx
  1038b4:	c3                   	ret    

001038b5 <read>:
  1038b5:	53                   	push   %ebx
  1038b6:	83 ec 18             	sub    $0x18,%esp
  1038b9:	8b 5c 24 20          	mov    0x20(%esp),%ebx
  1038bd:	e8 25 19 00 00       	call   1051e7 <getprocess>
  1038c2:	3b 58 18             	cmp    0x18(%eax),%ebx
  1038c5:	73 20                	jae    1038e7 <read+0x32>
  1038c7:	8b 54 24 28          	mov    0x28(%esp),%edx
  1038cb:	89 54 24 08          	mov    %edx,0x8(%esp)
  1038cf:	8b 54 24 24          	mov    0x24(%esp),%edx
  1038d3:	89 54 24 04          	mov    %edx,0x4(%esp)
  1038d7:	8b 40 14             	mov    0x14(%eax),%eax
  1038da:	8b 04 98             	mov    (%eax,%ebx,4),%eax
  1038dd:	89 04 24             	mov    %eax,(%esp)
  1038e0:	e8 06 26 00 00       	call   105eeb <read_fs>
  1038e5:	eb 00                	jmp    1038e7 <read+0x32>
  1038e7:	83 c4 18             	add    $0x18,%esp
  1038ea:	5b                   	pop    %ebx
  1038eb:	c3                   	ret    

001038ec <write>:
  1038ec:	53                   	push   %ebx
  1038ed:	83 ec 18             	sub    $0x18,%esp
  1038f0:	8b 5c 24 20          	mov    0x20(%esp),%ebx
  1038f4:	e8 ee 18 00 00       	call   1051e7 <getprocess>
  1038f9:	3b 58 18             	cmp    0x18(%eax),%ebx
  1038fc:	73 20                	jae    10391e <write+0x32>
  1038fe:	8b 54 24 28          	mov    0x28(%esp),%edx
  103902:	89 54 24 08          	mov    %edx,0x8(%esp)
  103906:	8b 54 24 24          	mov    0x24(%esp),%edx
  10390a:	89 54 24 04          	mov    %edx,0x4(%esp)
  10390e:	8b 40 14             	mov    0x14(%eax),%eax
  103911:	8b 04 98             	mov    (%eax,%ebx,4),%eax
  103914:	89 04 24             	mov    %eax,(%esp)
  103917:	e8 13 26 00 00       	call   105f2f <write_fs>
  10391c:	eb 00                	jmp    10391e <write+0x32>
  10391e:	83 c4 18             	add    $0x18,%esp
  103921:	5b                   	pop    %ebx
  103922:	c3                   	ret    

00103923 <lseek>:
  103923:	53                   	push   %ebx
  103924:	83 ec 18             	sub    $0x18,%esp
  103927:	8b 5c 24 20          	mov    0x20(%esp),%ebx
  10392b:	e8 b7 18 00 00       	call   1051e7 <getprocess>
  103930:	3b 58 18             	cmp    0x18(%eax),%ebx
  103933:	73 1e                	jae    103953 <lseek+0x30>
  103935:	8b 54 24 28          	mov    0x28(%esp),%edx
  103939:	89 54 24 08          	mov    %edx,0x8(%esp)
  10393d:	8b 54 24 24          	mov    0x24(%esp),%edx
  103941:	89 54 24 04          	mov    %edx,0x4(%esp)
  103945:	8b 40 14             	mov    0x14(%eax),%eax
  103948:	8b 04 98             	mov    (%eax,%ebx,4),%eax
  10394b:	89 04 24             	mov    %eax,(%esp)
  10394e:	e8 20 26 00 00       	call   105f73 <seek_fs>
  103953:	83 c4 18             	add    $0x18,%esp
  103956:	5b                   	pop    %ebx
  103957:	c3                   	ret    

00103958 <symlink>:
  103958:	83 ec 1c             	sub    $0x1c,%esp
  10395b:	e8 87 18 00 00       	call   1051e7 <getprocess>
  103960:	8b 44 24 24          	mov    0x24(%esp),%eax
  103964:	89 44 24 04          	mov    %eax,0x4(%esp)
  103968:	8b 44 24 20          	mov    0x20(%esp),%eax
  10396c:	89 04 24             	mov    %eax,(%esp)
  10396f:	e8 b4 2b 00 00       	call   106528 <symlink_fs>
  103974:	83 c4 1c             	add    $0x1c,%esp
  103977:	c3                   	ret    

00103978 <hardlink>:
  103978:	83 ec 1c             	sub    $0x1c,%esp
  10397b:	e8 67 18 00 00       	call   1051e7 <getprocess>
  103980:	8b 44 24 24          	mov    0x24(%esp),%eax
  103984:	89 44 24 04          	mov    %eax,0x4(%esp)
  103988:	8b 44 24 20          	mov    0x20(%esp),%eax
  10398c:	89 04 24             	mov    %eax,(%esp)
  10398f:	e8 31 2b 00 00       	call   1064c5 <hardlink_fs>
  103994:	83 c4 1c             	add    $0x1c,%esp
  103997:	c3                   	ret    

00103998 <unlink>:
  103998:	83 ec 1c             	sub    $0x1c,%esp
  10399b:	e8 47 18 00 00       	call   1051e7 <getprocess>
  1039a0:	8b 44 24 20          	mov    0x20(%esp),%eax
  1039a4:	89 04 24             	mov    %eax,(%esp)
  1039a7:	e8 d8 26 00 00       	call   106084 <unlink_fs>
  1039ac:	83 c4 1c             	add    $0x1c,%esp
  1039af:	c3                   	ret    

001039b0 <rm>:
  1039b0:	83 ec 1c             	sub    $0x1c,%esp
  1039b3:	e8 2f 18 00 00       	call   1051e7 <getprocess>
  1039b8:	c7 44 24 08 00 00 00 	movl   $0x0,0x8(%esp)
  1039bf:	00 
  1039c0:	c7 44 24 04 00 00 00 	movl   $0x0,0x4(%esp)
  1039c7:	00 
  1039c8:	8b 44 24 20          	mov    0x20(%esp),%eax
  1039cc:	89 04 24             	mov    %eax,(%esp)
  1039cf:	e8 51 2a 00 00       	call   106425 <open_fs>
  1039d4:	89 04 24             	mov    %eax,(%esp)
  1039d7:	e8 aa 26 00 00       	call   106086 <rm_fs>
  1039dc:	83 c4 1c             	add    $0x1c,%esp
  1039df:	c3                   	ret    

001039e0 <rmdir>:
  1039e0:	83 ec 1c             	sub    $0x1c,%esp
  1039e3:	e8 ff 17 00 00       	call   1051e7 <getprocess>
  1039e8:	c7 44 24 08 00 00 00 	movl   $0x0,0x8(%esp)
  1039ef:	00 
  1039f0:	c7 44 24 04 00 00 00 	movl   $0x0,0x4(%esp)
  1039f7:	00 
  1039f8:	8b 44 24 20          	mov    0x20(%esp),%eax
  1039fc:	89 04 24             	mov    %eax,(%esp)
  1039ff:	e8 21 2a 00 00       	call   106425 <open_fs>
  103a04:	89 04 24             	mov    %eax,(%esp)
  103a07:	e8 9d 26 00 00       	call   1060a9 <rmdir_fs>
  103a0c:	83 c4 1c             	add    $0x1c,%esp
  103a0f:	c3                   	ret    

00103a10 <rfrm>:
  103a10:	83 ec 1c             	sub    $0x1c,%esp
  103a13:	e8 cf 17 00 00       	call   1051e7 <getprocess>
  103a18:	c7 44 24 08 00 00 00 	movl   $0x0,0x8(%esp)
  103a1f:	00 
  103a20:	c7 44 24 04 00 00 00 	movl   $0x0,0x4(%esp)
  103a27:	00 
  103a28:	8b 44 24 20          	mov    0x20(%esp),%eax
  103a2c:	89 04 24             	mov    %eax,(%esp)
  103a2f:	e8 f1 29 00 00       	call   106425 <open_fs>
  103a34:	89 04 24             	mov    %eax,(%esp)
  103a37:	e8 9b 26 00 00       	call   1060d7 <rfrm_fs>
  103a3c:	83 c4 1c             	add    $0x1c,%esp
  103a3f:	c3                   	ret    

00103a40 <chown>:
  103a40:	83 ec 1c             	sub    $0x1c,%esp
  103a43:	e8 9f 17 00 00       	call   1051e7 <getprocess>
  103a48:	c7 44 24 08 00 00 00 	movl   $0x0,0x8(%esp)
  103a4f:	00 
  103a50:	c7 44 24 04 00 00 00 	movl   $0x0,0x4(%esp)
  103a57:	00 
  103a58:	8b 44 24 20          	mov    0x20(%esp),%eax
  103a5c:	89 04 24             	mov    %eax,(%esp)
  103a5f:	e8 c1 29 00 00       	call   106425 <open_fs>
  103a64:	8b 54 24 28          	mov    0x28(%esp),%edx
  103a68:	89 54 24 08          	mov    %edx,0x8(%esp)
  103a6c:	8b 54 24 24          	mov    0x24(%esp),%edx
  103a70:	89 54 24 04          	mov    %edx,0x4(%esp)
  103a74:	89 04 24             	mov    %eax,(%esp)
  103a77:	e8 76 26 00 00       	call   1060f2 <chown_fs>
  103a7c:	83 c4 1c             	add    $0x1c,%esp
  103a7f:	c3                   	ret    

00103a80 <fstat>:
  103a80:	53                   	push   %ebx
  103a81:	83 ec 18             	sub    $0x18,%esp
  103a84:	8b 5c 24 20          	mov    0x20(%esp),%ebx
  103a88:	e8 5a 17 00 00       	call   1051e7 <getprocess>
  103a8d:	3b 58 18             	cmp    0x18(%eax),%ebx
  103a90:	73 18                	jae    103aaa <fstat+0x2a>
  103a92:	8b 54 24 24          	mov    0x24(%esp),%edx
  103a96:	89 54 24 04          	mov    %edx,0x4(%esp)
  103a9a:	8b 40 14             	mov    0x14(%eax),%eax
  103a9d:	8b 04 98             	mov    (%eax,%ebx,4),%eax
  103aa0:	89 04 24             	mov    %eax,(%esp)
  103aa3:	e8 96 26 00 00       	call   10613e <stat_fs>
  103aa8:	eb 00                	jmp    103aaa <fstat+0x2a>
  103aaa:	83 c4 18             	add    $0x18,%esp
  103aad:	5b                   	pop    %ebx
  103aae:	c3                   	ret    

00103aaf <stat>:
  103aaf:	83 ec 1c             	sub    $0x1c,%esp
  103ab2:	e8 30 17 00 00       	call   1051e7 <getprocess>
  103ab7:	c7 44 24 08 00 00 00 	movl   $0x0,0x8(%esp)
  103abe:	00 
  103abf:	c7 44 24 04 00 00 00 	movl   $0x0,0x4(%esp)
  103ac6:	00 
  103ac7:	8b 44 24 20          	mov    0x20(%esp),%eax
  103acb:	89 04 24             	mov    %eax,(%esp)
  103ace:	e8 52 29 00 00       	call   106425 <open_fs>
  103ad3:	8b 54 24 24          	mov    0x24(%esp),%edx
  103ad7:	89 54 24 04          	mov    %edx,0x4(%esp)
  103adb:	89 04 24             	mov    %eax,(%esp)
  103ade:	e8 5b 26 00 00       	call   10613e <stat_fs>
  103ae3:	83 c4 1c             	add    $0x1c,%esp
  103ae6:	c3                   	ret    

00103ae7 <isatty>:
  103ae7:	53                   	push   %ebx
  103ae8:	83 ec 08             	sub    $0x8,%esp
  103aeb:	8b 5c 24 10          	mov    0x10(%esp),%ebx
  103aef:	e8 f3 16 00 00       	call   1051e7 <getprocess>
  103af4:	3b 58 18             	cmp    0x18(%eax),%ebx
  103af7:	73 10                	jae    103b09 <isatty+0x22>
  103af9:	8b 40 14             	mov    0x14(%eax),%eax
  103afc:	8b 04 98             	mov    (%eax,%ebx,4),%eax
  103aff:	8a 40 18             	mov    0x18(%eax),%al
  103b02:	25 ff 00 00 00       	and    $0xff,%eax
  103b07:	eb 00                	jmp    103b09 <isatty+0x22>
  103b09:	83 c4 08             	add    $0x8,%esp
  103b0c:	5b                   	pop    %ebx
  103b0d:	c3                   	ret    
  103b0e:	66 90                	xchg   %ax,%ax

00103b10 <header_t_less_than>:
  103b10:	8b 44 24 08          	mov    0x8(%esp),%eax
  103b14:	8b 54 24 04          	mov    0x4(%esp),%edx
  103b18:	8b 48 08             	mov    0x8(%eax),%ecx
  103b1b:	39 4a 08             	cmp    %ecx,0x8(%edx)
  103b1e:	0f 92 c0             	setb   %al
  103b21:	c3                   	ret    

00103b22 <ksize>:
  103b22:	8b 44 24 04          	mov    0x4(%esp),%eax
  103b26:	8b 40 d8             	mov    -0x28(%eax),%eax
  103b29:	83 e8 14             	sub    $0x14,%eax
  103b2c:	c3                   	ret    

00103b2d <alloc>:
  103b2d:	55                   	push   %ebp
  103b2e:	57                   	push   %edi
  103b2f:	56                   	push   %esi
  103b30:	53                   	push   %ebx
  103b31:	83 ec 3c             	sub    $0x3c,%esp
  103b34:	8b 74 24 58          	mov    0x58(%esp),%esi
  103b38:	8a 44 24 54          	mov    0x54(%esp),%al
  103b3c:	88 44 24 1b          	mov    %al,0x1b(%esp)
  103b40:	8b 7c 24 50          	mov    0x50(%esp),%edi
  103b44:	83 c7 14             	add    $0x14,%edi
  103b47:	83 7e 04 00          	cmpl   $0x0,0x4(%esi)
  103b4b:	74 59                	je     103ba6 <alloc+0x79>
  103b4d:	bb 00 00 00 00       	mov    $0x0,%ebx
  103b52:	89 f5                	mov    %esi,%ebp
  103b54:	89 74 24 04          	mov    %esi,0x4(%esp)
  103b58:	89 1c 24             	mov    %ebx,(%esp)
  103b5b:	e8 f5 36 00 00       	call   107255 <lookup_ordered_array>
  103b60:	80 7c 24 1b 00       	cmpb   $0x0,0x1b(%esp)
  103b65:	74 26                	je     103b8d <alloc+0x60>
  103b67:	ba 00 00 00 00       	mov    $0x0,%edx
  103b6c:	a8 01                	test   $0x1,%al
  103b6e:	74 12                	je     103b82 <alloc+0x55>
  103b70:	8d 50 0c             	lea    0xc(%eax),%edx
  103b73:	81 e2 ff 0f 00 00    	and    $0xfff,%edx
  103b79:	b9 00 10 00 00       	mov    $0x1000,%ecx
  103b7e:	29 d1                	sub    %edx,%ecx
  103b80:	89 ca                	mov    %ecx,%edx
  103b82:	8b 40 08             	mov    0x8(%eax),%eax
  103b85:	29 d0                	sub    %edx,%eax
  103b87:	39 f8                	cmp    %edi,%eax
  103b89:	7c 07                	jl     103b92 <alloc+0x65>
  103b8b:	eb 0b                	jmp    103b98 <alloc+0x6b>
  103b8d:	3b 78 08             	cmp    0x8(%eax),%edi
  103b90:	76 06                	jbe    103b98 <alloc+0x6b>
  103b92:	43                   	inc    %ebx
  103b93:	3b 5e 04             	cmp    0x4(%esi),%ebx
  103b96:	72 ba                	jb     103b52 <alloc+0x25>
  103b98:	3b 5e 04             	cmp    0x4(%esi),%ebx
  103b9b:	74 09                	je     103ba6 <alloc+0x79>
  103b9d:	83 fb ff             	cmp    $0xffffffff,%ebx
  103ba0:	0f 85 41 01 00 00    	jne    103ce7 <alloc+0x1ba>
  103ba6:	8b 46 14             	mov    0x14(%esi),%eax
  103ba9:	89 44 24 2c          	mov    %eax,0x2c(%esp)
  103bad:	2b 46 10             	sub    0x10(%esi),%eax
  103bb0:	89 44 24 28          	mov    %eax,0x28(%esp)
  103bb4:	01 c7                	add    %eax,%edi
  103bb6:	89 7c 24 24          	mov    %edi,0x24(%esp)
  103bba:	f7 c7 ff 0f 00 00    	test   $0xfff,%edi
  103bc0:	74 10                	je     103bd2 <alloc+0xa5>
  103bc2:	81 e7 00 f0 ff ff    	and    $0xfffff000,%edi
  103bc8:	81 c7 00 10 00 00    	add    $0x1000,%edi
  103bce:	89 7c 24 24          	mov    %edi,0x24(%esp)
  103bd2:	8b 54 24 24          	mov    0x24(%esp),%edx
  103bd6:	39 54 24 28          	cmp    %edx,0x28(%esp)
  103bda:	73 37                	jae    103c13 <alloc+0xe6>
  103bdc:	8b 5c 24 28          	mov    0x28(%esp),%ebx
  103be0:	89 d7                	mov    %edx,%edi
  103be2:	e8 c9 ea ff ff       	call   1026b0 <pmm_alloc_page>
  103be7:	c7 44 24 0c 07 00 00 	movl   $0x7,0xc(%esp)
  103bee:	00 
  103bef:	89 44 24 08          	mov    %eax,0x8(%esp)
  103bf3:	89 d8                	mov    %ebx,%eax
  103bf5:	03 46 10             	add    0x10(%esi),%eax
  103bf8:	89 44 24 04          	mov    %eax,0x4(%esp)
  103bfc:	a1 e8 a5 11 00       	mov    0x11a5e8,%eax
  103c01:	89 04 24             	mov    %eax,(%esp)
  103c04:	e8 b0 ed ff ff       	call   1029b9 <map_page>
  103c09:	81 c3 00 10 00 00    	add    $0x1000,%ebx
  103c0f:	39 fb                	cmp    %edi,%ebx
  103c11:	72 cf                	jb     103be2 <alloc+0xb5>
  103c13:	8b 44 24 24          	mov    0x24(%esp),%eax
  103c17:	03 46 10             	add    0x10(%esi),%eax
  103c1a:	89 46 14             	mov    %eax,0x14(%esi)
  103c1d:	83 7e 04 00          	cmpl   $0x0,0x4(%esi)
  103c21:	74 40                	je     103c63 <alloc+0x136>
  103c23:	bf 00 00 00 00       	mov    $0x0,%edi
  103c28:	bd 00 00 00 00       	mov    $0x0,%ebp
  103c2d:	c7 44 24 20 ff ff ff 	movl   $0xffffffff,0x20(%esp)
  103c34:	ff 
  103c35:	bb 00 00 00 00       	mov    $0x0,%ebx
  103c3a:	89 74 24 1c          	mov    %esi,0x1c(%esp)
  103c3e:	89 74 24 04          	mov    %esi,0x4(%esp)
  103c42:	89 3c 24             	mov    %edi,(%esp)
  103c45:	e8 0b 36 00 00       	call   107255 <lookup_ordered_array>
  103c4a:	39 e8                	cmp    %ebp,%eax
  103c4c:	76 06                	jbe    103c54 <alloc+0x127>
  103c4e:	89 c5                	mov    %eax,%ebp
  103c50:	89 7c 24 20          	mov    %edi,0x20(%esp)
  103c54:	43                   	inc    %ebx
  103c55:	89 df                	mov    %ebx,%edi
  103c57:	3b 5e 04             	cmp    0x4(%esi),%ebx
  103c5a:	72 de                	jb     103c3a <alloc+0x10d>
  103c5c:	83 7c 24 20 ff       	cmpl   $0xffffffff,0x20(%esp)
  103c61:	75 34                	jne    103c97 <alloc+0x16a>
  103c63:	8b 4c 24 2c          	mov    0x2c(%esp),%ecx
  103c67:	c7 01 ab 90 38 12    	movl   $0x123890ab,(%ecx)
  103c6d:	8b 7c 24 24          	mov    0x24(%esp),%edi
  103c71:	2b 7c 24 28          	sub    0x28(%esp),%edi
  103c75:	89 79 08             	mov    %edi,0x8(%ecx)
  103c78:	c6 41 04 01          	movb   $0x1,0x4(%ecx)
  103c7c:	8d 44 39 f8          	lea    -0x8(%ecx,%edi,1),%eax
  103c80:	c7 00 ab 90 38 12    	movl   $0x123890ab,(%eax)
  103c86:	89 48 04             	mov    %ecx,0x4(%eax)
  103c89:	89 74 24 04          	mov    %esi,0x4(%esp)
  103c8d:	89 0c 24             	mov    %ecx,(%esp)
  103c90:	e8 42 35 00 00       	call   1071d7 <insert_ordered_array>
  103c95:	eb 31                	jmp    103cc8 <alloc+0x19b>
  103c97:	8b 44 24 1c          	mov    0x1c(%esp),%eax
  103c9b:	89 44 24 04          	mov    %eax,0x4(%esp)
  103c9f:	8b 54 24 20          	mov    0x20(%esp),%edx
  103ca3:	89 14 24             	mov    %edx,(%esp)
  103ca6:	e8 aa 35 00 00       	call   107255 <lookup_ordered_array>
  103cab:	8b 7c 24 24          	mov    0x24(%esp),%edi
  103caf:	2b 7c 24 28          	sub    0x28(%esp),%edi
  103cb3:	89 fa                	mov    %edi,%edx
  103cb5:	03 50 08             	add    0x8(%eax),%edx
  103cb8:	89 50 08             	mov    %edx,0x8(%eax)
  103cbb:	8d 54 10 f8          	lea    -0x8(%eax,%edx,1),%edx
  103cbf:	89 42 04             	mov    %eax,0x4(%edx)
  103cc2:	c7 02 ab 90 38 12    	movl   $0x123890ab,(%edx)
  103cc8:	89 74 24 08          	mov    %esi,0x8(%esp)
  103ccc:	31 c0                	xor    %eax,%eax
  103cce:	8a 44 24 1b          	mov    0x1b(%esp),%al
  103cd2:	89 44 24 04          	mov    %eax,0x4(%esp)
  103cd6:	8b 4c 24 50          	mov    0x50(%esp),%ecx
  103cda:	89 0c 24             	mov    %ecx,(%esp)
  103cdd:	e8 4b fe ff ff       	call   103b2d <alloc>
  103ce2:	e9 ed 00 00 00       	jmp    103dd4 <alloc+0x2a7>
  103ce7:	89 6c 24 04          	mov    %ebp,0x4(%esp)
  103ceb:	89 1c 24             	mov    %ebx,(%esp)
  103cee:	e8 62 35 00 00       	call   107255 <lookup_ordered_array>
  103cf3:	89 44 24 1c          	mov    %eax,0x1c(%esp)
  103cf7:	8b 50 08             	mov    0x8(%eax),%edx
  103cfa:	89 54 24 20          	mov    %edx,0x20(%esp)
  103cfe:	29 fa                	sub    %edi,%edx
  103d00:	83 fa 13             	cmp    $0x13,%edx
  103d03:	77 08                	ja     103d0d <alloc+0x1e0>
  103d05:	01 54 24 50          	add    %edx,0x50(%esp)
  103d09:	8b 7c 24 20          	mov    0x20(%esp),%edi
  103d0d:	80 7c 24 1b 00       	cmpb   $0x0,0x1b(%esp)
  103d12:	74 49                	je     103d5d <alloc+0x230>
  103d14:	89 c2                	mov    %eax,%edx
  103d16:	81 e2 00 f0 ff ff    	and    $0xfffff000,%edx
  103d1c:	74 3f                	je     103d5d <alloc+0x230>
  103d1e:	89 c3                	mov    %eax,%ebx
  103d20:	81 e3 ff 0f 00 00    	and    $0xfff,%ebx
  103d26:	b9 f4 0f 00 00       	mov    $0xff4,%ecx
  103d2b:	29 d9                	sub    %ebx,%ecx
  103d2d:	89 48 08             	mov    %ecx,0x8(%eax)
  103d30:	c7 00 ab 90 38 12    	movl   $0x123890ab,(%eax)
  103d36:	c6 40 04 01          	movb   $0x1,0x4(%eax)
  103d3a:	c7 82 ec 0f 00 00 ab 	movl   $0x123890ab,0xfec(%edx)
  103d41:	90 38 12 
  103d44:	89 82 f0 0f 00 00    	mov    %eax,0xff0(%edx)
  103d4a:	8b 48 08             	mov    0x8(%eax),%ecx
  103d4d:	29 4c 24 20          	sub    %ecx,0x20(%esp)
  103d51:	8d 92 f4 0f 00 00    	lea    0xff4(%edx),%edx
  103d57:	89 54 24 1c          	mov    %edx,0x1c(%esp)
  103d5b:	eb 0c                	jmp    103d69 <alloc+0x23c>
  103d5d:	89 6c 24 04          	mov    %ebp,0x4(%esp)
  103d61:	89 1c 24             	mov    %ebx,(%esp)
  103d64:	e8 fa 34 00 00       	call   107263 <remove_ordered_array>
  103d69:	8b 44 24 1c          	mov    0x1c(%esp),%eax
  103d6d:	c7 00 ab 90 38 12    	movl   $0x123890ab,(%eax)
  103d73:	c6 40 04 00          	movb   $0x0,0x4(%eax)
  103d77:	89 78 08             	mov    %edi,0x8(%eax)
  103d7a:	03 44 24 50          	add    0x50(%esp),%eax
  103d7e:	c7 40 0c ab 90 38 12 	movl   $0x123890ab,0xc(%eax)
  103d85:	8b 54 24 1c          	mov    0x1c(%esp),%edx
  103d89:	89 50 10             	mov    %edx,0x10(%eax)
  103d8c:	39 7c 24 20          	cmp    %edi,0x20(%esp)
  103d90:	74 3b                	je     103dcd <alloc+0x2a0>
  103d92:	8d 50 14             	lea    0x14(%eax),%edx
  103d95:	c7 40 14 ab 90 38 12 	movl   $0x123890ab,0x14(%eax)
  103d9c:	c6 42 04 01          	movb   $0x1,0x4(%edx)
  103da0:	8b 44 24 20          	mov    0x20(%esp),%eax
  103da4:	29 f8                	sub    %edi,%eax
  103da6:	89 42 08             	mov    %eax,0x8(%edx)
  103da9:	8b 44 24 20          	mov    0x20(%esp),%eax
  103dad:	29 f8                	sub    %edi,%eax
  103daf:	8d 44 02 f8          	lea    -0x8(%edx,%eax,1),%eax
  103db3:	3b 46 14             	cmp    0x14(%esi),%eax
  103db6:	73 09                	jae    103dc1 <alloc+0x294>
  103db8:	c7 00 ab 90 38 12    	movl   $0x123890ab,(%eax)
  103dbe:	89 50 04             	mov    %edx,0x4(%eax)
  103dc1:	89 6c 24 04          	mov    %ebp,0x4(%esp)
  103dc5:	89 14 24             	mov    %edx,(%esp)
  103dc8:	e8 0a 34 00 00       	call   1071d7 <insert_ordered_array>
  103dcd:	8b 44 24 1c          	mov    0x1c(%esp),%eax
  103dd1:	83 c0 0c             	add    $0xc,%eax
  103dd4:	83 c4 3c             	add    $0x3c,%esp
  103dd7:	5b                   	pop    %ebx
  103dd8:	5e                   	pop    %esi
  103dd9:	5f                   	pop    %edi
  103dda:	5d                   	pop    %ebp
  103ddb:	c3                   	ret    

00103ddc <kmalloc_int>:
  103ddc:	56                   	push   %esi
  103ddd:	53                   	push   %ebx
  103dde:	83 ec 14             	sub    $0x14,%esp
  103de1:	8b 5c 24 28          	mov    0x28(%esp),%ebx
  103de5:	8a 54 24 2c          	mov    0x2c(%esp),%dl
  103de9:	a1 ec a5 11 00       	mov    0x11a5ec,%eax
  103dee:	85 c0                	test   %eax,%eax
  103df0:	74 51                	je     103e43 <kmalloc_int+0x67>
  103df2:	84 d2                	test   %dl,%dl
  103df4:	75 4d                	jne    103e43 <kmalloc_int+0x67>
  103df6:	89 44 24 08          	mov    %eax,0x8(%esp)
  103dfa:	0f b6 44 24 24       	movzbl 0x24(%esp),%eax
  103dff:	89 44 24 04          	mov    %eax,0x4(%esp)
  103e03:	8b 44 24 20          	mov    0x20(%esp),%eax
  103e07:	89 04 24             	mov    %eax,(%esp)
  103e0a:	e8 1e fd ff ff       	call   103b2d <alloc>
  103e0f:	89 c6                	mov    %eax,%esi
  103e11:	85 db                	test   %ebx,%ebx
  103e13:	74 2a                	je     103e3f <kmalloc_int+0x63>
  103e15:	c7 44 24 0c 00 00 00 	movl   $0x0,0xc(%esp)
  103e1c:	00 
  103e1d:	c7 44 24 08 00 00 00 	movl   $0x0,0x8(%esp)
  103e24:	00 
  103e25:	89 44 24 04          	mov    %eax,0x4(%esp)
  103e29:	a1 e8 a5 11 00       	mov    0x11a5e8,%eax
  103e2e:	89 04 24             	mov    %eax,(%esp)
  103e31:	e8 f6 ea ff ff       	call   10292c <get_page>
  103e36:	89 f0                	mov    %esi,%eax
  103e38:	25 ff 0f 00 00       	and    $0xfff,%eax
  103e3d:	89 03                	mov    %eax,(%ebx)
  103e3f:	89 f0                	mov    %esi,%eax
  103e41:	eb 3e                	jmp    103e81 <kmalloc_int+0xa5>
  103e43:	83 7c 24 24 01       	cmpl   $0x1,0x24(%esp)
  103e48:	75 1b                	jne    103e65 <kmalloc_int+0x89>
  103e4a:	a1 84 a0 10 00       	mov    0x10a084,%eax
  103e4f:	a9 ff 0f 00 00       	test   $0xfff,%eax
  103e54:	74 0a                	je     103e60 <kmalloc_int+0x84>
  103e56:	25 00 f0 ff ff       	and    $0xfffff000,%eax
  103e5b:	05 00 10 00 00       	add    $0x1000,%eax
  103e60:	a3 84 a0 10 00       	mov    %eax,0x10a084
  103e65:	85 db                	test   %ebx,%ebx
  103e67:	74 07                	je     103e70 <kmalloc_int+0x94>
  103e69:	a1 84 a0 10 00       	mov    0x10a084,%eax
  103e6e:	89 03                	mov    %eax,(%ebx)
  103e70:	a1 84 a0 10 00       	mov    0x10a084,%eax
  103e75:	8b 54 24 20          	mov    0x20(%esp),%edx
  103e79:	01 c2                	add    %eax,%edx
  103e7b:	89 15 84 a0 10 00    	mov    %edx,0x10a084
  103e81:	83 c4 14             	add    $0x14,%esp
  103e84:	5b                   	pop    %ebx
  103e85:	5e                   	pop    %esi
  103e86:	c3                   	ret    

00103e87 <kmalloc>:
  103e87:	83 ec 1c             	sub    $0x1c,%esp
  103e8a:	c7 44 24 0c 00 00 00 	movl   $0x0,0xc(%esp)
  103e91:	00 
  103e92:	c7 44 24 08 00 00 00 	movl   $0x0,0x8(%esp)
  103e99:	00 
  103e9a:	c7 44 24 04 00 00 00 	movl   $0x0,0x4(%esp)
  103ea1:	00 
  103ea2:	8b 44 24 20          	mov    0x20(%esp),%eax
  103ea6:	89 04 24             	mov    %eax,(%esp)
  103ea9:	e8 2e ff ff ff       	call   103ddc <kmalloc_int>
  103eae:	83 c4 1c             	add    $0x1c,%esp
  103eb1:	c3                   	ret    

00103eb2 <create_heap>:
  103eb2:	57                   	push   %edi
  103eb3:	56                   	push   %esi
  103eb4:	53                   	push   %ebx
  103eb5:	83 ec 30             	sub    $0x30,%esp
  103eb8:	8b 74 24 40          	mov    0x40(%esp),%esi
  103ebc:	8b 7c 24 44          	mov    0x44(%esp),%edi
  103ec0:	8a 44 24 4c          	mov    0x4c(%esp),%al
  103ec4:	88 44 24 1e          	mov    %al,0x1e(%esp)
  103ec8:	8a 44 24 50          	mov    0x50(%esp),%al
  103ecc:	88 44 24 1f          	mov    %al,0x1f(%esp)
  103ed0:	c7 04 24 20 00 00 00 	movl   $0x20,(%esp)
  103ed7:	e8 ab ff ff ff       	call   103e87 <kmalloc>
  103edc:	89 c3                	mov    %eax,%ebx
  103ede:	8d 44 24 20          	lea    0x20(%esp),%eax
  103ee2:	c7 44 24 0c 10 3b 10 	movl   $0x103b10,0xc(%esp)
  103ee9:	00 
  103eea:	c7 44 24 08 00 00 02 	movl   $0x20000,0x8(%esp)
  103ef1:	00 
  103ef2:	89 74 24 04          	mov    %esi,0x4(%esp)
  103ef6:	89 04 24             	mov    %eax,(%esp)
  103ef9:	e8 79 32 00 00       	call   107177 <place_ordered_array>
  103efe:	83 ec 04             	sub    $0x4,%esp
  103f01:	8b 44 24 20          	mov    0x20(%esp),%eax
  103f05:	89 03                	mov    %eax,(%ebx)
  103f07:	8b 44 24 24          	mov    0x24(%esp),%eax
  103f0b:	89 43 04             	mov    %eax,0x4(%ebx)
  103f0e:	8b 44 24 28          	mov    0x28(%esp),%eax
  103f12:	89 43 08             	mov    %eax,0x8(%ebx)
  103f15:	8b 44 24 2c          	mov    0x2c(%esp),%eax
  103f19:	89 43 0c             	mov    %eax,0xc(%ebx)
  103f1c:	81 c6 00 00 08 00    	add    $0x80000,%esi
  103f22:	f7 c6 ff 0f 00 00    	test   $0xfff,%esi
  103f28:	74 0c                	je     103f36 <create_heap+0x84>
  103f2a:	81 e6 00 f0 ff ff    	and    $0xfffff000,%esi
  103f30:	81 c6 00 10 00 00    	add    $0x1000,%esi
  103f36:	89 73 10             	mov    %esi,0x10(%ebx)
  103f39:	89 7b 14             	mov    %edi,0x14(%ebx)
  103f3c:	8b 44 24 48          	mov    0x48(%esp),%eax
  103f40:	89 43 18             	mov    %eax,0x18(%ebx)
  103f43:	8a 44 24 1e          	mov    0x1e(%esp),%al
  103f47:	88 43 1c             	mov    %al,0x1c(%ebx)
  103f4a:	8a 44 24 1f          	mov    0x1f(%esp),%al
  103f4e:	88 43 1d             	mov    %al,0x1d(%ebx)
  103f51:	29 f7                	sub    %esi,%edi
  103f53:	89 7e 08             	mov    %edi,0x8(%esi)
  103f56:	c7 06 ab 90 38 12    	movl   $0x123890ab,(%esi)
  103f5c:	c6 46 04 01          	movb   $0x1,0x4(%esi)
  103f60:	89 5c 24 04          	mov    %ebx,0x4(%esp)
  103f64:	89 34 24             	mov    %esi,(%esp)
  103f67:	e8 6b 32 00 00       	call   1071d7 <insert_ordered_array>
  103f6c:	89 d8                	mov    %ebx,%eax
  103f6e:	83 c4 30             	add    $0x30,%esp
  103f71:	5b                   	pop    %ebx
  103f72:	5e                   	pop    %esi
  103f73:	5f                   	pop    %edi
  103f74:	c3                   	ret    

00103f75 <kmalloc_ap>:
  103f75:	83 ec 1c             	sub    $0x1c,%esp
  103f78:	c7 44 24 0c 00 00 00 	movl   $0x0,0xc(%esp)
  103f7f:	00 
  103f80:	8b 44 24 24          	mov    0x24(%esp),%eax
  103f84:	89 44 24 08          	mov    %eax,0x8(%esp)
  103f88:	c7 44 24 04 01 00 00 	movl   $0x1,0x4(%esp)
  103f8f:	00 
  103f90:	8b 44 24 20          	mov    0x20(%esp),%eax
  103f94:	89 04 24             	mov    %eax,(%esp)
  103f97:	e8 40 fe ff ff       	call   103ddc <kmalloc_int>
  103f9c:	83 c4 1c             	add    $0x1c,%esp
  103f9f:	c3                   	ret    

00103fa0 <kmalloc_p>:
  103fa0:	83 ec 1c             	sub    $0x1c,%esp
  103fa3:	c7 44 24 0c 00 00 00 	movl   $0x0,0xc(%esp)
  103faa:	00 
  103fab:	8b 44 24 24          	mov    0x24(%esp),%eax
  103faf:	89 44 24 08          	mov    %eax,0x8(%esp)
  103fb3:	c7 44 24 04 00 00 00 	movl   $0x0,0x4(%esp)
  103fba:	00 
  103fbb:	8b 44 24 20          	mov    0x20(%esp),%eax
  103fbf:	89 04 24             	mov    %eax,(%esp)
  103fc2:	e8 15 fe ff ff       	call   103ddc <kmalloc_int>
  103fc7:	83 c4 1c             	add    $0x1c,%esp
  103fca:	c3                   	ret    

00103fcb <kmalloc_a>:
  103fcb:	83 ec 1c             	sub    $0x1c,%esp
  103fce:	c7 44 24 0c 00 00 00 	movl   $0x0,0xc(%esp)
  103fd5:	00 
  103fd6:	c7 44 24 08 00 00 00 	movl   $0x0,0x8(%esp)
  103fdd:	00 
  103fde:	c7 44 24 04 01 00 00 	movl   $0x1,0x4(%esp)
  103fe5:	00 
  103fe6:	8b 44 24 20          	mov    0x20(%esp),%eax
  103fea:	89 04 24             	mov    %eax,(%esp)
  103fed:	e8 ea fd ff ff       	call   103ddc <kmalloc_int>
  103ff2:	83 c4 1c             	add    $0x1c,%esp
  103ff5:	c3                   	ret    

00103ff6 <placement_kmalloc>:
  103ff6:	83 ec 1c             	sub    $0x1c,%esp
  103ff9:	c7 44 24 0c 01 00 00 	movl   $0x1,0xc(%esp)
  104000:	00 
  104001:	c7 44 24 08 00 00 00 	movl   $0x0,0x8(%esp)
  104008:	00 
  104009:	c7 44 24 04 00 00 00 	movl   $0x0,0x4(%esp)
  104010:	00 
  104011:	8b 44 24 20          	mov    0x20(%esp),%eax
  104015:	89 04 24             	mov    %eax,(%esp)
  104018:	e8 bf fd ff ff       	call   103ddc <kmalloc_int>
  10401d:	83 c4 1c             	add    $0x1c,%esp
  104020:	c3                   	ret    

00104021 <placement_kmalloc_ap>:
  104021:	83 ec 1c             	sub    $0x1c,%esp
  104024:	c7 44 24 0c 01 00 00 	movl   $0x1,0xc(%esp)
  10402b:	00 
  10402c:	8b 44 24 24          	mov    0x24(%esp),%eax
  104030:	89 44 24 08          	mov    %eax,0x8(%esp)
  104034:	c7 44 24 04 01 00 00 	movl   $0x1,0x4(%esp)
  10403b:	00 
  10403c:	8b 44 24 20          	mov    0x20(%esp),%eax
  104040:	89 04 24             	mov    %eax,(%esp)
  104043:	e8 94 fd ff ff       	call   103ddc <kmalloc_int>
  104048:	83 c4 1c             	add    $0x1c,%esp
  10404b:	c3                   	ret    

0010404c <placement_kmalloc_p>:
  10404c:	83 ec 1c             	sub    $0x1c,%esp
  10404f:	c7 44 24 0c 01 00 00 	movl   $0x1,0xc(%esp)
  104056:	00 
  104057:	8b 44 24 24          	mov    0x24(%esp),%eax
  10405b:	89 44 24 08          	mov    %eax,0x8(%esp)
  10405f:	c7 44 24 04 00 00 00 	movl   $0x0,0x4(%esp)
  104066:	00 
  104067:	8b 44 24 20          	mov    0x20(%esp),%eax
  10406b:	89 04 24             	mov    %eax,(%esp)
  10406e:	e8 69 fd ff ff       	call   103ddc <kmalloc_int>
  104073:	83 c4 1c             	add    $0x1c,%esp
  104076:	c3                   	ret    

00104077 <placement_kmalloc_a>:
  104077:	83 ec 1c             	sub    $0x1c,%esp
  10407a:	c7 44 24 0c 01 00 00 	movl   $0x1,0xc(%esp)
  104081:	00 
  104082:	c7 44 24 08 00 00 00 	movl   $0x0,0x8(%esp)
  104089:	00 
  10408a:	c7 44 24 04 01 00 00 	movl   $0x1,0x4(%esp)
  104091:	00 
  104092:	8b 44 24 20          	mov    0x20(%esp),%eax
  104096:	89 04 24             	mov    %eax,(%esp)
  104099:	e8 3e fd ff ff       	call   103ddc <kmalloc_int>
  10409e:	83 c4 1c             	add    $0x1c,%esp
  1040a1:	c3                   	ret    

001040a2 <free>:
  1040a2:	55                   	push   %ebp
  1040a3:	57                   	push   %edi
  1040a4:	56                   	push   %esi
  1040a5:	53                   	push   %ebx
  1040a6:	83 ec 2c             	sub    $0x2c,%esp
  1040a9:	8b 44 24 40          	mov    0x40(%esp),%eax
  1040ad:	8b 5c 24 44          	mov    0x44(%esp),%ebx
  1040b1:	85 c0                	test   %eax,%eax
  1040b3:	0f 84 74 01 00 00    	je     10422d <free+0x18b>
  1040b9:	8d 70 f4             	lea    -0xc(%eax),%esi
  1040bc:	89 74 24 14          	mov    %esi,0x14(%esp)
  1040c0:	8b 48 fc             	mov    -0x4(%eax),%ecx
  1040c3:	8d 14 0e             	lea    (%esi,%ecx,1),%edx
  1040c6:	8d 6a f8             	lea    -0x8(%edx),%ebp
  1040c9:	c6 40 f8 01          	movb   $0x1,-0x8(%eax)
  1040cd:	c6 44 24 13 01       	movb   $0x1,0x13(%esp)
  1040d2:	81 78 ec ab 90 38 12 	cmpl   $0x123890ab,-0x14(%eax)
  1040d9:	75 18                	jne    1040f3 <free+0x51>
  1040db:	8b 40 f0             	mov    -0x10(%eax),%eax
  1040de:	80 78 04 01          	cmpb   $0x1,0x4(%eax)
  1040e2:	75 0f                	jne    1040f3 <free+0x51>
  1040e4:	89 45 04             	mov    %eax,0x4(%ebp)
  1040e7:	01 48 08             	add    %ecx,0x8(%eax)
  1040ea:	89 44 24 14          	mov    %eax,0x14(%esp)
  1040ee:	c6 44 24 13 00       	movb   $0x0,0x13(%esp)
  1040f3:	89 d7                	mov    %edx,%edi
  1040f5:	81 3a ab 90 38 12    	cmpl   $0x123890ab,(%edx)
  1040fb:	75 46                	jne    104143 <free+0xa1>
  1040fd:	80 7a 04 00          	cmpb   $0x0,0x4(%edx)
  104101:	74 40                	je     104143 <free+0xa1>
  104103:	8b 42 08             	mov    0x8(%edx),%eax
  104106:	8b 4c 24 14          	mov    0x14(%esp),%ecx
  10410a:	01 41 08             	add    %eax,0x8(%ecx)
  10410d:	8b 42 08             	mov    0x8(%edx),%eax
  104110:	8d 6c 02 f8          	lea    -0x8(%edx,%eax,1),%ebp
  104114:	be 00 00 00 00       	mov    $0x0,%esi
  104119:	83 7b 04 00          	cmpl   $0x0,0x4(%ebx)
  10411d:	75 08                	jne    104127 <free+0x85>
  10411f:	eb 16                	jmp    104137 <free+0x95>
  104121:	46                   	inc    %esi
  104122:	39 73 04             	cmp    %esi,0x4(%ebx)
  104125:	76 10                	jbe    104137 <free+0x95>
  104127:	89 5c 24 04          	mov    %ebx,0x4(%esp)
  10412b:	89 34 24             	mov    %esi,(%esp)
  10412e:	e8 22 31 00 00       	call   107255 <lookup_ordered_array>
  104133:	39 f8                	cmp    %edi,%eax
  104135:	75 ea                	jne    104121 <free+0x7f>
  104137:	89 5c 24 04          	mov    %ebx,0x4(%esp)
  10413b:	89 34 24             	mov    %esi,(%esp)
  10413e:	e8 20 31 00 00       	call   107263 <remove_ordered_array>
  104143:	83 c5 08             	add    $0x8,%ebp
  104146:	3b 6b 14             	cmp    0x14(%ebx),%ebp
  104149:	0f 85 c7 00 00 00    	jne    104216 <free+0x174>
  10414f:	8b 43 10             	mov    0x10(%ebx),%eax
  104152:	29 c5                	sub    %eax,%ebp
  104154:	89 6c 24 18          	mov    %ebp,0x18(%esp)
  104158:	8b 54 24 14          	mov    0x14(%esp),%edx
  10415c:	89 54 24 1c          	mov    %edx,0x1c(%esp)
  104160:	89 d5                	mov    %edx,%ebp
  104162:	29 c5                	sub    %eax,%ebp
  104164:	f7 c5 ff 0f 00 00    	test   $0xfff,%ebp
  10416a:	74 0c                	je     104178 <free+0xd6>
  10416c:	81 e5 00 f0 ff ff    	and    $0xfffff000,%ebp
  104172:	81 c5 00 10 00 00    	add    $0x1000,%ebp
  104178:	81 fd ff ff 06 00    	cmp    $0x6ffff,%ebp
  10417e:	77 05                	ja     104185 <free+0xe3>
  104180:	bd 00 00 07 00       	mov    $0x70000,%ebp
  104185:	39 6c 24 18          	cmp    %ebp,0x18(%esp)
  104189:	76 24                	jbe    1041af <free+0x10d>
  10418b:	8b 74 24 18          	mov    0x18(%esp),%esi
  10418f:	89 f0                	mov    %esi,%eax
  104191:	03 43 10             	add    0x10(%ebx),%eax
  104194:	89 44 24 04          	mov    %eax,0x4(%esp)
  104198:	a1 e8 a5 11 00       	mov    0x11a5e8,%eax
  10419d:	89 04 24             	mov    %eax,(%esp)
  1041a0:	e8 53 e8 ff ff       	call   1029f8 <unmap_page>
  1041a5:	81 ee 00 10 00 00    	sub    $0x1000,%esi
  1041ab:	39 ee                	cmp    %ebp,%esi
  1041ad:	77 e0                	ja     10418f <free+0xed>
  1041af:	89 e8                	mov    %ebp,%eax
  1041b1:	03 43 10             	add    0x10(%ebx),%eax
  1041b4:	89 43 14             	mov    %eax,0x14(%ebx)
  1041b7:	2b 6c 24 18          	sub    0x18(%esp),%ebp
  1041bb:	8b 4c 24 14          	mov    0x14(%esp),%ecx
  1041bf:	03 69 08             	add    0x8(%ecx),%ebp
  1041c2:	75 0d                	jne    1041d1 <free+0x12f>
  1041c4:	be 00 00 00 00       	mov    $0x0,%esi
  1041c9:	83 7b 04 00          	cmpl   $0x0,0x4(%ebx)
  1041cd:	75 26                	jne    1041f5 <free+0x153>
  1041cf:	eb 45                	jmp    104216 <free+0x174>
  1041d1:	8b 44 24 14          	mov    0x14(%esp),%eax
  1041d5:	89 68 08             	mov    %ebp,0x8(%eax)
  1041d8:	8b 54 24 1c          	mov    0x1c(%esp),%edx
  1041dc:	8d 44 2a f8          	lea    -0x8(%edx,%ebp,1),%eax
  1041e0:	c7 00 ab 90 38 12    	movl   $0x123890ab,(%eax)
  1041e6:	8b 4c 24 14          	mov    0x14(%esp),%ecx
  1041ea:	89 48 04             	mov    %ecx,0x4(%eax)
  1041ed:	eb 27                	jmp    104216 <free+0x174>
  1041ef:	46                   	inc    %esi
  1041f0:	39 73 04             	cmp    %esi,0x4(%ebx)
  1041f3:	76 21                	jbe    104216 <free+0x174>
  1041f5:	89 5c 24 04          	mov    %ebx,0x4(%esp)
  1041f9:	89 34 24             	mov    %esi,(%esp)
  1041fc:	e8 54 30 00 00       	call   107255 <lookup_ordered_array>
  104201:	39 f8                	cmp    %edi,%eax
  104203:	75 ea                	jne    1041ef <free+0x14d>
  104205:	39 73 04             	cmp    %esi,0x4(%ebx)
  104208:	76 0c                	jbe    104216 <free+0x174>
  10420a:	89 5c 24 04          	mov    %ebx,0x4(%esp)
  10420e:	89 34 24             	mov    %esi,(%esp)
  104211:	e8 4d 30 00 00       	call   107263 <remove_ordered_array>
  104216:	80 7c 24 13 01       	cmpb   $0x1,0x13(%esp)
  10421b:	75 10                	jne    10422d <free+0x18b>
  10421d:	89 5c 24 04          	mov    %ebx,0x4(%esp)
  104221:	8b 44 24 14          	mov    0x14(%esp),%eax
  104225:	89 04 24             	mov    %eax,(%esp)
  104228:	e8 aa 2f 00 00       	call   1071d7 <insert_ordered_array>
  10422d:	83 c4 2c             	add    $0x2c,%esp
  104230:	5b                   	pop    %ebx
  104231:	5e                   	pop    %esi
  104232:	5f                   	pop    %edi
  104233:	5d                   	pop    %ebp
  104234:	c3                   	ret    

00104235 <kfree>:
  104235:	a1 ec a5 11 00       	mov    0x11a5ec,%eax
  10423a:	85 c0                	test   %eax,%eax
  10423c:	74 16                	je     104254 <kfree+0x1f>
  10423e:	83 ec 1c             	sub    $0x1c,%esp
  104241:	89 44 24 04          	mov    %eax,0x4(%esp)
  104245:	8b 44 24 20          	mov    0x20(%esp),%eax
  104249:	89 04 24             	mov    %eax,(%esp)
  10424c:	e8 51 fe ff ff       	call   1040a2 <free>
  104251:	83 c4 1c             	add    $0x1c,%esp
  104254:	c3                   	ret    

00104255 <krealloc_int>:
  104255:	55                   	push   %ebp
  104256:	57                   	push   %edi
  104257:	56                   	push   %esi
  104258:	53                   	push   %ebx
  104259:	83 ec 1c             	sub    $0x1c,%esp
  10425c:	8b 5c 24 30          	mov    0x30(%esp),%ebx
  104260:	8b 7c 24 34          	mov    0x34(%esp),%edi
  104264:	8b 6c 24 3c          	mov    0x3c(%esp),%ebp
  104268:	a1 ec a5 11 00       	mov    0x11a5ec,%eax
  10426d:	85 c0                	test   %eax,%eax
  10426f:	0f 84 9a 00 00 00    	je     10430f <krealloc_int+0xba>
  104275:	89 44 24 08          	mov    %eax,0x8(%esp)
  104279:	0f b6 44 24 38       	movzbl 0x38(%esp),%eax
  10427e:	89 44 24 04          	mov    %eax,0x4(%esp)
  104282:	89 3c 24             	mov    %edi,(%esp)
  104285:	e8 a3 f8 ff ff       	call   103b2d <alloc>
  10428a:	89 c6                	mov    %eax,%esi
  10428c:	85 ed                	test   %ebp,%ebp
  10428e:	74 2b                	je     1042bb <krealloc_int+0x66>
  104290:	c7 44 24 0c 00 00 00 	movl   $0x0,0xc(%esp)
  104297:	00 
  104298:	c7 44 24 08 00 00 00 	movl   $0x0,0x8(%esp)
  10429f:	00 
  1042a0:	89 44 24 04          	mov    %eax,0x4(%esp)
  1042a4:	a1 e8 a5 11 00       	mov    0x11a5e8,%eax
  1042a9:	89 04 24             	mov    %eax,(%esp)
  1042ac:	e8 7b e6 ff ff       	call   10292c <get_page>
  1042b1:	89 f0                	mov    %esi,%eax
  1042b3:	25 ff 0f 00 00       	and    $0xfff,%eax
  1042b8:	89 45 00             	mov    %eax,0x0(%ebp)
  1042bb:	85 db                	test   %ebx,%ebx
  1042bd:	74 4c                	je     10430b <krealloc_int+0xb6>
  1042bf:	89 1c 24             	mov    %ebx,(%esp)
  1042c2:	e8 5b f8 ff ff       	call   103b22 <ksize>
  1042c7:	39 c7                	cmp    %eax,%edi
  1042c9:	76 12                	jbe    1042dd <krealloc_int+0x88>
  1042cb:	89 44 24 08          	mov    %eax,0x8(%esp)
  1042cf:	89 5c 24 04          	mov    %ebx,0x4(%esp)
  1042d3:	89 34 24             	mov    %esi,(%esp)
  1042d6:	e8 bd 2f 00 00       	call   107298 <memcpy>
  1042db:	eb 26                	jmp    104303 <krealloc_int+0xae>
  1042dd:	39 f8                	cmp    %edi,%eax
  1042df:	75 12                	jne    1042f3 <krealloc_int+0x9e>
  1042e1:	89 44 24 08          	mov    %eax,0x8(%esp)
  1042e5:	89 5c 24 04          	mov    %ebx,0x4(%esp)
  1042e9:	89 34 24             	mov    %esi,(%esp)
  1042ec:	e8 a7 2f 00 00       	call   107298 <memcpy>
  1042f1:	eb 10                	jmp    104303 <krealloc_int+0xae>
  1042f3:	89 7c 24 08          	mov    %edi,0x8(%esp)
  1042f7:	89 5c 24 04          	mov    %ebx,0x4(%esp)
  1042fb:	89 34 24             	mov    %esi,(%esp)
  1042fe:	e8 95 2f 00 00       	call   107298 <memcpy>
  104303:	89 1c 24             	mov    %ebx,(%esp)
  104306:	e8 2a ff ff ff       	call   104235 <kfree>
  10430b:	89 f0                	mov    %esi,%eax
  10430d:	eb 00                	jmp    10430f <krealloc_int+0xba>
  10430f:	83 c4 1c             	add    $0x1c,%esp
  104312:	5b                   	pop    %ebx
  104313:	5e                   	pop    %esi
  104314:	5f                   	pop    %edi
  104315:	5d                   	pop    %ebp
  104316:	c3                   	ret    

00104317 <krealloc>:
  104317:	83 ec 1c             	sub    $0x1c,%esp
  10431a:	c7 44 24 0c 00 00 00 	movl   $0x0,0xc(%esp)
  104321:	00 
  104322:	c7 44 24 08 00 00 00 	movl   $0x0,0x8(%esp)
  104329:	00 
  10432a:	8b 44 24 24          	mov    0x24(%esp),%eax
  10432e:	89 44 24 04          	mov    %eax,0x4(%esp)
  104332:	8b 44 24 20          	mov    0x20(%esp),%eax
  104336:	89 04 24             	mov    %eax,(%esp)
  104339:	e8 17 ff ff ff       	call   104255 <krealloc_int>
  10433e:	83 c4 1c             	add    $0x1c,%esp
  104341:	c3                   	ret    

00104342 <krealloc_ap>:
  104342:	83 ec 1c             	sub    $0x1c,%esp
  104345:	8b 44 24 28          	mov    0x28(%esp),%eax
  104349:	89 44 24 0c          	mov    %eax,0xc(%esp)
  10434d:	c7 44 24 08 01 00 00 	movl   $0x1,0x8(%esp)
  104354:	00 
  104355:	8b 44 24 24          	mov    0x24(%esp),%eax
  104359:	89 44 24 04          	mov    %eax,0x4(%esp)
  10435d:	8b 44 24 20          	mov    0x20(%esp),%eax
  104361:	89 04 24             	mov    %eax,(%esp)
  104364:	e8 ec fe ff ff       	call   104255 <krealloc_int>
  104369:	83 c4 1c             	add    $0x1c,%esp
  10436c:	c3                   	ret    

0010436d <krealloc_p>:
  10436d:	83 ec 1c             	sub    $0x1c,%esp
  104370:	8b 44 24 28          	mov    0x28(%esp),%eax
  104374:	89 44 24 0c          	mov    %eax,0xc(%esp)
  104378:	c7 44 24 08 00 00 00 	movl   $0x0,0x8(%esp)
  10437f:	00 
  104380:	8b 44 24 24          	mov    0x24(%esp),%eax
  104384:	89 44 24 04          	mov    %eax,0x4(%esp)
  104388:	8b 44 24 20          	mov    0x20(%esp),%eax
  10438c:	89 04 24             	mov    %eax,(%esp)
  10438f:	e8 c1 fe ff ff       	call   104255 <krealloc_int>
  104394:	83 c4 1c             	add    $0x1c,%esp
  104397:	c3                   	ret    

00104398 <krealloc_a>:
  104398:	83 ec 1c             	sub    $0x1c,%esp
  10439b:	c7 44 24 0c 00 00 00 	movl   $0x0,0xc(%esp)
  1043a2:	00 
  1043a3:	c7 44 24 08 01 00 00 	movl   $0x1,0x8(%esp)
  1043aa:	00 
  1043ab:	8b 44 24 24          	mov    0x24(%esp),%eax
  1043af:	89 44 24 04          	mov    %eax,0x4(%esp)
  1043b3:	8b 44 24 20          	mov    0x20(%esp),%eax
  1043b7:	89 04 24             	mov    %eax,(%esp)
  1043ba:	e8 96 fe ff ff       	call   104255 <krealloc_int>
  1043bf:	83 c4 1c             	add    $0x1c,%esp
  1043c2:	c3                   	ret    
  1043c3:	90                   	nop

001043c4 <init_initrd>:
  1043c4:	8b 44 24 04          	mov    0x4(%esp),%eax
  1043c8:	a3 9c b3 11 00       	mov    %eax,0x11b39c
  1043cd:	c3                   	ret    

001043ce <get_initrd_entry>:
  1043ce:	8b 44 24 04          	mov    0x4(%esp),%eax
  1043d2:	8d 04 40             	lea    (%eax,%eax,2),%eax
  1043d5:	8d 44 00 02          	lea    0x2(%eax,%eax,1),%eax
  1043d9:	03 05 9c b3 11 00    	add    0x11b39c,%eax
  1043df:	c3                   	ret    

001043e0 <find_initrd_entry>:
  1043e0:	56                   	push   %esi
  1043e1:	53                   	push   %ebx
  1043e2:	8b 4c 24 0c          	mov    0xc(%esp),%ecx
  1043e6:	8b 74 24 10          	mov    0x10(%esp),%esi
  1043ea:	8b 15 9c b3 11 00    	mov    0x11b39c,%edx
  1043f0:	8d 42 02             	lea    0x2(%edx),%eax
  1043f3:	66 8b 1a             	mov    (%edx),%bx
  1043f6:	66 85 db             	test   %bx,%bx
  1043f9:	74 2c                	je     104427 <find_initrd_entry+0x47>
  1043fb:	81 e3 ff ff 00 00    	and    $0xffff,%ebx
  104401:	8d 1c 5b             	lea    (%ebx,%ebx,2),%ebx
  104404:	8d 5c 5a 02          	lea    0x2(%edx,%ebx,2),%ebx
  104408:	31 d2                	xor    %edx,%edx
  10440a:	8a 10                	mov    (%eax),%dl
  10440c:	39 ca                	cmp    %ecx,%edx
  10440e:	75 09                	jne    104419 <find_initrd_entry+0x39>
  104410:	31 d2                	xor    %edx,%edx
  104412:	8a 50 01             	mov    0x1(%eax),%dl
  104415:	39 f2                	cmp    %esi,%edx
  104417:	74 13                	je     10442c <find_initrd_entry+0x4c>
  104419:	83 c0 06             	add    $0x6,%eax
  10441c:	39 d8                	cmp    %ebx,%eax
  10441e:	75 e8                	jne    104408 <find_initrd_entry+0x28>
  104420:	b8 00 00 00 00       	mov    $0x0,%eax
  104425:	eb 05                	jmp    10442c <find_initrd_entry+0x4c>
  104427:	b8 00 00 00 00       	mov    $0x0,%eax
  10442c:	5b                   	pop    %ebx
  10442d:	5e                   	pop    %esi
  10442e:	c3                   	ret    

0010442f <get_initrd_entry_number>:
  10442f:	8b 54 24 04          	mov    0x4(%esp),%edx
  104433:	2b 15 9c b3 11 00    	sub    0x11b39c,%edx
  104439:	83 ea 02             	sub    $0x2,%edx
  10443c:	b9 ab aa aa aa       	mov    $0xaaaaaaab,%ecx
  104441:	89 d0                	mov    %edx,%eax
  104443:	f7 e1                	mul    %ecx
  104445:	89 d0                	mov    %edx,%eax
  104447:	c1 e8 02             	shr    $0x2,%eax
  10444a:	c3                   	ret    

0010444b <get_initrd_driver>:
  10444b:	57                   	push   %edi
  10444c:	56                   	push   %esi
  10444d:	53                   	push   %ebx
  10444e:	8b 4c 24 10          	mov    0x10(%esp),%ecx
  104452:	a1 9c b3 11 00       	mov    0x11b39c,%eax
  104457:	8d 70 02             	lea    0x2(%eax),%esi
  10445a:	66 8b 10             	mov    (%eax),%dx
  10445d:	66 85 d2             	test   %dx,%dx
  104460:	74 28                	je     10448a <get_initrd_driver+0x3f>
  104462:	81 e2 ff ff 00 00    	and    $0xffff,%edx
  104468:	8d 3c 52             	lea    (%edx,%edx,2),%edi
  10446b:	01 ff                	add    %edi,%edi
  10446d:	8d 5c 38 02          	lea    0x2(%eax,%edi,1),%ebx
  104471:	89 f2                	mov    %esi,%edx
  104473:	b8 00 00 00 00       	mov    $0x0,%eax
  104478:	39 d1                	cmp    %edx,%ecx
  10447a:	76 03                	jbe    10447f <get_initrd_driver+0x34>
  10447c:	03 42 02             	add    0x2(%edx),%eax
  10447f:	83 c2 06             	add    $0x6,%edx
  104482:	39 da                	cmp    %ebx,%edx
  104484:	75 f2                	jne    104478 <get_initrd_driver+0x2d>
  104486:	01 fe                	add    %edi,%esi
  104488:	eb 05                	jmp    10448f <get_initrd_driver+0x44>
  10448a:	b8 00 00 00 00       	mov    $0x0,%eax
  10448f:	01 f0                	add    %esi,%eax
  104491:	5b                   	pop    %ebx
  104492:	5e                   	pop    %esi
  104493:	5f                   	pop    %edi
  104494:	c3                   	ret    

00104495 <initrd_read>:
  104495:	56                   	push   %esi
  104496:	53                   	push   %ebx
  104497:	83 ec 14             	sub    $0x14,%esp
  10449a:	8b 44 24 20          	mov    0x20(%esp),%eax
  10449e:	8b 74 24 28          	mov    0x28(%esp),%esi
  1044a2:	31 d2                	xor    %edx,%edx
  1044a4:	8a 50 2d             	mov    0x2d(%eax),%dl
  1044a7:	89 54 24 04          	mov    %edx,0x4(%esp)
  1044ab:	8a 40 2c             	mov    0x2c(%eax),%al
  1044ae:	25 ff 00 00 00       	and    $0xff,%eax
  1044b3:	89 04 24             	mov    %eax,(%esp)
  1044b6:	e8 25 ff ff ff       	call   1043e0 <find_initrd_entry>
  1044bb:	89 c3                	mov    %eax,%ebx
  1044bd:	89 04 24             	mov    %eax,(%esp)
  1044c0:	e8 86 ff ff ff       	call   10444b <get_initrd_driver>
  1044c5:	39 73 02             	cmp    %esi,0x2(%ebx)
  1044c8:	72 1b                	jb     1044e5 <initrd_read+0x50>
  1044ca:	89 74 24 08          	mov    %esi,0x8(%esp)
  1044ce:	89 44 24 04          	mov    %eax,0x4(%esp)
  1044d2:	8b 44 24 24          	mov    0x24(%esp),%eax
  1044d6:	89 04 24             	mov    %eax,(%esp)
  1044d9:	e8 ba 2d 00 00       	call   107298 <memcpy>
  1044de:	b8 00 00 00 00       	mov    $0x0,%eax
  1044e3:	eb 05                	jmp    1044ea <initrd_read+0x55>
  1044e5:	b8 ff ff ff ff       	mov    $0xffffffff,%eax
  1044ea:	83 c4 14             	add    $0x14,%esp
  1044ed:	5b                   	pop    %ebx
  1044ee:	5e                   	pop    %esi
  1044ef:	c3                   	ret    

001044f0 <get_driver_name>:
  1044f0:	8a 44 24 04          	mov    0x4(%esp),%al
  1044f4:	8a 54 24 08          	mov    0x8(%esp),%dl
  1044f8:	84 c0                	test   %al,%al
  1044fa:	74 06                	je     104502 <get_driver_name+0x12>
  1044fc:	3c 01                	cmp    $0x1,%al
  1044fe:	75 51                	jne    104551 <get_driver_name+0x61>
  104500:	eb 20                	jmp    104522 <get_driver_name+0x32>
  104502:	80 fa 01             	cmp    $0x1,%dl
  104505:	74 50                	je     104557 <get_driver_name+0x67>
  104507:	b8 71 95 10 00       	mov    $0x109571,%eax
  10450c:	80 fa 01             	cmp    $0x1,%dl
  10450f:	72 51                	jb     104562 <get_driver_name+0x72>
  104511:	80 fa 02             	cmp    $0x2,%dl
  104514:	75 06                	jne    10451c <get_driver_name+0x2c>
  104516:	b8 7a 95 10 00       	mov    $0x10957a,%eax
  10451b:	c3                   	ret    
  10451c:	b8 00 00 00 00       	mov    $0x0,%eax
  104521:	c3                   	ret    
  104522:	b8 00 00 00 00       	mov    $0x0,%eax
  104527:	80 fa 04             	cmp    $0x4,%dl
  10452a:	77 36                	ja     104562 <get_driver_name+0x72>
  10452c:	81 e2 ff 00 00 00    	and    $0xff,%edx
  104532:	ff 24 95 b0 95 10 00 	jmp    *0x1095b0(,%edx,4)
  104539:	b8 86 95 10 00       	mov    $0x109586,%eax
  10453e:	c3                   	ret    
  10453f:	b8 85 95 10 00       	mov    $0x109585,%eax
  104544:	c3                   	ret    
  104545:	b8 8a 95 10 00       	mov    $0x10958a,%eax
  10454a:	c3                   	ret    
  10454b:	b8 9b 95 10 00       	mov    $0x10959b,%eax
  104550:	c3                   	ret    
  104551:	b8 00 00 00 00       	mov    $0x0,%eax
  104556:	c3                   	ret    
  104557:	b8 75 95 10 00       	mov    $0x109575,%eax
  10455c:	c3                   	ret    
  10455d:	b8 7f 95 10 00       	mov    $0x10957f,%eax
  104562:	c3                   	ret    

00104563 <initrd_get_root>:
  104563:	55                   	push   %ebp
  104564:	57                   	push   %edi
  104565:	56                   	push   %esi
  104566:	53                   	push   %ebx
  104567:	83 ec 2c             	sub    $0x2c,%esp
  10456a:	c7 04 24 70 00 00 00 	movl   $0x70,(%esp)
  104571:	e8 11 f9 ff ff       	call   103e87 <kmalloc>
  104576:	89 c6                	mov    %eax,%esi
  104578:	c7 44 24 08 70 00 00 	movl   $0x70,0x8(%esp)
  10457f:	00 
  104580:	c7 44 24 04 00 00 00 	movl   $0x0,0x4(%esp)
  104587:	00 
  104588:	89 04 24             	mov    %eax,(%esp)
  10458b:	e8 2d 2d 00 00       	call   1072bd <memset>
  104590:	c6 46 10 01          	movb   $0x1,0x10(%esi)
  104594:	c6 46 2e 01          	movb   $0x1,0x2e(%esi)
  104598:	c7 06 b6 83 10 00    	movl   $0x1083b6,(%esi)
  10459e:	a1 9c b3 11 00       	mov    0x11b39c,%eax
  1045a3:	66 8b 00             	mov    (%eax),%ax
  1045a6:	25 ff ff 00 00       	and    $0xffff,%eax
  1045ab:	40                   	inc    %eax
  1045ac:	89 46 68             	mov    %eax,0x68(%esi)
  1045af:	c1 e0 02             	shl    $0x2,%eax
  1045b2:	89 04 24             	mov    %eax,(%esp)
  1045b5:	e8 cd f8 ff ff       	call   103e87 <kmalloc>
  1045ba:	89 c3                	mov    %eax,%ebx
  1045bc:	89 46 64             	mov    %eax,0x64(%esi)
  1045bf:	c7 04 24 70 00 00 00 	movl   $0x70,(%esp)
  1045c6:	e8 bc f8 ff ff       	call   103e87 <kmalloc>
  1045cb:	89 03                	mov    %eax,(%ebx)
  1045cd:	8b 46 64             	mov    0x64(%esi),%eax
  1045d0:	8b 00                	mov    (%eax),%eax
  1045d2:	80 48 10 01          	orb    $0x1,0x10(%eax)
  1045d6:	8b 46 64             	mov    0x64(%esi),%eax
  1045d9:	8b 00                	mov    (%eax),%eax
  1045db:	c7 00 ab 95 10 00    	movl   $0x1095ab,(%eax)
  1045e1:	8b 46 64             	mov    0x64(%esi),%eax
  1045e4:	8b 00                	mov    (%eax),%eax
  1045e6:	c6 40 2e 00          	movb   $0x0,0x2e(%eax)
  1045ea:	a1 9c b3 11 00       	mov    0x11b39c,%eax
  1045ef:	66 83 38 00          	cmpw   $0x0,(%eax)
  1045f3:	0f 84 9f 00 00 00    	je     104698 <initrd_get_root+0x135>
  1045f9:	bb 04 00 00 00       	mov    $0x4,%ebx
  1045fe:	bd 00 00 00 00       	mov    $0x0,%ebp
  104603:	89 2c 24             	mov    %ebp,(%esp)
  104606:	e8 c3 fd ff ff       	call   1043ce <get_initrd_entry>
  10460b:	89 c7                	mov    %eax,%edi
  10460d:	8b 46 64             	mov    0x64(%esi),%eax
  104610:	01 d8                	add    %ebx,%eax
  104612:	89 44 24 1c          	mov    %eax,0x1c(%esp)
  104616:	c7 04 24 70 00 00 00 	movl   $0x70,(%esp)
  10461d:	e8 65 f8 ff ff       	call   103e87 <kmalloc>
  104622:	8b 54 24 1c          	mov    0x1c(%esp),%edx
  104626:	89 02                	mov    %eax,(%edx)
  104628:	31 c0                	xor    %eax,%eax
  10462a:	8a 47 01             	mov    0x1(%edi),%al
  10462d:	89 44 24 04          	mov    %eax,0x4(%esp)
  104631:	31 c0                	xor    %eax,%eax
  104633:	8a 07                	mov    (%edi),%al
  104635:	89 04 24             	mov    %eax,(%esp)
  104638:	e8 b3 fe ff ff       	call   1044f0 <get_driver_name>
  10463d:	8b 56 64             	mov    0x64(%esi),%edx
  104640:	8b 14 1a             	mov    (%edx,%ebx,1),%edx
  104643:	89 02                	mov    %eax,(%edx)
  104645:	8b 46 64             	mov    0x64(%esi),%eax
  104648:	8b 04 18             	mov    (%eax,%ebx,1),%eax
  10464b:	8a 17                	mov    (%edi),%dl
  10464d:	88 50 2c             	mov    %dl,0x2c(%eax)
  104650:	8b 46 64             	mov    0x64(%esi),%eax
  104653:	8b 04 18             	mov    (%eax,%ebx,1),%eax
  104656:	8a 57 01             	mov    0x1(%edi),%dl
  104659:	88 50 2d             	mov    %dl,0x2d(%eax)
  10465c:	8b 46 64             	mov    0x64(%esi),%eax
  10465f:	8b 04 18             	mov    (%eax,%ebx,1),%eax
  104662:	8b 57 02             	mov    0x2(%edi),%edx
  104665:	89 50 34             	mov    %edx,0x34(%eax)
  104668:	8b 46 64             	mov    0x64(%esi),%eax
  10466b:	8b 04 18             	mov    (%eax,%ebx,1),%eax
  10466e:	c7 40 44 95 44 10 00 	movl   $0x104495,0x44(%eax)
  104675:	8b 46 64             	mov    0x64(%esi),%eax
  104678:	8b 04 18             	mov    (%eax,%ebx,1),%eax
  10467b:	c6 40 2e 01          	movb   $0x1,0x2e(%eax)
  10467f:	45                   	inc    %ebp
  104680:	83 c3 04             	add    $0x4,%ebx
  104683:	a1 9c b3 11 00       	mov    0x11b39c,%eax
  104688:	66 8b 00             	mov    (%eax),%ax
  10468b:	25 ff ff 00 00       	and    $0xffff,%eax
  104690:	39 e8                	cmp    %ebp,%eax
  104692:	0f 8f 6b ff ff ff    	jg     104603 <initrd_get_root+0xa0>
  104698:	89 f0                	mov    %esi,%eax
  10469a:	83 c4 2c             	add    $0x2c,%esp
  10469d:	5b                   	pop    %ebx
  10469e:	5e                   	pop    %esi
  10469f:	5f                   	pop    %edi
  1046a0:	5d                   	pop    %ebp
  1046a1:	c3                   	ret    

001046a2 <initrd_open>:
  1046a2:	56                   	push   %esi
  1046a3:	53                   	push   %ebx
  1046a4:	83 ec 14             	sub    $0x14,%esp
  1046a7:	8b 5c 24 20          	mov    0x20(%esp),%ebx
  1046ab:	c7 44 24 04 b6 83 10 	movl   $0x1083b6,0x4(%esp)
  1046b2:	00 
  1046b3:	8b 03                	mov    (%ebx),%eax
  1046b5:	89 04 24             	mov    %eax,(%esp)
  1046b8:	e8 f1 2c 00 00       	call   1073ae <strequal>
  1046bd:	84 c0                	test   %al,%al
  1046bf:	74 2e                	je     1046ef <initrd_open+0x4d>
  1046c1:	c7 44 24 04 b6 83 10 	movl   $0x1083b6,0x4(%esp)
  1046c8:	00 
  1046c9:	8b 43 04             	mov    0x4(%ebx),%eax
  1046cc:	89 04 24             	mov    %eax,(%esp)
  1046cf:	e8 da 2c 00 00       	call   1073ae <strequal>
  1046d4:	84 c0                	test   %al,%al
  1046d6:	74 17                	je     1046ef <initrd_open+0x4d>
  1046d8:	e8 86 fe ff ff       	call   104563 <initrd_get_root>
  1046dd:	c6 43 10 01          	movb   $0x1,0x10(%ebx)
  1046e1:	8b 50 64             	mov    0x64(%eax),%edx
  1046e4:	89 53 64             	mov    %edx,0x64(%ebx)
  1046e7:	8b 40 68             	mov    0x68(%eax),%eax
  1046ea:	89 43 68             	mov    %eax,0x68(%ebx)
  1046ed:	eb 27                	jmp    104716 <initrd_open+0x74>
  1046ef:	8b 33                	mov    (%ebx),%esi
  1046f1:	e8 6d fe ff ff       	call   104563 <initrd_get_root>
  1046f6:	89 74 24 04          	mov    %esi,0x4(%esp)
  1046fa:	89 04 24             	mov    %eax,(%esp)
  1046fd:	e8 24 19 00 00       	call   106026 <finddir_fs>
  104702:	c7 44 24 08 70 00 00 	movl   $0x70,0x8(%esp)
  104709:	00 
  10470a:	89 44 24 04          	mov    %eax,0x4(%esp)
  10470e:	89 1c 24             	mov    %ebx,(%esp)
  104711:	e8 82 2b 00 00       	call   107298 <memcpy>
  104716:	83 c4 14             	add    $0x14,%esp
  104719:	5b                   	pop    %ebx
  10471a:	5e                   	pop    %esi
  10471b:	c3                   	ret    

0010471c <skip_atoi>:
  10471c:	56                   	push   %esi
  10471d:	53                   	push   %ebx
  10471e:	89 c6                	mov    %eax,%esi
  104720:	8b 10                	mov    (%eax),%edx
  104722:	8a 0a                	mov    (%edx),%cl
  104724:	8d 41 d0             	lea    -0x30(%ecx),%eax
  104727:	3c 09                	cmp    $0x9,%al
  104729:	77 1e                	ja     104749 <skip_atoi+0x2d>
  10472b:	42                   	inc    %edx
  10472c:	bb 00 00 00 00       	mov    $0x0,%ebx
  104731:	8d 1c 9b             	lea    (%ebx,%ebx,4),%ebx
  104734:	0f be c9             	movsbl %cl,%ecx
  104737:	8d 5c 59 d0          	lea    -0x30(%ecx,%ebx,2),%ebx
  10473b:	89 16                	mov    %edx,(%esi)
  10473d:	8a 0a                	mov    (%edx),%cl
  10473f:	42                   	inc    %edx
  104740:	8d 41 d0             	lea    -0x30(%ecx),%eax
  104743:	3c 09                	cmp    $0x9,%al
  104745:	76 ea                	jbe    104731 <skip_atoi+0x15>
  104747:	eb 05                	jmp    10474e <skip_atoi+0x32>
  104749:	bb 00 00 00 00       	mov    $0x0,%ebx
  10474e:	89 d8                	mov    %ebx,%eax
  104750:	5b                   	pop    %ebx
  104751:	5e                   	pop    %esi
  104752:	c3                   	ret    

00104753 <number>:
  104753:	55                   	push   %ebp
  104754:	57                   	push   %edi
  104755:	56                   	push   %esi
  104756:	53                   	push   %ebx
  104757:	83 ec 54             	sub    $0x54,%esp
  10475a:	89 c3                	mov    %eax,%ebx
  10475c:	89 d6                	mov    %edx,%esi
  10475e:	89 4c 24 14          	mov    %ecx,0x14(%esp)
  104762:	bd ec 95 10 00       	mov    $0x1095ec,%ebp
  104767:	f6 44 24 70 40       	testb  $0x40,0x70(%esp)
  10476c:	75 05                	jne    104773 <number+0x20>
  10476e:	bd c4 95 10 00       	mov    $0x1095c4,%ebp
  104773:	f6 44 24 70 10       	testb  $0x10,0x70(%esp)
  104778:	74 05                	je     10477f <number+0x2c>
  10477a:	83 64 24 70 fe       	andl   $0xfffffffe,0x70(%esp)
  10477f:	8b 44 24 14          	mov    0x14(%esp),%eax
  104783:	89 04 24             	mov    %eax,(%esp)
  104786:	83 e8 02             	sub    $0x2,%eax
  104789:	83 f8 22             	cmp    $0x22,%eax
  10478c:	0f 87 93 01 00 00    	ja     104925 <number+0x1d2>
  104792:	8b 44 24 70          	mov    0x70(%esp),%eax
  104796:	83 e0 01             	and    $0x1,%eax
  104799:	83 f8 01             	cmp    $0x1,%eax
  10479c:	19 d2                	sbb    %edx,%edx
  10479e:	83 e2 f0             	and    $0xfffffff0,%edx
  1047a1:	83 c2 30             	add    $0x30,%edx
  1047a4:	88 54 24 04          	mov    %dl,0x4(%esp)
  1047a8:	f6 44 24 70 02       	testb  $0x2,0x70(%esp)
  1047ad:	74 10                	je     1047bf <number+0x6c>
  1047af:	85 f6                	test   %esi,%esi
  1047b1:	79 0c                	jns    1047bf <number+0x6c>
  1047b3:	f7 de                	neg    %esi
  1047b5:	c6 44 24 1b 2d       	movb   $0x2d,0x1b(%esp)
  1047ba:	e9 79 01 00 00       	jmp    104938 <number+0x1e5>
  1047bf:	f6 44 24 70 04       	testb  $0x4,0x70(%esp)
  1047c4:	0f 85 62 01 00 00    	jne    10492c <number+0x1d9>
  1047ca:	f6 44 24 70 08       	testb  $0x8,0x70(%esp)
  1047cf:	0f 85 5e 01 00 00    	jne    104933 <number+0x1e0>
  1047d5:	c6 44 24 1b 00       	movb   $0x0,0x1b(%esp)
  1047da:	8b 44 24 70          	mov    0x70(%esp),%eax
  1047de:	83 e0 20             	and    $0x20,%eax
  1047e1:	89 44 24 1c          	mov    %eax,0x1c(%esp)
  1047e5:	74 1f                	je     104806 <number+0xb3>
  1047e7:	83 7c 24 14 10       	cmpl   $0x10,0x14(%esp)
  1047ec:	75 07                	jne    1047f5 <number+0xa2>
  1047ee:	83 6c 24 68 02       	subl   $0x2,0x68(%esp)
  1047f3:	eb 11                	jmp    104806 <number+0xb3>
  1047f5:	83 7c 24 14 08       	cmpl   $0x8,0x14(%esp)
  1047fa:	0f 94 c0             	sete   %al
  1047fd:	25 ff 00 00 00       	and    $0xff,%eax
  104802:	29 44 24 68          	sub    %eax,0x68(%esp)
  104806:	85 f6                	test   %esi,%esi
  104808:	75 0c                	jne    104816 <number+0xc3>
  10480a:	c6 44 24 30 30       	movb   $0x30,0x30(%esp)
  10480f:	b9 01 00 00 00       	mov    $0x1,%ecx
  104814:	eb 34                	jmp    10484a <number+0xf7>
  104816:	b9 00 00 00 00       	mov    $0x0,%ecx
  10481b:	89 5c 24 20          	mov    %ebx,0x20(%esp)
  10481f:	89 f7                	mov    %esi,%edi
  104821:	89 f0                	mov    %esi,%eax
  104823:	ba 00 00 00 00       	mov    $0x0,%edx
  104828:	f7 34 24             	divl   (%esp)
  10482b:	89 c3                	mov    %eax,%ebx
  10482d:	89 c6                	mov    %eax,%esi
  10482f:	89 f8                	mov    %edi,%eax
  104831:	ba 00 00 00 00       	mov    $0x0,%edx
  104836:	f7 34 24             	divl   (%esp)
  104839:	8a 54 15 00          	mov    0x0(%ebp,%edx,1),%dl
  10483d:	88 54 0c 30          	mov    %dl,0x30(%esp,%ecx,1)
  104841:	41                   	inc    %ecx
  104842:	85 db                	test   %ebx,%ebx
  104844:	75 d9                	jne    10481f <number+0xcc>
  104846:	8b 5c 24 20          	mov    0x20(%esp),%ebx
  10484a:	89 cf                	mov    %ecx,%edi
  10484c:	3b 4c 24 6c          	cmp    0x6c(%esp),%ecx
  104850:	7d 04                	jge    104856 <number+0x103>
  104852:	8b 7c 24 6c          	mov    0x6c(%esp),%edi
  104856:	8b 44 24 68          	mov    0x68(%esp),%eax
  10485a:	29 f8                	sub    %edi,%eax
  10485c:	f6 44 24 70 11       	testb  $0x11,0x70(%esp)
  104861:	75 1e                	jne    104881 <number+0x12e>
  104863:	8d 70 ff             	lea    -0x1(%eax),%esi
  104866:	85 c0                	test   %eax,%eax
  104868:	7e 15                	jle    10487f <number+0x12c>
  10486a:	01 d8                	add    %ebx,%eax
  10486c:	89 fa                	mov    %edi,%edx
  10486e:	c6 03 20             	movb   $0x20,(%ebx)
  104871:	43                   	inc    %ebx
  104872:	39 c3                	cmp    %eax,%ebx
  104874:	75 f8                	jne    10486e <number+0x11b>
  104876:	89 d7                	mov    %edx,%edi
  104878:	b8 ff ff ff ff       	mov    $0xffffffff,%eax
  10487d:	eb 02                	jmp    104881 <number+0x12e>
  10487f:	89 f0                	mov    %esi,%eax
  104881:	80 7c 24 1b 00       	cmpb   $0x0,0x1b(%esp)
  104886:	74 07                	je     10488f <number+0x13c>
  104888:	8a 54 24 1b          	mov    0x1b(%esp),%dl
  10488c:	88 13                	mov    %dl,(%ebx)
  10488e:	43                   	inc    %ebx
  10488f:	83 7c 24 1c 00       	cmpl   $0x0,0x1c(%esp)
  104894:	74 20                	je     1048b6 <number+0x163>
  104896:	83 7c 24 14 08       	cmpl   $0x8,0x14(%esp)
  10489b:	75 06                	jne    1048a3 <number+0x150>
  10489d:	c6 03 30             	movb   $0x30,(%ebx)
  1048a0:	43                   	inc    %ebx
  1048a1:	eb 13                	jmp    1048b6 <number+0x163>
  1048a3:	83 7c 24 14 10       	cmpl   $0x10,0x14(%esp)
  1048a8:	75 0c                	jne    1048b6 <number+0x163>
  1048aa:	c6 03 30             	movb   $0x30,(%ebx)
  1048ad:	8a 55 21             	mov    0x21(%ebp),%dl
  1048b0:	88 53 01             	mov    %dl,0x1(%ebx)
  1048b3:	83 c3 02             	add    $0x2,%ebx
  1048b6:	f6 44 24 70 10       	testb  $0x10,0x70(%esp)
  1048bb:	75 23                	jne    1048e0 <number+0x18d>
  1048bd:	8d 70 ff             	lea    -0x1(%eax),%esi
  1048c0:	85 c0                	test   %eax,%eax
  1048c2:	7e 1a                	jle    1048de <number+0x18b>
  1048c4:	01 d8                	add    %ebx,%eax
  1048c6:	89 fa                	mov    %edi,%edx
  1048c8:	89 c6                	mov    %eax,%esi
  1048ca:	8a 44 24 04          	mov    0x4(%esp),%al
  1048ce:	88 03                	mov    %al,(%ebx)
  1048d0:	43                   	inc    %ebx
  1048d1:	39 f3                	cmp    %esi,%ebx
  1048d3:	75 f9                	jne    1048ce <number+0x17b>
  1048d5:	89 d7                	mov    %edx,%edi
  1048d7:	b8 ff ff ff ff       	mov    $0xffffffff,%eax
  1048dc:	eb 02                	jmp    1048e0 <number+0x18d>
  1048de:	89 f0                	mov    %esi,%eax
  1048e0:	39 f9                	cmp    %edi,%ecx
  1048e2:	7d 0e                	jge    1048f2 <number+0x19f>
  1048e4:	89 fa                	mov    %edi,%edx
  1048e6:	29 ca                	sub    %ecx,%edx
  1048e8:	01 da                	add    %ebx,%edx
  1048ea:	c6 03 30             	movb   $0x30,(%ebx)
  1048ed:	43                   	inc    %ebx
  1048ee:	39 d3                	cmp    %edx,%ebx
  1048f0:	75 f8                	jne    1048ea <number+0x197>
  1048f2:	8d 51 ff             	lea    -0x1(%ecx),%edx
  1048f5:	85 c9                	test   %ecx,%ecx
  1048f7:	7e 1c                	jle    104915 <number+0x1c2>
  1048f9:	8d 54 14 30          	lea    0x30(%esp,%edx,1),%edx
  1048fd:	8d 7c 24 2f          	lea    0x2f(%esp),%edi
  104901:	89 de                	mov    %ebx,%esi
  104903:	89 04 24             	mov    %eax,(%esp)
  104906:	8a 02                	mov    (%edx),%al
  104908:	88 06                	mov    %al,(%esi)
  10490a:	46                   	inc    %esi
  10490b:	4a                   	dec    %edx
  10490c:	39 fa                	cmp    %edi,%edx
  10490e:	75 f6                	jne    104906 <number+0x1b3>
  104910:	8b 04 24             	mov    (%esp),%eax
  104913:	01 cb                	add    %ecx,%ebx
  104915:	85 c0                	test   %eax,%eax
  104917:	7e 28                	jle    104941 <number+0x1ee>
  104919:	01 d8                	add    %ebx,%eax
  10491b:	c6 03 20             	movb   $0x20,(%ebx)
  10491e:	43                   	inc    %ebx
  10491f:	39 c3                	cmp    %eax,%ebx
  104921:	75 f8                	jne    10491b <number+0x1c8>
  104923:	eb 1c                	jmp    104941 <number+0x1ee>
  104925:	bb 00 00 00 00       	mov    $0x0,%ebx
  10492a:	eb 15                	jmp    104941 <number+0x1ee>
  10492c:	c6 44 24 1b 2b       	movb   $0x2b,0x1b(%esp)
  104931:	eb 05                	jmp    104938 <number+0x1e5>
  104933:	c6 44 24 1b 20       	movb   $0x20,0x1b(%esp)
  104938:	ff 4c 24 68          	decl   0x68(%esp)
  10493c:	e9 99 fe ff ff       	jmp    1047da <number+0x87>
  104941:	89 d8                	mov    %ebx,%eax
  104943:	83 c4 54             	add    $0x54,%esp
  104946:	5b                   	pop    %ebx
  104947:	5e                   	pop    %esi
  104948:	5f                   	pop    %edi
  104949:	5d                   	pop    %ebp
  10494a:	c3                   	ret    

0010494b <vsprintf>:
  10494b:	55                   	push   %ebp
  10494c:	57                   	push   %edi
  10494d:	56                   	push   %esi
  10494e:	53                   	push   %ebx
  10494f:	83 ec 2c             	sub    $0x2c,%esp
  104952:	8b 6c 24 48          	mov    0x48(%esp),%ebp
  104956:	8b 44 24 44          	mov    0x44(%esp),%eax
  10495a:	8a 00                	mov    (%eax),%al
  10495c:	84 c0                	test   %al,%al
  10495e:	0f 84 5d 03 00 00    	je     104cc1 <vsprintf+0x376>
  104964:	8b 7c 24 40          	mov    0x40(%esp),%edi
  104968:	3c 25                	cmp    $0x25,%al
  10496a:	74 08                	je     104974 <vsprintf+0x29>
  10496c:	88 07                	mov    %al,(%edi)
  10496e:	47                   	inc    %edi
  10496f:	e9 35 03 00 00       	jmp    104ca9 <vsprintf+0x35e>
  104974:	bb 00 00 00 00       	mov    $0x0,%ebx
  104979:	8b 44 24 44          	mov    0x44(%esp),%eax
  10497d:	8d 50 01             	lea    0x1(%eax),%edx
  104980:	89 54 24 44          	mov    %edx,0x44(%esp)
  104984:	8a 50 01             	mov    0x1(%eax),%dl
  104987:	8d 42 e0             	lea    -0x20(%edx),%eax
  10498a:	3c 10                	cmp    $0x10,%al
  10498c:	77 25                	ja     1049b3 <vsprintf+0x68>
  10498e:	25 ff 00 00 00       	and    $0xff,%eax
  104993:	ff 24 85 14 96 10 00 	jmp    *0x109614(,%eax,4)
  10499a:	83 cb 10             	or     $0x10,%ebx
  10499d:	eb da                	jmp    104979 <vsprintf+0x2e>
  10499f:	83 cb 04             	or     $0x4,%ebx
  1049a2:	eb d5                	jmp    104979 <vsprintf+0x2e>
  1049a4:	83 cb 08             	or     $0x8,%ebx
  1049a7:	eb d0                	jmp    104979 <vsprintf+0x2e>
  1049a9:	83 cb 20             	or     $0x20,%ebx
  1049ac:	eb cb                	jmp    104979 <vsprintf+0x2e>
  1049ae:	83 cb 01             	or     $0x1,%ebx
  1049b1:	eb c6                	jmp    104979 <vsprintf+0x2e>
  1049b3:	8d 42 d0             	lea    -0x30(%edx),%eax
  1049b6:	3c 09                	cmp    $0x9,%al
  1049b8:	77 0f                	ja     1049c9 <vsprintf+0x7e>
  1049ba:	8d 44 24 44          	lea    0x44(%esp),%eax
  1049be:	e8 59 fd ff ff       	call   10471c <skip_atoi>
  1049c3:	89 44 24 18          	mov    %eax,0x18(%esp)
  1049c7:	eb 27                	jmp    1049f0 <vsprintf+0xa5>
  1049c9:	c7 44 24 18 ff ff ff 	movl   $0xffffffff,0x18(%esp)
  1049d0:	ff 
  1049d1:	80 fa 2a             	cmp    $0x2a,%dl
  1049d4:	75 1a                	jne    1049f0 <vsprintf+0xa5>
  1049d6:	8d 45 04             	lea    0x4(%ebp),%eax
  1049d9:	8b 6d 00             	mov    0x0(%ebp),%ebp
  1049dc:	89 6c 24 18          	mov    %ebp,0x18(%esp)
  1049e0:	89 c5                	mov    %eax,%ebp
  1049e2:	83 7c 24 18 00       	cmpl   $0x0,0x18(%esp)
  1049e7:	79 07                	jns    1049f0 <vsprintf+0xa5>
  1049e9:	f7 5c 24 18          	negl   0x18(%esp)
  1049ed:	83 cb 10             	or     $0x10,%ebx
  1049f0:	8b 44 24 44          	mov    0x44(%esp),%eax
  1049f4:	c7 44 24 14 ff ff ff 	movl   $0xffffffff,0x14(%esp)
  1049fb:	ff 
  1049fc:	80 38 2e             	cmpb   $0x2e,(%eax)
  1049ff:	75 3e                	jne    104a3f <vsprintf+0xf4>
  104a01:	8d 50 01             	lea    0x1(%eax),%edx
  104a04:	89 54 24 44          	mov    %edx,0x44(%esp)
  104a08:	8a 40 01             	mov    0x1(%eax),%al
  104a0b:	8d 50 d0             	lea    -0x30(%eax),%edx
  104a0e:	80 fa 09             	cmp    $0x9,%dl
  104a11:	77 0f                	ja     104a22 <vsprintf+0xd7>
  104a13:	8d 44 24 44          	lea    0x44(%esp),%eax
  104a17:	e8 00 fd ff ff       	call   10471c <skip_atoi>
  104a1c:	89 44 24 14          	mov    %eax,0x14(%esp)
  104a20:	eb 0e                	jmp    104a30 <vsprintf+0xe5>
  104a22:	3c 2a                	cmp    $0x2a,%al
  104a24:	75 11                	jne    104a37 <vsprintf+0xec>
  104a26:	8b 45 00             	mov    0x0(%ebp),%eax
  104a29:	89 44 24 14          	mov    %eax,0x14(%esp)
  104a2d:	8d 6d 04             	lea    0x4(%ebp),%ebp
  104a30:	83 7c 24 14 00       	cmpl   $0x0,0x14(%esp)
  104a35:	79 08                	jns    104a3f <vsprintf+0xf4>
  104a37:	c7 44 24 14 00 00 00 	movl   $0x0,0x14(%esp)
  104a3e:	00 
  104a3f:	8b 44 24 44          	mov    0x44(%esp),%eax
  104a43:	8a 10                	mov    (%eax),%dl
  104a45:	88 d1                	mov    %dl,%cl
  104a47:	83 e1 fb             	and    $0xfffffffb,%ecx
  104a4a:	80 f9 68             	cmp    $0x68,%cl
  104a4d:	74 05                	je     104a54 <vsprintf+0x109>
  104a4f:	80 fa 4c             	cmp    $0x4c,%dl
  104a52:	75 05                	jne    104a59 <vsprintf+0x10e>
  104a54:	40                   	inc    %eax
  104a55:	89 44 24 44          	mov    %eax,0x44(%esp)
  104a59:	8b 44 24 44          	mov    0x44(%esp),%eax
  104a5d:	8a 10                	mov    (%eax),%dl
  104a5f:	8d 42 a8             	lea    -0x58(%edx),%eax
  104a62:	3c 20                	cmp    $0x20,%al
  104a64:	0f 87 16 02 00 00    	ja     104c80 <vsprintf+0x335>
  104a6a:	25 ff 00 00 00       	and    $0xff,%eax
  104a6f:	ff 24 85 58 96 10 00 	jmp    *0x109658(,%eax,4)
  104a76:	f6 c3 10             	test   $0x10,%bl
  104a79:	75 2d                	jne    104aa8 <vsprintf+0x15d>
  104a7b:	8b 44 24 18          	mov    0x18(%esp),%eax
  104a7f:	48                   	dec    %eax
  104a80:	85 c0                	test   %eax,%eax
  104a82:	7e 20                	jle    104aa4 <vsprintf+0x159>
  104a84:	8b 54 24 18          	mov    0x18(%esp),%edx
  104a88:	8d 44 17 ff          	lea    -0x1(%edi,%edx,1),%eax
  104a8c:	c6 07 20             	movb   $0x20,(%edi)
  104a8f:	47                   	inc    %edi
  104a90:	39 c7                	cmp    %eax,%edi
  104a92:	75 f8                	jne    104a8c <vsprintf+0x141>
  104a94:	8b 55 00             	mov    0x0(%ebp),%edx
  104a97:	88 10                	mov    %dl,(%eax)
  104a99:	8d 78 01             	lea    0x1(%eax),%edi
  104a9c:	8d 6d 04             	lea    0x4(%ebp),%ebp
  104a9f:	e9 05 02 00 00       	jmp    104ca9 <vsprintf+0x35e>
  104aa4:	89 44 24 18          	mov    %eax,0x18(%esp)
  104aa8:	8d 4d 04             	lea    0x4(%ebp),%ecx
  104aab:	8b 45 00             	mov    0x0(%ebp),%eax
  104aae:	88 07                	mov    %al,(%edi)
  104ab0:	8d 57 01             	lea    0x1(%edi),%edx
  104ab3:	8b 44 24 18          	mov    0x18(%esp),%eax
  104ab7:	48                   	dec    %eax
  104ab8:	85 c0                	test   %eax,%eax
  104aba:	0f 8e df 01 00 00    	jle    104c9f <vsprintf+0x354>
  104ac0:	8b 5c 24 18          	mov    0x18(%esp),%ebx
  104ac4:	01 df                	add    %ebx,%edi
  104ac6:	89 d0                	mov    %edx,%eax
  104ac8:	c6 00 20             	movb   $0x20,(%eax)
  104acb:	40                   	inc    %eax
  104acc:	39 f8                	cmp    %edi,%eax
  104ace:	75 f8                	jne    104ac8 <vsprintf+0x17d>
  104ad0:	8d 7c 1a ff          	lea    -0x1(%edx,%ebx,1),%edi
  104ad4:	89 cd                	mov    %ecx,%ebp
  104ad6:	e9 ce 01 00 00       	jmp    104ca9 <vsprintf+0x35e>
  104adb:	8d 4d 04             	lea    0x4(%ebp),%ecx
  104ade:	89 4c 24 1c          	mov    %ecx,0x1c(%esp)
  104ae2:	8b 75 00             	mov    0x0(%ebp),%esi
  104ae5:	89 34 24             	mov    %esi,(%esp)
  104ae8:	e8 57 28 00 00       	call   107344 <strlen>
  104aed:	83 7c 24 14 00       	cmpl   $0x0,0x14(%esp)
  104af2:	78 0a                	js     104afe <vsprintf+0x1b3>
  104af4:	3b 44 24 14          	cmp    0x14(%esp),%eax
  104af8:	7e 04                	jle    104afe <vsprintf+0x1b3>
  104afa:	8b 44 24 14          	mov    0x14(%esp),%eax
  104afe:	f6 c3 10             	test   $0x10,%bl
  104b01:	75 3a                	jne    104b3d <vsprintf+0x1f2>
  104b03:	8b 54 24 18          	mov    0x18(%esp),%edx
  104b07:	4a                   	dec    %edx
  104b08:	3b 44 24 18          	cmp    0x18(%esp),%eax
  104b0c:	7d 2b                	jge    104b39 <vsprintf+0x1ee>
  104b0e:	8b 4c 24 18          	mov    0x18(%esp),%ecx
  104b12:	89 c3                	mov    %eax,%ebx
  104b14:	89 ca                	mov    %ecx,%edx
  104b16:	29 c2                	sub    %eax,%edx
  104b18:	01 fa                	add    %edi,%edx
  104b1a:	c6 07 20             	movb   $0x20,(%edi)
  104b1d:	47                   	inc    %edi
  104b1e:	39 d7                	cmp    %edx,%edi
  104b20:	75 f8                	jne    104b1a <vsprintf+0x1cf>
  104b22:	ba 01 00 00 00       	mov    $0x1,%edx
  104b27:	29 ca                	sub    %ecx,%edx
  104b29:	01 d3                	add    %edx,%ebx
  104b2b:	8b 54 24 18          	mov    0x18(%esp),%edx
  104b2f:	8d 54 1a fe          	lea    -0x2(%edx,%ebx,1),%edx
  104b33:	89 54 24 18          	mov    %edx,0x18(%esp)
  104b37:	eb 04                	jmp    104b3d <vsprintf+0x1f2>
  104b39:	89 54 24 18          	mov    %edx,0x18(%esp)
  104b3d:	85 c0                	test   %eax,%eax
  104b3f:	7e 12                	jle    104b53 <vsprintf+0x208>
  104b41:	ba 00 00 00 00       	mov    $0x0,%edx
  104b46:	8a 0c 16             	mov    (%esi,%edx,1),%cl
  104b49:	88 0c 17             	mov    %cl,(%edi,%edx,1)
  104b4c:	42                   	inc    %edx
  104b4d:	39 c2                	cmp    %eax,%edx
  104b4f:	75 f5                	jne    104b46 <vsprintf+0x1fb>
  104b51:	01 c7                	add    %eax,%edi
  104b53:	3b 44 24 18          	cmp    0x18(%esp),%eax
  104b57:	0f 8d 48 01 00 00    	jge    104ca5 <vsprintf+0x35a>
  104b5d:	8b 54 24 18          	mov    0x18(%esp),%edx
  104b61:	29 c2                	sub    %eax,%edx
  104b63:	89 d0                	mov    %edx,%eax
  104b65:	01 f8                	add    %edi,%eax
  104b67:	c6 07 20             	movb   $0x20,(%edi)
  104b6a:	47                   	inc    %edi
  104b6b:	39 c7                	cmp    %eax,%edi
  104b6d:	75 f8                	jne    104b67 <vsprintf+0x21c>
  104b6f:	8b 6c 24 1c          	mov    0x1c(%esp),%ebp
  104b73:	e9 31 01 00 00       	jmp    104ca9 <vsprintf+0x35e>
  104b78:	8d 75 04             	lea    0x4(%ebp),%esi
  104b7b:	89 5c 24 08          	mov    %ebx,0x8(%esp)
  104b7f:	8b 44 24 14          	mov    0x14(%esp),%eax
  104b83:	89 44 24 04          	mov    %eax,0x4(%esp)
  104b87:	8b 44 24 18          	mov    0x18(%esp),%eax
  104b8b:	89 04 24             	mov    %eax,(%esp)
  104b8e:	b9 08 00 00 00       	mov    $0x8,%ecx
  104b93:	8b 55 00             	mov    0x0(%ebp),%edx
  104b96:	89 f8                	mov    %edi,%eax
  104b98:	e8 b6 fb ff ff       	call   104753 <number>
  104b9d:	89 c7                	mov    %eax,%edi
  104b9f:	89 f5                	mov    %esi,%ebp
  104ba1:	e9 03 01 00 00       	jmp    104ca9 <vsprintf+0x35e>
  104ba6:	83 7c 24 18 ff       	cmpl   $0xffffffff,0x18(%esp)
  104bab:	75 0b                	jne    104bb8 <vsprintf+0x26d>
  104bad:	83 cb 01             	or     $0x1,%ebx
  104bb0:	c7 44 24 18 08 00 00 	movl   $0x8,0x18(%esp)
  104bb7:	00 
  104bb8:	8d 75 04             	lea    0x4(%ebp),%esi
  104bbb:	89 5c 24 08          	mov    %ebx,0x8(%esp)
  104bbf:	8b 44 24 14          	mov    0x14(%esp),%eax
  104bc3:	89 44 24 04          	mov    %eax,0x4(%esp)
  104bc7:	8b 44 24 18          	mov    0x18(%esp),%eax
  104bcb:	89 04 24             	mov    %eax,(%esp)
  104bce:	b9 10 00 00 00       	mov    $0x10,%ecx
  104bd3:	8b 55 00             	mov    0x0(%ebp),%edx
  104bd6:	89 f8                	mov    %edi,%eax
  104bd8:	e8 76 fb ff ff       	call   104753 <number>
  104bdd:	89 c7                	mov    %eax,%edi
  104bdf:	89 f5                	mov    %esi,%ebp
  104be1:	e9 c3 00 00 00       	jmp    104ca9 <vsprintf+0x35e>
  104be6:	83 cb 40             	or     $0x40,%ebx
  104be9:	8d 75 04             	lea    0x4(%ebp),%esi
  104bec:	89 5c 24 08          	mov    %ebx,0x8(%esp)
  104bf0:	8b 44 24 14          	mov    0x14(%esp),%eax
  104bf4:	89 44 24 04          	mov    %eax,0x4(%esp)
  104bf8:	8b 44 24 18          	mov    0x18(%esp),%eax
  104bfc:	89 04 24             	mov    %eax,(%esp)
  104bff:	b9 10 00 00 00       	mov    $0x10,%ecx
  104c04:	8b 55 00             	mov    0x0(%ebp),%edx
  104c07:	89 f8                	mov    %edi,%eax
  104c09:	e8 45 fb ff ff       	call   104753 <number>
  104c0e:	89 c7                	mov    %eax,%edi
  104c10:	89 f5                	mov    %esi,%ebp
  104c12:	e9 92 00 00 00       	jmp    104ca9 <vsprintf+0x35e>
  104c17:	83 cb 02             	or     $0x2,%ebx
  104c1a:	8d 75 04             	lea    0x4(%ebp),%esi
  104c1d:	89 5c 24 08          	mov    %ebx,0x8(%esp)
  104c21:	8b 44 24 14          	mov    0x14(%esp),%eax
  104c25:	89 44 24 04          	mov    %eax,0x4(%esp)
  104c29:	8b 44 24 18          	mov    0x18(%esp),%eax
  104c2d:	89 04 24             	mov    %eax,(%esp)
  104c30:	b9 0a 00 00 00       	mov    $0xa,%ecx
  104c35:	8b 55 00             	mov    0x0(%ebp),%edx
  104c38:	89 f8                	mov    %edi,%eax
  104c3a:	e8 14 fb ff ff       	call   104753 <number>
  104c3f:	89 c7                	mov    %eax,%edi
  104c41:	89 f5                	mov    %esi,%ebp
  104c43:	eb 64                	jmp    104ca9 <vsprintf+0x35e>
  104c45:	8d 75 04             	lea    0x4(%ebp),%esi
  104c48:	89 5c 24 08          	mov    %ebx,0x8(%esp)
  104c4c:	8b 44 24 14          	mov    0x14(%esp),%eax
  104c50:	89 44 24 04          	mov    %eax,0x4(%esp)
  104c54:	8b 44 24 18          	mov    0x18(%esp),%eax
  104c58:	89 04 24             	mov    %eax,(%esp)
  104c5b:	b9 02 00 00 00       	mov    $0x2,%ecx
  104c60:	8b 55 00             	mov    0x0(%ebp),%edx
  104c63:	89 f8                	mov    %edi,%eax
  104c65:	e8 e9 fa ff ff       	call   104753 <number>
  104c6a:	89 c7                	mov    %eax,%edi
  104c6c:	89 f5                	mov    %esi,%ebp
  104c6e:	eb 39                	jmp    104ca9 <vsprintf+0x35e>
  104c70:	8b 45 00             	mov    0x0(%ebp),%eax
  104c73:	89 fa                	mov    %edi,%edx
  104c75:	2b 54 24 40          	sub    0x40(%esp),%edx
  104c79:	89 10                	mov    %edx,(%eax)
  104c7b:	8d 6d 04             	lea    0x4(%ebp),%ebp
  104c7e:	eb 29                	jmp    104ca9 <vsprintf+0x35e>
  104c80:	80 fa 25             	cmp    $0x25,%dl
  104c83:	74 0e                	je     104c93 <vsprintf+0x348>
  104c85:	c6 07 25             	movb   $0x25,(%edi)
  104c88:	47                   	inc    %edi
  104c89:	8b 44 24 44          	mov    0x44(%esp),%eax
  104c8d:	8a 10                	mov    (%eax),%dl
  104c8f:	84 d2                	test   %dl,%dl
  104c91:	74 05                	je     104c98 <vsprintf+0x34d>
  104c93:	88 17                	mov    %dl,(%edi)
  104c95:	47                   	inc    %edi
  104c96:	eb 11                	jmp    104ca9 <vsprintf+0x35e>
  104c98:	48                   	dec    %eax
  104c99:	89 44 24 44          	mov    %eax,0x44(%esp)
  104c9d:	eb 0a                	jmp    104ca9 <vsprintf+0x35e>
  104c9f:	89 d7                	mov    %edx,%edi
  104ca1:	89 cd                	mov    %ecx,%ebp
  104ca3:	eb 04                	jmp    104ca9 <vsprintf+0x35e>
  104ca5:	8b 6c 24 1c          	mov    0x1c(%esp),%ebp
  104ca9:	8b 44 24 44          	mov    0x44(%esp),%eax
  104cad:	8d 50 01             	lea    0x1(%eax),%edx
  104cb0:	89 54 24 44          	mov    %edx,0x44(%esp)
  104cb4:	8a 40 01             	mov    0x1(%eax),%al
  104cb7:	84 c0                	test   %al,%al
  104cb9:	0f 85 a9 fc ff ff    	jne    104968 <vsprintf+0x1d>
  104cbf:	eb 04                	jmp    104cc5 <vsprintf+0x37a>
  104cc1:	8b 7c 24 40          	mov    0x40(%esp),%edi
  104cc5:	c6 07 00             	movb   $0x0,(%edi)
  104cc8:	89 f8                	mov    %edi,%eax
  104cca:	2b 44 24 40          	sub    0x40(%esp),%eax
  104cce:	83 c4 2c             	add    $0x2c,%esp
  104cd1:	5b                   	pop    %ebx
  104cd2:	5e                   	pop    %esi
  104cd3:	5f                   	pop    %edi
  104cd4:	5d                   	pop    %ebp
  104cd5:	c3                   	ret    

00104cd6 <kprintf>:
  104cd6:	53                   	push   %ebx
  104cd7:	81 ec 18 04 00 00    	sub    $0x418,%esp
  104cdd:	8d 84 24 24 04 00 00 	lea    0x424(%esp),%eax
  104ce4:	89 44 24 08          	mov    %eax,0x8(%esp)
  104ce8:	8b 84 24 20 04 00 00 	mov    0x420(%esp),%eax
  104cef:	89 44 24 04          	mov    %eax,0x4(%esp)
  104cf3:	8d 5c 24 10          	lea    0x10(%esp),%ebx
  104cf7:	89 1c 24             	mov    %ebx,(%esp)
  104cfa:	e8 4c fc ff ff       	call   10494b <vsprintf>
  104cff:	c6 44 04 10 00       	movb   $0x0,0x10(%esp,%eax,1)
  104d04:	89 1c 24             	mov    %ebx,(%esp)
  104d07:	e8 44 e0 ff ff       	call   102d50 <bochs_puts>
  104d0c:	81 c4 18 04 00 00    	add    $0x418,%esp
  104d12:	5b                   	pop    %ebx
  104d13:	c3                   	ret    

00104d14 <error_kprintf>:
  104d14:	83 ec 1c             	sub    $0x1c,%esp
  104d17:	8d 44 24 24          	lea    0x24(%esp),%eax
  104d1b:	89 44 24 08          	mov    %eax,0x8(%esp)
  104d1f:	8b 44 24 20          	mov    0x20(%esp),%eax
  104d23:	89 44 24 04          	mov    %eax,0x4(%esp)
  104d27:	c7 04 24 00 a6 11 00 	movl   $0x11a600,(%esp)
  104d2e:	e8 18 fc ff ff       	call   10494b <vsprintf>
  104d33:	c6 80 00 a6 11 00 00 	movb   $0x0,0x11a600(%eax)
  104d3a:	c7 04 24 00 a6 11 00 	movl   $0x11a600,(%esp)
  104d41:	e8 0f 1d 00 00       	call   106a55 <puts>
  104d46:	83 c4 1c             	add    $0x1c,%esp
  104d49:	c3                   	ret    
  104d4a:	66 90                	xchg   %ax,%ax

00104d4c <init_locking>:
  104d4c:	c3                   	ret    
  104d4d:	66 90                	xchg   %ax,%ax
  104d4f:	90                   	nop

00104d50 <main>:
  104d50:	55                   	push   %ebp
  104d51:	89 e5                	mov    %esp,%ebp
  104d53:	83 e4 f0             	and    $0xfffffff0,%esp
  104d56:	83 ec 10             	sub    $0x10,%esp
  104d59:	c7 44 24 04 00 00 00 	movl   $0x0,0x4(%esp)
  104d60:	00 
  104d61:	c7 04 24 0f 00 00 00 	movl   $0xf,(%esp)
  104d68:	e8 f0 1d 00 00       	call   106b5d <init_text_mode>
  104d6d:	8b 45 08             	mov    0x8(%ebp),%eax
  104d70:	89 04 24             	mov    %eax,(%esp)
  104d73:	e8 ec d4 ff ff       	call   102264 <hal_main>
  104d78:	e8 63 0e 00 00       	call   105be0 <init_multitasking>
  104d7d:	eb fe                	jmp    104d7d <main+0x2d>
  104d7f:	90                   	nop

00104d80 <init_processes>:
  104d80:	83 ec 1c             	sub    $0x1c,%esp
  104d83:	a1 88 a0 10 00       	mov    0x10a088,%eax
  104d88:	8d 14 c5 00 00 00 00 	lea    0x0(,%eax,8),%edx
  104d8f:	29 c2                	sub    %eax,%edx
  104d91:	8d 04 90             	lea    (%eax,%edx,4),%eax
  104d94:	c1 e0 02             	shl    $0x2,%eax
  104d97:	89 04 24             	mov    %eax,(%esp)
  104d9a:	e8 e8 f0 ff ff       	call   103e87 <kmalloc>
  104d9f:	a3 a0 b3 11 00       	mov    %eax,0x11b3a0
  104da4:	8b 15 88 a0 10 00    	mov    0x10a088,%edx
  104daa:	8d 0c d5 00 00 00 00 	lea    0x0(,%edx,8),%ecx
  104db1:	29 d1                	sub    %edx,%ecx
  104db3:	8d 14 8a             	lea    (%edx,%ecx,4),%edx
  104db6:	c1 e2 02             	shl    $0x2,%edx
  104db9:	89 54 24 08          	mov    %edx,0x8(%esp)
  104dbd:	c7 44 24 04 00 00 00 	movl   $0x0,0x4(%esp)
  104dc4:	00 
  104dc5:	89 04 24             	mov    %eax,(%esp)
  104dc8:	e8 f0 24 00 00       	call   1072bd <memset>
  104dcd:	83 c4 1c             	add    $0x1c,%esp
  104dd0:	c3                   	ret    

00104dd1 <find_first_pid>:
  104dd1:	8b 15 88 a0 10 00    	mov    0x10a088,%edx
  104dd7:	85 d2                	test   %edx,%edx
  104dd9:	74 29                	je     104e04 <find_first_pid+0x33>
  104ddb:	8b 0d a0 b3 11 00    	mov    0x11b3a0,%ecx
  104de1:	83 39 00             	cmpl   $0x0,(%ecx)
  104de4:	74 18                	je     104dfe <find_first_pid+0x2d>
  104de6:	b8 00 00 00 00       	mov    $0x0,%eax
  104deb:	eb 06                	jmp    104df3 <find_first_pid+0x22>
  104ded:	83 3c 81 00          	cmpl   $0x0,(%ecx,%eax,4)
  104df1:	74 16                	je     104e09 <find_first_pid+0x38>
  104df3:	40                   	inc    %eax
  104df4:	39 d0                	cmp    %edx,%eax
  104df6:	75 f5                	jne    104ded <find_first_pid+0x1c>
  104df8:	b8 ff ff ff ff       	mov    $0xffffffff,%eax
  104dfd:	c3                   	ret    
  104dfe:	b8 00 00 00 00       	mov    $0x0,%eax
  104e03:	c3                   	ret    
  104e04:	b8 ff ff ff ff       	mov    $0xffffffff,%eax
  104e09:	c3                   	ret    

00104e0a <fork>:
  104e0a:	55                   	push   %ebp
  104e0b:	57                   	push   %edi
  104e0c:	56                   	push   %esi
  104e0d:	53                   	push   %ebx
  104e0e:	83 ec 2c             	sub    $0x2c,%esp
  104e11:	8b 15 04 aa 11 00    	mov    0x11aa04,%edx
  104e17:	a1 a0 b3 11 00       	mov    0x11b3a0,%eax
  104e1c:	8b 34 90             	mov    (%eax,%edx,4),%esi
  104e1f:	a1 e4 a5 11 00       	mov    0x11a5e4,%eax
  104e24:	89 04 24             	mov    %eax,(%esp)
  104e27:	e8 e5 dc ff ff       	call   102b11 <clone_directory>
  104e2c:	89 44 24 1c          	mov    %eax,0x1c(%esp)
  104e30:	c7 04 24 74 00 00 00 	movl   $0x74,(%esp)
  104e37:	e8 4b f0 ff ff       	call   103e87 <kmalloc>
  104e3c:	89 c7                	mov    %eax,%edi
  104e3e:	c7 44 24 08 74 00 00 	movl   $0x74,0x8(%esp)
  104e45:	00 
  104e46:	c7 44 24 04 00 00 00 	movl   $0x0,0x4(%esp)
  104e4d:	00 
  104e4e:	89 04 24             	mov    %eax,(%esp)
  104e51:	e8 67 24 00 00       	call   1072bd <memset>
  104e56:	8b 46 0c             	mov    0xc(%esi),%eax
  104e59:	8d 04 80             	lea    (%eax,%eax,4),%eax
  104e5c:	c1 e0 02             	shl    $0x2,%eax
  104e5f:	89 04 24             	mov    %eax,(%esp)
  104e62:	e8 20 f0 ff ff       	call   103e87 <kmalloc>
  104e67:	89 47 08             	mov    %eax,0x8(%edi)
  104e6a:	8b 46 0c             	mov    0xc(%esi),%eax
  104e6d:	89 47 0c             	mov    %eax,0xc(%edi)
  104e70:	83 7e 0c 00          	cmpl   $0x0,0xc(%esi)
  104e74:	0f 84 8e 00 00 00    	je     104f08 <fork+0xfe>
  104e7a:	bd 00 00 00 00       	mov    $0x0,%ebp
  104e7f:	8d 1c ad 00 00 00 00 	lea    0x0(,%ebp,4),%ebx
  104e86:	c7 44 24 08 14 00 00 	movl   $0x14,0x8(%esp)
  104e8d:	00 
  104e8e:	8b 46 08             	mov    0x8(%esi),%eax
  104e91:	8b 04 18             	mov    (%eax,%ebx,1),%eax
  104e94:	89 44 24 04          	mov    %eax,0x4(%esp)
  104e98:	8b 47 08             	mov    0x8(%edi),%eax
  104e9b:	8b 04 18             	mov    (%eax,%ebx,1),%eax
  104e9e:	89 04 24             	mov    %eax,(%esp)
  104ea1:	e8 f2 23 00 00       	call   107298 <memcpy>
  104ea6:	c7 04 24 5c 00 00 00 	movl   $0x5c,(%esp)
  104ead:	e8 d5 ef ff ff       	call   103e87 <kmalloc>
  104eb2:	89 44 24 18          	mov    %eax,0x18(%esp)
  104eb6:	c7 44 24 08 5c 00 00 	movl   $0x5c,0x8(%esp)
  104ebd:	00 
  104ebe:	8b 46 08             	mov    0x8(%esi),%eax
  104ec1:	8b 04 18             	mov    (%eax,%ebx,1),%eax
  104ec4:	8b 40 04             	mov    0x4(%eax),%eax
  104ec7:	89 44 24 04          	mov    %eax,0x4(%esp)
  104ecb:	8b 44 24 18          	mov    0x18(%esp),%eax
  104ecf:	89 04 24             	mov    %eax,(%esp)
  104ed2:	e8 c1 23 00 00       	call   107298 <memcpy>
  104ed7:	8b 47 08             	mov    0x8(%edi),%eax
  104eda:	8b 04 18             	mov    (%eax,%ebx,1),%eax
  104edd:	8b 54 24 18          	mov    0x18(%esp),%edx
  104ee1:	89 50 04             	mov    %edx,0x4(%eax)
  104ee4:	8b 47 08             	mov    0x8(%edi),%eax
  104ee7:	8b 1c 18             	mov    (%eax,%ebx,1),%ebx
  104eea:	c7 04 24 00 00 01 00 	movl   $0x10000,(%esp)
  104ef1:	e8 d5 f0 ff ff       	call   103fcb <kmalloc_a>
  104ef6:	05 00 00 01 00       	add    $0x10000,%eax
  104efb:	89 43 0c             	mov    %eax,0xc(%ebx)
  104efe:	45                   	inc    %ebp
  104eff:	39 6e 0c             	cmp    %ebp,0xc(%esi)
  104f02:	0f 87 77 ff ff ff    	ja     104e7f <fork+0x75>
  104f08:	8b 44 24 1c          	mov    0x1c(%esp),%eax
  104f0c:	89 47 10             	mov    %eax,0x10(%edi)
  104f0f:	c7 44 24 08 40 00 00 	movl   $0x40,0x8(%esp)
  104f16:	00 
  104f17:	8d 46 24             	lea    0x24(%esi),%eax
  104f1a:	89 44 24 04          	mov    %eax,0x4(%esp)
  104f1e:	8d 47 24             	lea    0x24(%edi),%eax
  104f21:	89 04 24             	mov    %eax,(%esp)
  104f24:	e8 6f 23 00 00       	call   107298 <memcpy>
  104f29:	8b 46 18             	mov    0x18(%esi),%eax
  104f2c:	89 c2                	mov    %eax,%edx
  104f2e:	c1 e2 04             	shl    $0x4,%edx
  104f31:	c1 e0 07             	shl    $0x7,%eax
  104f34:	29 d0                	sub    %edx,%eax
  104f36:	89 04 24             	mov    %eax,(%esp)
  104f39:	e8 49 ef ff ff       	call   103e87 <kmalloc>
  104f3e:	89 c3                	mov    %eax,%ebx
  104f40:	8b 46 18             	mov    0x18(%esi),%eax
  104f43:	89 c2                	mov    %eax,%edx
  104f45:	c1 e2 04             	shl    $0x4,%edx
  104f48:	c1 e0 07             	shl    $0x7,%eax
  104f4b:	29 d0                	sub    %edx,%eax
  104f4d:	89 44 24 08          	mov    %eax,0x8(%esp)
  104f51:	8b 46 14             	mov    0x14(%esi),%eax
  104f54:	89 44 24 04          	mov    %eax,0x4(%esp)
  104f58:	89 1c 24             	mov    %ebx,(%esp)
  104f5b:	e8 38 23 00 00       	call   107298 <memcpy>
  104f60:	89 5f 14             	mov    %ebx,0x14(%edi)
  104f63:	8b 46 18             	mov    0x18(%esi),%eax
  104f66:	89 47 18             	mov    %eax,0x18(%edi)
  104f69:	89 77 68             	mov    %esi,0x68(%edi)
  104f6c:	8b 46 70             	mov    0x70(%esi),%eax
  104f6f:	85 c0                	test   %eax,%eax
  104f71:	75 07                	jne    104f7a <fork+0x170>
  104f73:	8b 46 6c             	mov    0x6c(%esi),%eax
  104f76:	89 38                	mov    %edi,(%eax)
  104f78:	eb 28                	jmp    104fa2 <fork+0x198>
  104f7a:	40                   	inc    %eax
  104f7b:	8d 14 c5 00 00 00 00 	lea    0x0(,%eax,8),%edx
  104f82:	29 c2                	sub    %eax,%edx
  104f84:	8d 04 90             	lea    (%eax,%edx,4),%eax
  104f87:	c1 e0 02             	shl    $0x2,%eax
  104f8a:	89 44 24 04          	mov    %eax,0x4(%esp)
  104f8e:	8b 46 6c             	mov    0x6c(%esi),%eax
  104f91:	89 04 24             	mov    %eax,(%esp)
  104f94:	e8 7e f3 ff ff       	call   104317 <krealloc>
  104f99:	89 46 6c             	mov    %eax,0x6c(%esi)
  104f9c:	8b 56 70             	mov    0x70(%esi),%edx
  104f9f:	89 3c 90             	mov    %edi,(%eax,%edx,4)
  104fa2:	ff 46 70             	incl   0x70(%esi)
  104fa5:	e8 27 fe ff ff       	call   104dd1 <find_first_pid>
  104faa:	83 f8 ff             	cmp    $0xffffffff,%eax
  104fad:	75 13                	jne    104fc2 <fork+0x1b8>
  104faf:	c7 04 24 dc 96 10 00 	movl   $0x1096dc,(%esp)
  104fb6:	e8 59 fd ff ff       	call   104d14 <error_kprintf>
  104fbb:	b8 ff ff ff ff       	mov    $0xffffffff,%eax
  104fc0:	eb 2e                	jmp    104ff0 <fork+0x1e6>
  104fc2:	89 07                	mov    %eax,(%edi)
  104fc4:	8b 15 a0 b3 11 00    	mov    0x11b3a0,%edx
  104fca:	89 3c 82             	mov    %edi,(%edx,%eax,4)
  104fcd:	a1 00 aa 11 00       	mov    0x11aa00,%eax
  104fd2:	40                   	inc    %eax
  104fd3:	a3 00 aa 11 00       	mov    %eax,0x11aa00
  104fd8:	8b 0d 04 aa 11 00    	mov    0x11aa04,%ecx
  104fde:	b8 00 00 00 00       	mov    $0x0,%eax
  104fe3:	8b 15 a0 b3 11 00    	mov    0x11b3a0,%edx
  104fe9:	39 34 8a             	cmp    %esi,(%edx,%ecx,4)
  104fec:	75 02                	jne    104ff0 <fork+0x1e6>
  104fee:	8b 07                	mov    (%edi),%eax
  104ff0:	83 c4 2c             	add    $0x2c,%esp
  104ff3:	5b                   	pop    %ebx
  104ff4:	5e                   	pop    %esi
  104ff5:	5f                   	pop    %edi
  104ff6:	5d                   	pop    %ebp
  104ff7:	c3                   	ret    

00104ff8 <execve>:
  104ff8:	c3                   	ret    

00104ff9 <create_process>:
  104ff9:	56                   	push   %esi
  104ffa:	53                   	push   %ebx
  104ffb:	83 ec 14             	sub    $0x14,%esp
  104ffe:	8b 74 24 20          	mov    0x20(%esp),%esi
  105002:	c7 04 24 74 00 00 00 	movl   $0x74,(%esp)
  105009:	e8 79 ee ff ff       	call   103e87 <kmalloc>
  10500e:	89 c3                	mov    %eax,%ebx
  105010:	c7 44 24 08 74 00 00 	movl   $0x74,0x8(%esp)
  105017:	00 
  105018:	c7 44 24 04 00 00 00 	movl   $0x0,0x4(%esp)
  10501f:	00 
  105020:	89 04 24             	mov    %eax,(%esp)
  105023:	e8 95 22 00 00       	call   1072bd <memset>
  105028:	c7 04 24 04 00 00 00 	movl   $0x4,(%esp)
  10502f:	e8 53 ee ff ff       	call   103e87 <kmalloc>
  105034:	89 43 08             	mov    %eax,0x8(%ebx)
  105037:	c7 44 24 08 04 00 00 	movl   $0x4,0x8(%esp)
  10503e:	00 
  10503f:	c7 44 24 04 00 00 00 	movl   $0x0,0x4(%esp)
  105046:	00 
  105047:	89 04 24             	mov    %eax,(%esp)
  10504a:	e8 6e 22 00 00       	call   1072bd <memset>
  10504f:	8b 44 24 2c          	mov    0x2c(%esp),%eax
  105053:	89 44 24 0c          	mov    %eax,0xc(%esp)
  105057:	8b 44 24 28          	mov    0x28(%esp),%eax
  10505b:	89 44 24 08          	mov    %eax,0x8(%esp)
  10505f:	8b 44 24 24          	mov    0x24(%esp),%eax
  105063:	89 44 24 04          	mov    %eax,0x4(%esp)
  105067:	89 1c 24             	mov    %ebx,(%esp)
  10506a:	e8 29 0d 00 00       	call   105d98 <create_thread>
  10506f:	8b 43 08             	mov    0x8(%ebx),%eax
  105072:	8b 10                	mov    (%eax),%edx
  105074:	89 54 24 0c          	mov    %edx,0xc(%esp)
  105078:	89 44 24 08          	mov    %eax,0x8(%esp)
  10507c:	89 5c 24 04          	mov    %ebx,0x4(%esp)
  105080:	c7 04 24 24 97 10 00 	movl   $0x109724,(%esp)
  105087:	e8 4a fc ff ff       	call   104cd6 <kprintf>
  10508c:	e8 d0 db ff ff       	call   102c61 <create_page_directory>
  105091:	89 43 10             	mov    %eax,0x10(%ebx)
  105094:	89 04 24             	mov    %eax,(%esp)
  105097:	e8 ab d9 ff ff       	call   102a47 <map_kernel>
  10509c:	c7 43 1c 00 00 00 00 	movl   $0x0,0x1c(%ebx)
  1050a3:	c7 44 24 08 40 00 00 	movl   $0x40,0x8(%esp)
  1050aa:	00 
  1050ab:	c7 44 24 04 00 00 00 	movl   $0x0,0x4(%esp)
  1050b2:	00 
  1050b3:	8d 43 24             	lea    0x24(%ebx),%eax
  1050b6:	89 04 24             	mov    %eax,(%esp)
  1050b9:	e8 ff 21 00 00       	call   1072bd <memset>
  1050be:	89 34 24             	mov    %esi,(%esp)
  1050c1:	e8 7e 22 00 00       	call   107344 <strlen>
  1050c6:	40                   	inc    %eax
  1050c7:	89 04 24             	mov    %eax,(%esp)
  1050ca:	e8 b8 ed ff ff       	call   103e87 <kmalloc>
  1050cf:	89 43 04             	mov    %eax,0x4(%ebx)
  1050d2:	89 74 24 04          	mov    %esi,0x4(%esp)
  1050d6:	89 04 24             	mov    %eax,(%esp)
  1050d9:	e8 82 22 00 00       	call   107360 <strcpy>
  1050de:	c7 43 68 00 00 00 00 	movl   $0x0,0x68(%ebx)
  1050e5:	c7 04 24 04 00 00 00 	movl   $0x4,(%esp)
  1050ec:	e8 96 ed ff ff       	call   103e87 <kmalloc>
  1050f1:	89 43 6c             	mov    %eax,0x6c(%ebx)
  1050f4:	c7 43 70 00 00 00 00 	movl   $0x0,0x70(%ebx)
  1050fb:	e8 d1 fc ff ff       	call   104dd1 <find_first_pid>
  105100:	83 f8 ff             	cmp    $0xffffffff,%eax
  105103:	74 18                	je     10511d <create_process+0x124>
  105105:	89 03                	mov    %eax,(%ebx)
  105107:	8b 15 a0 b3 11 00    	mov    0x11b3a0,%edx
  10510d:	89 1c 82             	mov    %ebx,(%edx,%eax,4)
  105110:	a1 00 aa 11 00       	mov    0x11aa00,%eax
  105115:	40                   	inc    %eax
  105116:	a3 00 aa 11 00       	mov    %eax,0x11aa00
  10511b:	eb 05                	jmp    105122 <create_process+0x129>
  10511d:	bb ff ff ff ff       	mov    $0xffffffff,%ebx
  105122:	89 d8                	mov    %ebx,%eax
  105124:	83 c4 14             	add    $0x14,%esp
  105127:	5b                   	pop    %ebx
  105128:	5e                   	pop    %esi
  105129:	c3                   	ret    

0010512a <check_threads>:
  10512a:	83 ec 1c             	sub    $0x1c,%esp
  10512d:	a1 a0 b3 11 00       	mov    0x11b3a0,%eax
  105132:	8b 00                	mov    (%eax),%eax
  105134:	8b 50 08             	mov    0x8(%eax),%edx
  105137:	8b 40 08             	mov    0x8(%eax),%eax
  10513a:	8b 12                	mov    (%edx),%edx
  10513c:	89 54 24 08          	mov    %edx,0x8(%esp)
  105140:	89 44 24 04          	mov    %eax,0x4(%esp)
  105144:	c7 04 24 54 97 10 00 	movl   $0x109754,(%esp)
  10514b:	e8 86 fb ff ff       	call   104cd6 <kprintf>
  105150:	83 c4 1c             	add    $0x1c,%esp
  105153:	c3                   	ret    

00105154 <switchpid>:
  105154:	57                   	push   %edi
  105155:	56                   	push   %esi
  105156:	53                   	push   %ebx
  105157:	83 ec 10             	sub    $0x10,%esp
  10515a:	8b 74 24 20          	mov    0x20(%esp),%esi
  10515e:	8b 5c 24 24          	mov    0x24(%esp),%ebx
  105162:	89 35 04 aa 11 00    	mov    %esi,0x11aa04
  105168:	89 1c 24             	mov    %ebx,(%esp)
  10516b:	e8 14 0d 00 00       	call   105e84 <settid>
  105170:	c1 e6 02             	shl    $0x2,%esi
  105173:	a1 a0 b3 11 00       	mov    0x11b3a0,%eax
  105178:	8b 04 30             	mov    (%eax,%esi,1),%eax
  10517b:	8b 50 08             	mov    0x8(%eax),%edx
  10517e:	c1 e3 02             	shl    $0x2,%ebx
  105181:	8b 14 1a             	mov    (%edx,%ebx,1),%edx
  105184:	8b 7a 04             	mov    0x4(%edx),%edi
  105187:	8b 40 10             	mov    0x10(%eax),%eax
  10518a:	a3 e4 a5 11 00       	mov    %eax,0x11a5e4
  10518f:	89 04 24             	mov    %eax,(%esp)
  105192:	e8 fb da ff ff       	call   102c92 <switch_page_directory>
  105197:	a1 a0 b3 11 00       	mov    0x11b3a0,%eax
  10519c:	8b 04 30             	mov    (%eax,%esi,1),%eax
  10519f:	8b 40 08             	mov    0x8(%eax),%eax
  1051a2:	8b 04 18             	mov    (%eax,%ebx,1),%eax
  1051a5:	8b 40 0c             	mov    0xc(%eax),%eax
  1051a8:	89 04 24             	mov    %eax,(%esp)
  1051ab:	e8 41 c3 ff ff       	call   1014f1 <set_kernel_stack>
  1051b0:	a1 a0 b3 11 00       	mov    0x11b3a0,%eax
  1051b5:	8b 00                	mov    (%eax),%eax
  1051b7:	8b 50 08             	mov    0x8(%eax),%edx
  1051ba:	8b 40 08             	mov    0x8(%eax),%eax
  1051bd:	8b 12                	mov    (%edx),%edx
  1051bf:	89 54 24 08          	mov    %edx,0x8(%esp)
  1051c3:	89 44 24 04          	mov    %eax,0x4(%esp)
  1051c7:	c7 04 24 54 97 10 00 	movl   $0x109754,(%esp)
  1051ce:	e8 03 fb ff ff       	call   104cd6 <kprintf>
  1051d3:	89 f8                	mov    %edi,%eax
  1051d5:	e8 8a c0 ff ff       	call   101264 <task_switch_stub>
  1051da:	83 c4 10             	add    $0x10,%esp
  1051dd:	5b                   	pop    %ebx
  1051de:	5e                   	pop    %esi
  1051df:	5f                   	pop    %edi
  1051e0:	c3                   	ret    

001051e1 <getpid>:
  1051e1:	a1 04 aa 11 00       	mov    0x11aa04,%eax
  1051e6:	c3                   	ret    

001051e7 <getprocess>:
  1051e7:	8b 15 04 aa 11 00    	mov    0x11aa04,%edx
  1051ed:	a1 a0 b3 11 00       	mov    0x11b3a0,%eax
  1051f2:	8b 04 90             	mov    (%eax,%edx,4),%eax
  1051f5:	c3                   	ret    

001051f6 <setpid>:
  1051f6:	8b 44 24 04          	mov    0x4(%esp),%eax
  1051fa:	a3 04 aa 11 00       	mov    %eax,0x11aa04
  1051ff:	c3                   	ret    

00105200 <getnumpids>:
  105200:	a1 00 aa 11 00       	mov    0x11aa00,%eax
  105205:	c3                   	ret    

00105206 <waitpid>:
  105206:	c3                   	ret    

00105207 <wait>:
  105207:	83 ec 0c             	sub    $0xc,%esp
  10520a:	c7 44 24 08 00 00 00 	movl   $0x0,0x8(%esp)
  105211:	00 
  105212:	8b 44 24 10          	mov    0x10(%esp),%eax
  105216:	89 44 24 04          	mov    %eax,0x4(%esp)
  10521a:	c7 04 24 ff ff ff ff 	movl   $0xffffffff,(%esp)
  105221:	e8 e0 ff ff ff       	call   105206 <waitpid>
  105226:	83 c4 0c             	add    $0xc,%esp
  105229:	c3                   	ret    

0010522a <exit>:
  10522a:	c3                   	ret    

0010522b <stop>:
  10522b:	c3                   	ret    

0010522c <create_semaphore>:
  10522c:	56                   	push   %esi
  10522d:	53                   	push   %ebx
  10522e:	83 ec 14             	sub    $0x14,%esp
  105231:	e8 36 0c 00 00       	call   105e6c <getthread>
  105236:	89 c3                	mov    %eax,%ebx
  105238:	c7 04 24 14 00 00 00 	movl   $0x14,(%esp)
  10523f:	e8 43 ec ff ff       	call   103e87 <kmalloc>
  105244:	89 c6                	mov    %eax,%esi
  105246:	c7 44 24 08 14 00 00 	movl   $0x14,0x8(%esp)
  10524d:	00 
  10524e:	c7 44 24 04 00 00 00 	movl   $0x0,0x4(%esp)
  105255:	00 
  105256:	89 04 24             	mov    %eax,(%esp)
  105259:	e8 5f 20 00 00       	call   1072bd <memset>
  10525e:	8b 44 24 20          	mov    0x20(%esp),%eax
  105262:	89 06                	mov    %eax,(%esi)
  105264:	8b 44 24 24          	mov    0x24(%esp),%eax
  105268:	89 46 04             	mov    %eax,0x4(%esi)
  10526b:	8b 44 24 28          	mov    0x28(%esp),%eax
  10526f:	89 46 08             	mov    %eax,0x8(%esi)
  105272:	c7 04 24 14 00 00 00 	movl   $0x14,(%esp)
  105279:	e8 09 ec ff ff       	call   103e87 <kmalloc>
  10527e:	89 46 0c             	mov    %eax,0xc(%esi)
  105281:	89 18                	mov    %ebx,(%eax)
  105283:	c7 46 10 01 00 00 00 	movl   $0x1,0x10(%esi)
  10528a:	a1 ac b3 11 00       	mov    0x11b3ac,%eax
  10528f:	8d 44 80 05          	lea    0x5(%eax,%eax,4),%eax
  105293:	c1 e0 02             	shl    $0x2,%eax
  105296:	89 44 24 04          	mov    %eax,0x4(%esp)
  10529a:	a1 a8 b3 11 00       	mov    0x11b3a8,%eax
  10529f:	89 04 24             	mov    %eax,(%esp)
  1052a2:	e8 70 f0 ff ff       	call   104317 <krealloc>
  1052a7:	a3 a8 b3 11 00       	mov    %eax,0x11b3a8
  1052ac:	8b 15 ac b3 11 00    	mov    0x11b3ac,%edx
  1052b2:	c7 04 90 00 00 00 00 	movl   $0x0,(%eax,%edx,4)
  1052b9:	a1 ac b3 11 00       	mov    0x11b3ac,%eax
  1052be:	8d 50 01             	lea    0x1(%eax),%edx
  1052c1:	89 15 ac b3 11 00    	mov    %edx,0x11b3ac
  1052c7:	85 d2                	test   %edx,%edx
  1052c9:	74 38                	je     105303 <create_semaphore+0xd7>
  1052cb:	8b 1d a8 b3 11 00    	mov    0x11b3a8,%ebx
  1052d1:	83 3b 00             	cmpl   $0x0,(%ebx)
  1052d4:	75 18                	jne    1052ee <create_semaphore+0xc2>
  1052d6:	eb 0d                	jmp    1052e5 <create_semaphore+0xb9>
  1052d8:	89 d3                	mov    %edx,%ebx
  1052da:	83 c2 04             	add    $0x4,%edx
  1052dd:	83 7a fc 00          	cmpl   $0x0,-0x4(%edx)
  1052e1:	75 14                	jne    1052f7 <create_semaphore+0xcb>
  1052e3:	eb 05                	jmp    1052ea <create_semaphore+0xbe>
  1052e5:	b9 00 00 00 00       	mov    $0x0,%ecx
  1052ea:	89 33                	mov    %esi,(%ebx)
  1052ec:	eb 1a                	jmp    105308 <create_semaphore+0xdc>
  1052ee:	8d 53 04             	lea    0x4(%ebx),%edx
  1052f1:	40                   	inc    %eax
  1052f2:	b9 00 00 00 00       	mov    $0x0,%ecx
  1052f7:	41                   	inc    %ecx
  1052f8:	39 c1                	cmp    %eax,%ecx
  1052fa:	75 dc                	jne    1052d8 <create_semaphore+0xac>
  1052fc:	b9 ff ff ff ff       	mov    $0xffffffff,%ecx
  105301:	eb 05                	jmp    105308 <create_semaphore+0xdc>
  105303:	b9 ff ff ff ff       	mov    $0xffffffff,%ecx
  105308:	89 c8                	mov    %ecx,%eax
  10530a:	83 c4 14             	add    $0x14,%esp
  10530d:	5b                   	pop    %ebx
  10530e:	5e                   	pop    %esi
  10530f:	c3                   	ret    

00105310 <delete_semaphore>:
  105310:	55                   	push   %ebp
  105311:	57                   	push   %edi
  105312:	56                   	push   %esi
  105313:	53                   	push   %ebx
  105314:	83 ec 2c             	sub    $0x2c,%esp
  105317:	8b 5c 24 40          	mov    0x40(%esp),%ebx
  10531b:	e8 4c 0b 00 00       	call   105e6c <getthread>
  105320:	3b 1d ac b3 11 00    	cmp    0x11b3ac,%ebx
  105326:	74 60                	je     105388 <delete_semaphore+0x78>
  105328:	c1 e3 02             	shl    $0x2,%ebx
  10532b:	89 5c 24 1c          	mov    %ebx,0x1c(%esp)
  10532f:	8b 15 a8 b3 11 00    	mov    0x11b3a8,%edx
  105335:	8b 3c 1a             	mov    (%edx,%ebx,1),%edi
  105338:	85 ff                	test   %edi,%edi
  10533a:	74 53                	je     10538f <delete_semaphore+0x7f>
  10533c:	8b 6f 10             	mov    0x10(%edi),%ebp
  10533f:	85 ed                	test   %ebp,%ebp
  105341:	74 53                	je     105396 <delete_semaphore+0x86>
  105343:	8b 4f 0c             	mov    0xc(%edi),%ecx
  105346:	39 01                	cmp    %eax,(%ecx)
  105348:	74 19                	je     105363 <delete_semaphore+0x53>
  10534a:	89 ee                	mov    %ebp,%esi
  10534c:	ba 00 00 00 00       	mov    $0x0,%edx
  105351:	eb 05                	jmp    105358 <delete_semaphore+0x48>
  105353:	39 04 91             	cmp    %eax,(%ecx,%edx,4)
  105356:	74 07                	je     10535f <delete_semaphore+0x4f>
  105358:	42                   	inc    %edx
  105359:	89 d3                	mov    %edx,%ebx
  10535b:	39 f2                	cmp    %esi,%edx
  10535d:	75 f4                	jne    105353 <delete_semaphore+0x43>
  10535f:	39 eb                	cmp    %ebp,%ebx
  105361:	74 3a                	je     10539d <delete_semaphore+0x8d>
  105363:	89 3c 24             	mov    %edi,(%esp)
  105366:	e8 ca ee ff ff       	call   104235 <kfree>
  10536b:	a1 a8 b3 11 00       	mov    0x11b3a8,%eax
  105370:	8b 54 24 1c          	mov    0x1c(%esp),%edx
  105374:	c7 04 10 00 00 00 00 	movl   $0x0,(%eax,%edx,1)
  10537b:	ff 0d ac b3 11 00    	decl   0x11b3ac
  105381:	b8 00 00 00 00       	mov    $0x0,%eax
  105386:	eb 1a                	jmp    1053a2 <delete_semaphore+0x92>
  105388:	b8 ff ff ff ff       	mov    $0xffffffff,%eax
  10538d:	eb 13                	jmp    1053a2 <delete_semaphore+0x92>
  10538f:	b8 ff ff ff ff       	mov    $0xffffffff,%eax
  105394:	eb 0c                	jmp    1053a2 <delete_semaphore+0x92>
  105396:	b8 ff ff ff ff       	mov    $0xffffffff,%eax
  10539b:	eb 05                	jmp    1053a2 <delete_semaphore+0x92>
  10539d:	b8 ff ff ff ff       	mov    $0xffffffff,%eax
  1053a2:	83 c4 2c             	add    $0x2c,%esp
  1053a5:	5b                   	pop    %ebx
  1053a6:	5e                   	pop    %esi
  1053a7:	5f                   	pop    %edi
  1053a8:	5d                   	pop    %ebp
  1053a9:	c3                   	ret    

001053aa <wait_semaphore>:
  1053aa:	57                   	push   %edi
  1053ab:	56                   	push   %esi
  1053ac:	53                   	push   %ebx
  1053ad:	83 ec 10             	sub    $0x10,%esp
  1053b0:	8b 5c 24 20          	mov    0x20(%esp),%ebx
  1053b4:	e8 b3 0a 00 00       	call   105e6c <getthread>
  1053b9:	3b 1d ac b3 11 00    	cmp    0x11b3ac,%ebx
  1053bf:	0f 84 97 00 00 00    	je     10545c <wait_semaphore+0xb2>
  1053c5:	89 c6                	mov    %eax,%esi
  1053c7:	a1 a8 b3 11 00       	mov    0x11b3a8,%eax
  1053cc:	8b 1c 98             	mov    (%eax,%ebx,4),%ebx
  1053cf:	85 db                	test   %ebx,%ebx
  1053d1:	0f 84 8c 00 00 00    	je     105463 <wait_semaphore+0xb9>
  1053d7:	8b 7b 10             	mov    0x10(%ebx),%edi
  1053da:	85 ff                	test   %edi,%edi
  1053dc:	74 1e                	je     1053fc <wait_semaphore+0x52>
  1053de:	8b 43 0c             	mov    0xc(%ebx),%eax
  1053e1:	39 30                	cmp    %esi,(%eax)
  1053e3:	0f 84 81 00 00 00    	je     10546a <wait_semaphore+0xc0>
  1053e9:	89 f9                	mov    %edi,%ecx
  1053eb:	ba 00 00 00 00       	mov    $0x0,%edx
  1053f0:	eb 05                	jmp    1053f7 <wait_semaphore+0x4d>
  1053f2:	39 34 90             	cmp    %esi,(%eax,%edx,4)
  1053f5:	74 7a                	je     105471 <wait_semaphore+0xc7>
  1053f7:	42                   	inc    %edx
  1053f8:	39 ca                	cmp    %ecx,%edx
  1053fa:	75 f6                	jne    1053f2 <wait_semaphore+0x48>
  1053fc:	8b 43 04             	mov    0x4(%ebx),%eax
  1053ff:	3b 43 08             	cmp    0x8(%ebx),%eax
  105402:	73 7b                	jae    10547f <wait_semaphore+0xd5>
  105404:	40                   	inc    %eax
  105405:	89 43 04             	mov    %eax,0x4(%ebx)
  105408:	8d 44 bf 05          	lea    0x5(%edi,%edi,4),%eax
  10540c:	c1 e0 02             	shl    $0x2,%eax
  10540f:	89 44 24 04          	mov    %eax,0x4(%esp)
  105413:	8b 43 0c             	mov    0xc(%ebx),%eax
  105416:	89 04 24             	mov    %eax,(%esp)
  105419:	e8 f9 ee ff ff       	call   104317 <krealloc>
  10541e:	89 43 0c             	mov    %eax,0xc(%ebx)
  105421:	8b 53 10             	mov    0x10(%ebx),%edx
  105424:	c7 04 90 00 00 00 00 	movl   $0x0,(%eax,%edx,4)
  10542b:	8b 43 10             	mov    0x10(%ebx),%eax
  10542e:	40                   	inc    %eax
  10542f:	89 43 10             	mov    %eax,0x10(%ebx)
  105432:	85 c0                	test   %eax,%eax
  105434:	74 42                	je     105478 <wait_semaphore+0xce>
  105436:	b8 00 00 00 00       	mov    $0x0,%eax
  10543b:	ba 00 00 00 00       	mov    $0x0,%edx
  105440:	8b 4b 0c             	mov    0xc(%ebx),%ecx
  105443:	8d 04 81             	lea    (%ecx,%eax,4),%eax
  105446:	83 38 00             	cmpl   $0x0,(%eax)
  105449:	75 02                	jne    10544d <wait_semaphore+0xa3>
  10544b:	89 30                	mov    %esi,(%eax)
  10544d:	42                   	inc    %edx
  10544e:	89 d0                	mov    %edx,%eax
  105450:	3b 53 10             	cmp    0x10(%ebx),%edx
  105453:	72 eb                	jb     105440 <wait_semaphore+0x96>
  105455:	b8 00 00 00 00       	mov    $0x0,%eax
  10545a:	eb 25                	jmp    105481 <wait_semaphore+0xd7>
  10545c:	b8 ff ff ff ff       	mov    $0xffffffff,%eax
  105461:	eb 1e                	jmp    105481 <wait_semaphore+0xd7>
  105463:	b8 ff ff ff ff       	mov    $0xffffffff,%eax
  105468:	eb 17                	jmp    105481 <wait_semaphore+0xd7>
  10546a:	b8 ff ff ff ff       	mov    $0xffffffff,%eax
  10546f:	eb 10                	jmp    105481 <wait_semaphore+0xd7>
  105471:	b8 ff ff ff ff       	mov    $0xffffffff,%eax
  105476:	eb 09                	jmp    105481 <wait_semaphore+0xd7>
  105478:	b8 00 00 00 00       	mov    $0x0,%eax
  10547d:	eb 02                	jmp    105481 <wait_semaphore+0xd7>
  10547f:	eb fe                	jmp    10547f <wait_semaphore+0xd5>
  105481:	83 c4 10             	add    $0x10,%esp
  105484:	5b                   	pop    %ebx
  105485:	5e                   	pop    %esi
  105486:	5f                   	pop    %edi
  105487:	c3                   	ret    

00105488 <release_semaphore>:
  105488:	55                   	push   %ebp
  105489:	57                   	push   %edi
  10548a:	56                   	push   %esi
  10548b:	53                   	push   %ebx
  10548c:	83 ec 0c             	sub    $0xc,%esp
  10548f:	8b 5c 24 20          	mov    0x20(%esp),%ebx
  105493:	e8 d4 09 00 00       	call   105e6c <getthread>
  105498:	3b 1d ac b3 11 00    	cmp    0x11b3ac,%ebx
  10549e:	74 58                	je     1054f8 <release_semaphore+0x70>
  1054a0:	8b 15 a8 b3 11 00    	mov    0x11b3a8,%edx
  1054a6:	8b 3c 9a             	mov    (%edx,%ebx,4),%edi
  1054a9:	85 ff                	test   %edi,%edi
  1054ab:	74 52                	je     1054ff <release_semaphore+0x77>
  1054ad:	8b 6f 10             	mov    0x10(%edi),%ebp
  1054b0:	85 ed                	test   %ebp,%ebp
  1054b2:	74 52                	je     105506 <release_semaphore+0x7e>
  1054b4:	8b 5f 0c             	mov    0xc(%edi),%ebx
  1054b7:	39 03                	cmp    %eax,(%ebx)
  1054b9:	74 21                	je     1054dc <release_semaphore+0x54>
  1054bb:	89 ee                	mov    %ebp,%esi
  1054bd:	ba 00 00 00 00       	mov    $0x0,%edx
  1054c2:	eb 05                	jmp    1054c9 <release_semaphore+0x41>
  1054c4:	39 04 93             	cmp    %eax,(%ebx,%edx,4)
  1054c7:	74 0b                	je     1054d4 <release_semaphore+0x4c>
  1054c9:	42                   	inc    %edx
  1054ca:	89 d1                	mov    %edx,%ecx
  1054cc:	39 f2                	cmp    %esi,%edx
  1054ce:	75 f4                	jne    1054c4 <release_semaphore+0x3c>
  1054d0:	89 d0                	mov    %edx,%eax
  1054d2:	eb 02                	jmp    1054d6 <release_semaphore+0x4e>
  1054d4:	89 c8                	mov    %ecx,%eax
  1054d6:	39 e8                	cmp    %ebp,%eax
  1054d8:	75 07                	jne    1054e1 <release_semaphore+0x59>
  1054da:	eb 31                	jmp    10550d <release_semaphore+0x85>
  1054dc:	b9 00 00 00 00       	mov    $0x0,%ecx
  1054e1:	ff 4f 04             	decl   0x4(%edi)
  1054e4:	8b 47 0c             	mov    0xc(%edi),%eax
  1054e7:	c7 04 88 00 00 00 00 	movl   $0x0,(%eax,%ecx,4)
  1054ee:	ff 4f 10             	decl   0x10(%edi)
  1054f1:	b8 00 00 00 00       	mov    $0x0,%eax
  1054f6:	eb 1a                	jmp    105512 <release_semaphore+0x8a>
  1054f8:	b8 ff ff ff ff       	mov    $0xffffffff,%eax
  1054fd:	eb 13                	jmp    105512 <release_semaphore+0x8a>
  1054ff:	b8 ff ff ff ff       	mov    $0xffffffff,%eax
  105504:	eb 0c                	jmp    105512 <release_semaphore+0x8a>
  105506:	b8 ff ff ff ff       	mov    $0xffffffff,%eax
  10550b:	eb 05                	jmp    105512 <release_semaphore+0x8a>
  10550d:	b8 ff ff ff ff       	mov    $0xffffffff,%eax
  105512:	83 c4 0c             	add    $0xc,%esp
  105515:	5b                   	pop    %ebx
  105516:	5e                   	pop    %esi
  105517:	5f                   	pop    %edi
  105518:	5d                   	pop    %ebp
  105519:	c3                   	ret    

0010551a <create_mutex>:
  10551a:	56                   	push   %esi
  10551b:	53                   	push   %ebx
  10551c:	83 ec 14             	sub    $0x14,%esp
  10551f:	e8 48 09 00 00       	call   105e6c <getthread>
  105524:	89 c3                	mov    %eax,%ebx
  105526:	c7 04 24 0c 00 00 00 	movl   $0xc,(%esp)
  10552d:	e8 55 e9 ff ff       	call   103e87 <kmalloc>
  105532:	89 c6                	mov    %eax,%esi
  105534:	c7 44 24 08 0c 00 00 	movl   $0xc,0x8(%esp)
  10553b:	00 
  10553c:	c7 44 24 04 00 00 00 	movl   $0x0,0x4(%esp)
  105543:	00 
  105544:	89 04 24             	mov    %eax,(%esp)
  105547:	e8 71 1d 00 00       	call   1072bd <memset>
  10554c:	8b 44 24 20          	mov    0x20(%esp),%eax
  105550:	89 06                	mov    %eax,(%esi)
  105552:	c6 46 04 01          	movb   $0x1,0x4(%esi)
  105556:	89 5e 08             	mov    %ebx,0x8(%esi)
  105559:	a1 a4 b3 11 00       	mov    0x11b3a4,%eax
  10555e:	8d 44 40 03          	lea    0x3(%eax,%eax,2),%eax
  105562:	c1 e0 02             	shl    $0x2,%eax
  105565:	89 44 24 04          	mov    %eax,0x4(%esp)
  105569:	a1 b0 b3 11 00       	mov    0x11b3b0,%eax
  10556e:	89 04 24             	mov    %eax,(%esp)
  105571:	e8 a1 ed ff ff       	call   104317 <krealloc>
  105576:	a3 b0 b3 11 00       	mov    %eax,0x11b3b0
  10557b:	8b 15 a4 b3 11 00    	mov    0x11b3a4,%edx
  105581:	c7 04 90 00 00 00 00 	movl   $0x0,(%eax,%edx,4)
  105588:	a1 a4 b3 11 00       	mov    0x11b3a4,%eax
  10558d:	8d 50 01             	lea    0x1(%eax),%edx
  105590:	89 15 a4 b3 11 00    	mov    %edx,0x11b3a4
  105596:	85 d2                	test   %edx,%edx
  105598:	74 38                	je     1055d2 <create_mutex+0xb8>
  10559a:	8b 1d b0 b3 11 00    	mov    0x11b3b0,%ebx
  1055a0:	83 3b 00             	cmpl   $0x0,(%ebx)
  1055a3:	75 18                	jne    1055bd <create_mutex+0xa3>
  1055a5:	eb 0d                	jmp    1055b4 <create_mutex+0x9a>
  1055a7:	89 d3                	mov    %edx,%ebx
  1055a9:	83 c2 04             	add    $0x4,%edx
  1055ac:	83 7a fc 00          	cmpl   $0x0,-0x4(%edx)
  1055b0:	75 14                	jne    1055c6 <create_mutex+0xac>
  1055b2:	eb 05                	jmp    1055b9 <create_mutex+0x9f>
  1055b4:	b9 00 00 00 00       	mov    $0x0,%ecx
  1055b9:	89 33                	mov    %esi,(%ebx)
  1055bb:	eb 1a                	jmp    1055d7 <create_mutex+0xbd>
  1055bd:	8d 53 04             	lea    0x4(%ebx),%edx
  1055c0:	40                   	inc    %eax
  1055c1:	b9 00 00 00 00       	mov    $0x0,%ecx
  1055c6:	41                   	inc    %ecx
  1055c7:	39 c1                	cmp    %eax,%ecx
  1055c9:	75 dc                	jne    1055a7 <create_mutex+0x8d>
  1055cb:	b9 ff ff ff ff       	mov    $0xffffffff,%ecx
  1055d0:	eb 05                	jmp    1055d7 <create_mutex+0xbd>
  1055d2:	b9 ff ff ff ff       	mov    $0xffffffff,%ecx
  1055d7:	89 c8                	mov    %ecx,%eax
  1055d9:	83 c4 14             	add    $0x14,%esp
  1055dc:	5b                   	pop    %ebx
  1055dd:	5e                   	pop    %esi
  1055de:	c3                   	ret    

001055df <delete_mutex>:
  1055df:	53                   	push   %ebx
  1055e0:	83 ec 18             	sub    $0x18,%esp
  1055e3:	8b 5c 24 20          	mov    0x20(%esp),%ebx
  1055e7:	e8 80 08 00 00       	call   105e6c <getthread>
  1055ec:	3b 1d a4 b3 11 00    	cmp    0x11b3a4,%ebx
  1055f2:	74 36                	je     10562a <delete_mutex+0x4b>
  1055f4:	c1 e3 02             	shl    $0x2,%ebx
  1055f7:	8b 15 b0 b3 11 00    	mov    0x11b3b0,%edx
  1055fd:	8b 14 1a             	mov    (%edx,%ebx,1),%edx
  105600:	85 d2                	test   %edx,%edx
  105602:	74 2d                	je     105631 <delete_mutex+0x52>
  105604:	39 42 08             	cmp    %eax,0x8(%edx)
  105607:	75 2f                	jne    105638 <delete_mutex+0x59>
  105609:	89 14 24             	mov    %edx,(%esp)
  10560c:	e8 24 ec ff ff       	call   104235 <kfree>
  105611:	a1 b0 b3 11 00       	mov    0x11b3b0,%eax
  105616:	c7 04 18 00 00 00 00 	movl   $0x0,(%eax,%ebx,1)
  10561d:	ff 0d a4 b3 11 00    	decl   0x11b3a4
  105623:	b8 00 00 00 00       	mov    $0x0,%eax
  105628:	eb 13                	jmp    10563d <delete_mutex+0x5e>
  10562a:	b8 ff ff ff ff       	mov    $0xffffffff,%eax
  10562f:	eb 0c                	jmp    10563d <delete_mutex+0x5e>
  105631:	b8 ff ff ff ff       	mov    $0xffffffff,%eax
  105636:	eb 05                	jmp    10563d <delete_mutex+0x5e>
  105638:	b8 ff ff ff ff       	mov    $0xffffffff,%eax
  10563d:	83 c4 18             	add    $0x18,%esp
  105640:	5b                   	pop    %ebx
  105641:	c3                   	ret    

00105642 <wait_mutex>:
  105642:	53                   	push   %ebx
  105643:	83 ec 08             	sub    $0x8,%esp
  105646:	8b 5c 24 10          	mov    0x10(%esp),%ebx
  10564a:	e8 1d 08 00 00       	call   105e6c <getthread>
  10564f:	3b 1d a4 b3 11 00    	cmp    0x11b3a4,%ebx
  105655:	74 26                	je     10567d <wait_mutex+0x3b>
  105657:	8b 15 b0 b3 11 00    	mov    0x11b3b0,%edx
  10565d:	8b 14 9a             	mov    (%edx,%ebx,4),%edx
  105660:	85 d2                	test   %edx,%edx
  105662:	74 20                	je     105684 <wait_mutex+0x42>
  105664:	39 42 08             	cmp    %eax,0x8(%edx)
  105667:	74 22                	je     10568b <wait_mutex+0x49>
  105669:	80 7a 04 00          	cmpb   $0x0,0x4(%edx)
  10566d:	75 23                	jne    105692 <wait_mutex+0x50>
  10566f:	c6 42 04 01          	movb   $0x1,0x4(%edx)
  105673:	89 42 08             	mov    %eax,0x8(%edx)
  105676:	b8 00 00 00 00       	mov    $0x0,%eax
  10567b:	eb 17                	jmp    105694 <wait_mutex+0x52>
  10567d:	b8 ff ff ff ff       	mov    $0xffffffff,%eax
  105682:	eb 10                	jmp    105694 <wait_mutex+0x52>
  105684:	b8 ff ff ff ff       	mov    $0xffffffff,%eax
  105689:	eb 09                	jmp    105694 <wait_mutex+0x52>
  10568b:	b8 ff ff ff ff       	mov    $0xffffffff,%eax
  105690:	eb 02                	jmp    105694 <wait_mutex+0x52>
  105692:	eb fe                	jmp    105692 <wait_mutex+0x50>
  105694:	83 c4 08             	add    $0x8,%esp
  105697:	5b                   	pop    %ebx
  105698:	c3                   	ret    

00105699 <release_mutex>:
  105699:	53                   	push   %ebx
  10569a:	83 ec 08             	sub    $0x8,%esp
  10569d:	8b 5c 24 10          	mov    0x10(%esp),%ebx
  1056a1:	e8 c6 07 00 00       	call   105e6c <getthread>
  1056a6:	3b 1d a4 b3 11 00    	cmp    0x11b3a4,%ebx
  1056ac:	74 24                	je     1056d2 <release_mutex+0x39>
  1056ae:	8b 15 b0 b3 11 00    	mov    0x11b3b0,%edx
  1056b4:	8b 14 9a             	mov    (%edx,%ebx,4),%edx
  1056b7:	85 d2                	test   %edx,%edx
  1056b9:	74 1e                	je     1056d9 <release_mutex+0x40>
  1056bb:	39 42 08             	cmp    %eax,0x8(%edx)
  1056be:	75 20                	jne    1056e0 <release_mutex+0x47>
  1056c0:	c6 42 04 00          	movb   $0x0,0x4(%edx)
  1056c4:	c7 42 08 00 00 00 00 	movl   $0x0,0x8(%edx)
  1056cb:	b8 00 00 00 00       	mov    $0x0,%eax
  1056d0:	eb 13                	jmp    1056e5 <release_mutex+0x4c>
  1056d2:	b8 ff ff ff ff       	mov    $0xffffffff,%eax
  1056d7:	eb 0c                	jmp    1056e5 <release_mutex+0x4c>
  1056d9:	b8 ff ff ff ff       	mov    $0xffffffff,%eax
  1056de:	eb 05                	jmp    1056e5 <release_mutex+0x4c>
  1056e0:	b8 ff ff ff ff       	mov    $0xffffffff,%eax
  1056e5:	83 c4 08             	add    $0x8,%esp
  1056e8:	5b                   	pop    %ebx
  1056e9:	c3                   	ret    

001056ea <init_semaphores>:
  1056ea:	83 ec 1c             	sub    $0x1c,%esp
  1056ed:	c7 04 24 14 00 00 00 	movl   $0x14,(%esp)
  1056f4:	e8 8e e7 ff ff       	call   103e87 <kmalloc>
  1056f9:	a3 a8 b3 11 00       	mov    %eax,0x11b3a8
  1056fe:	c7 05 ac b3 11 00 00 	movl   $0x0,0x11b3ac
  105705:	00 00 00 
  105708:	c7 04 24 0c 00 00 00 	movl   $0xc,(%esp)
  10570f:	e8 73 e7 ff ff       	call   103e87 <kmalloc>
  105714:	a3 b0 b3 11 00       	mov    %eax,0x11b3b0
  105719:	c7 05 a4 b3 11 00 00 	movl   $0x0,0x11b3a4
  105720:	00 00 00 
  105723:	83 c4 1c             	add    $0x1c,%esp
  105726:	c3                   	ret    
  105727:	90                   	nop

00105728 <kill>:
  105728:	c3                   	ret    

00105729 <raise>:
  105729:	c3                   	ret    

0010572a <signal>:
  10572a:	53                   	push   %ebx
  10572b:	83 ec 08             	sub    $0x8,%esp
  10572e:	8b 5c 24 10          	mov    0x10(%esp),%ebx
  105732:	e8 b0 fa ff ff       	call   1051e7 <getprocess>
  105737:	89 c2                	mov    %eax,%edx
  105739:	8b 44 98 24          	mov    0x24(%eax,%ebx,4),%eax
  10573d:	83 fb 09             	cmp    $0x9,%ebx
  105740:	74 08                	je     10574a <signal+0x20>
  105742:	8b 4c 24 14          	mov    0x14(%esp),%ecx
  105746:	89 4c 9a 24          	mov    %ecx,0x24(%edx,%ebx,4)
  10574a:	83 c4 08             	add    $0x8,%esp
  10574d:	5b                   	pop    %ebx
  10574e:	c3                   	ret    

0010574f <default_sighandler>:
  10574f:	83 ec 1c             	sub    $0x1c,%esp
  105752:	8b 44 24 20          	mov    0x20(%esp),%eax
  105756:	83 f8 09             	cmp    $0x9,%eax
  105759:	74 16                	je     105771 <default_sighandler+0x22>
  10575b:	83 f8 0b             	cmp    $0xb,%eax
  10575e:	74 1d                	je     10577d <default_sighandler+0x2e>
  105760:	83 f8 02             	cmp    $0x2,%eax
  105763:	75 24                	jne    105789 <default_sighandler+0x3a>
  105765:	c7 04 24 ff ff ff ff 	movl   $0xffffffff,(%esp)
  10576c:	e8 b9 fa ff ff       	call   10522a <exit>
  105771:	c7 04 24 ff ff ff ff 	movl   $0xffffffff,(%esp)
  105778:	e8 ad fa ff ff       	call   10522a <exit>
  10577d:	c7 04 24 ff ff ff ff 	movl   $0xffffffff,(%esp)
  105784:	e8 a1 fa ff ff       	call   10522a <exit>
  105789:	83 c4 1c             	add    $0x1c,%esp
  10578c:	c3                   	ret    
  10578d:	66 90                	xchg   %ax,%ax
  10578f:	90                   	nop

00105790 <init_syscalls>:
  105790:	83 ec 1c             	sub    $0x1c,%esp
  105793:	e8 74 d0 ff ff       	call   10280c <hal_init_syscalls>
  105798:	c7 44 24 04 6c 37 10 	movl   $0x10376c,0x4(%esp)
  10579f:	00 
  1057a0:	c7 04 24 00 00 00 00 	movl   $0x0,(%esp)
  1057a7:	e8 db d0 ff ff       	call   102887 <syscall_install_handler>
  1057ac:	c7 44 24 04 f9 37 10 	movl   $0x1037f9,0x4(%esp)
  1057b3:	00 
  1057b4:	c7 04 24 01 00 00 00 	movl   $0x1,(%esp)
  1057bb:	e8 c7 d0 ff ff       	call   102887 <syscall_install_handler>
  1057c0:	c7 44 24 04 8e 38 10 	movl   $0x10388e,0x4(%esp)
  1057c7:	00 
  1057c8:	c7 04 24 02 00 00 00 	movl   $0x2,(%esp)
  1057cf:	e8 b3 d0 ff ff       	call   102887 <syscall_install_handler>
  1057d4:	c7 44 24 04 b5 38 10 	movl   $0x1038b5,0x4(%esp)
  1057db:	00 
  1057dc:	c7 04 24 03 00 00 00 	movl   $0x3,(%esp)
  1057e3:	e8 9f d0 ff ff       	call   102887 <syscall_install_handler>
  1057e8:	c7 44 24 04 ec 38 10 	movl   $0x1038ec,0x4(%esp)
  1057ef:	00 
  1057f0:	c7 04 24 04 00 00 00 	movl   $0x4,(%esp)
  1057f7:	e8 8b d0 ff ff       	call   102887 <syscall_install_handler>
  1057fc:	c7 44 24 04 23 39 10 	movl   $0x103923,0x4(%esp)
  105803:	00 
  105804:	c7 04 24 05 00 00 00 	movl   $0x5,(%esp)
  10580b:	e8 77 d0 ff ff       	call   102887 <syscall_install_handler>
  105810:	c7 44 24 04 58 39 10 	movl   $0x103958,0x4(%esp)
  105817:	00 
  105818:	c7 04 24 06 00 00 00 	movl   $0x6,(%esp)
  10581f:	e8 63 d0 ff ff       	call   102887 <syscall_install_handler>
  105824:	c7 44 24 04 78 39 10 	movl   $0x103978,0x4(%esp)
  10582b:	00 
  10582c:	c7 04 24 07 00 00 00 	movl   $0x7,(%esp)
  105833:	e8 4f d0 ff ff       	call   102887 <syscall_install_handler>
  105838:	c7 44 24 04 98 39 10 	movl   $0x103998,0x4(%esp)
  10583f:	00 
  105840:	c7 04 24 08 00 00 00 	movl   $0x8,(%esp)
  105847:	e8 3b d0 ff ff       	call   102887 <syscall_install_handler>
  10584c:	c7 44 24 04 b0 39 10 	movl   $0x1039b0,0x4(%esp)
  105853:	00 
  105854:	c7 04 24 09 00 00 00 	movl   $0x9,(%esp)
  10585b:	e8 27 d0 ff ff       	call   102887 <syscall_install_handler>
  105860:	c7 44 24 04 e0 39 10 	movl   $0x1039e0,0x4(%esp)
  105867:	00 
  105868:	c7 04 24 0a 00 00 00 	movl   $0xa,(%esp)
  10586f:	e8 13 d0 ff ff       	call   102887 <syscall_install_handler>
  105874:	c7 44 24 04 10 3a 10 	movl   $0x103a10,0x4(%esp)
  10587b:	00 
  10587c:	c7 04 24 0b 00 00 00 	movl   $0xb,(%esp)
  105883:	e8 ff cf ff ff       	call   102887 <syscall_install_handler>
  105888:	c7 44 24 04 40 3a 10 	movl   $0x103a40,0x4(%esp)
  10588f:	00 
  105890:	c7 04 24 0c 00 00 00 	movl   $0xc,(%esp)
  105897:	e8 eb cf ff ff       	call   102887 <syscall_install_handler>
  10589c:	c7 44 24 04 80 3a 10 	movl   $0x103a80,0x4(%esp)
  1058a3:	00 
  1058a4:	c7 04 24 0d 00 00 00 	movl   $0xd,(%esp)
  1058ab:	e8 d7 cf ff ff       	call   102887 <syscall_install_handler>
  1058b0:	c7 44 24 04 af 3a 10 	movl   $0x103aaf,0x4(%esp)
  1058b7:	00 
  1058b8:	c7 04 24 0e 00 00 00 	movl   $0xe,(%esp)
  1058bf:	e8 c3 cf ff ff       	call   102887 <syscall_install_handler>
  1058c4:	c7 44 24 04 e7 3a 10 	movl   $0x103ae7,0x4(%esp)
  1058cb:	00 
  1058cc:	c7 04 24 0f 00 00 00 	movl   $0xf,(%esp)
  1058d3:	e8 af cf ff ff       	call   102887 <syscall_install_handler>
  1058d8:	c7 44 24 04 0a 4e 10 	movl   $0x104e0a,0x4(%esp)
  1058df:	00 
  1058e0:	c7 04 24 10 00 00 00 	movl   $0x10,(%esp)
  1058e7:	e8 9b cf ff ff       	call   102887 <syscall_install_handler>
  1058ec:	c7 44 24 04 f8 4f 10 	movl   $0x104ff8,0x4(%esp)
  1058f3:	00 
  1058f4:	c7 04 24 11 00 00 00 	movl   $0x11,(%esp)
  1058fb:	e8 87 cf ff ff       	call   102887 <syscall_install_handler>
  105900:	c7 44 24 04 f9 4f 10 	movl   $0x104ff9,0x4(%esp)
  105907:	00 
  105908:	c7 04 24 12 00 00 00 	movl   $0x12,(%esp)
  10590f:	e8 73 cf ff ff       	call   102887 <syscall_install_handler>
  105914:	c7 44 24 04 98 5d 10 	movl   $0x105d98,0x4(%esp)
  10591b:	00 
  10591c:	c7 04 24 13 00 00 00 	movl   $0x13,(%esp)
  105923:	e8 5f cf ff ff       	call   102887 <syscall_install_handler>
  105928:	c7 44 24 04 e1 51 10 	movl   $0x1051e1,0x4(%esp)
  10592f:	00 
  105930:	c7 04 24 14 00 00 00 	movl   $0x14,(%esp)
  105937:	e8 4b cf ff ff       	call   102887 <syscall_install_handler>
  10593c:	c7 44 24 04 06 52 10 	movl   $0x105206,0x4(%esp)
  105943:	00 
  105944:	c7 04 24 15 00 00 00 	movl   $0x15,(%esp)
  10594b:	e8 37 cf ff ff       	call   102887 <syscall_install_handler>
  105950:	c7 44 24 04 07 52 10 	movl   $0x105207,0x4(%esp)
  105957:	00 
  105958:	c7 04 24 16 00 00 00 	movl   $0x16,(%esp)
  10595f:	e8 23 cf ff ff       	call   102887 <syscall_install_handler>
  105964:	c7 44 24 04 2a 52 10 	movl   $0x10522a,0x4(%esp)
  10596b:	00 
  10596c:	c7 04 24 17 00 00 00 	movl   $0x17,(%esp)
  105973:	e8 0f cf ff ff       	call   102887 <syscall_install_handler>
  105978:	c7 44 24 04 2b 52 10 	movl   $0x10522b,0x4(%esp)
  10597f:	00 
  105980:	c7 04 24 18 00 00 00 	movl   $0x18,(%esp)
  105987:	e8 fb ce ff ff       	call   102887 <syscall_install_handler>
  10598c:	c7 44 24 04 28 57 10 	movl   $0x105728,0x4(%esp)
  105993:	00 
  105994:	c7 04 24 19 00 00 00 	movl   $0x19,(%esp)
  10599b:	e8 e7 ce ff ff       	call   102887 <syscall_install_handler>
  1059a0:	c7 44 24 04 29 57 10 	movl   $0x105729,0x4(%esp)
  1059a7:	00 
  1059a8:	c7 04 24 1a 00 00 00 	movl   $0x1a,(%esp)
  1059af:	e8 d3 ce ff ff       	call   102887 <syscall_install_handler>
  1059b4:	c7 44 24 04 2a 57 10 	movl   $0x10572a,0x4(%esp)
  1059bb:	00 
  1059bc:	c7 04 24 1b 00 00 00 	movl   $0x1b,(%esp)
  1059c3:	e8 bf ce ff ff       	call   102887 <syscall_install_handler>
  1059c8:	c7 44 24 04 2c 52 10 	movl   $0x10522c,0x4(%esp)
  1059cf:	00 
  1059d0:	c7 04 24 1c 00 00 00 	movl   $0x1c,(%esp)
  1059d7:	e8 ab ce ff ff       	call   102887 <syscall_install_handler>
  1059dc:	c7 44 24 04 10 53 10 	movl   $0x105310,0x4(%esp)
  1059e3:	00 
  1059e4:	c7 04 24 1d 00 00 00 	movl   $0x1d,(%esp)
  1059eb:	e8 97 ce ff ff       	call   102887 <syscall_install_handler>
  1059f0:	c7 44 24 04 aa 53 10 	movl   $0x1053aa,0x4(%esp)
  1059f7:	00 
  1059f8:	c7 04 24 1e 00 00 00 	movl   $0x1e,(%esp)
  1059ff:	e8 83 ce ff ff       	call   102887 <syscall_install_handler>
  105a04:	c7 44 24 04 88 54 10 	movl   $0x105488,0x4(%esp)
  105a0b:	00 
  105a0c:	c7 04 24 1f 00 00 00 	movl   $0x1f,(%esp)
  105a13:	e8 6f ce ff ff       	call   102887 <syscall_install_handler>
  105a18:	c7 44 24 04 1a 55 10 	movl   $0x10551a,0x4(%esp)
  105a1f:	00 
  105a20:	c7 04 24 20 00 00 00 	movl   $0x20,(%esp)
  105a27:	e8 5b ce ff ff       	call   102887 <syscall_install_handler>
  105a2c:	c7 44 24 04 df 55 10 	movl   $0x1055df,0x4(%esp)
  105a33:	00 
  105a34:	c7 04 24 21 00 00 00 	movl   $0x21,(%esp)
  105a3b:	e8 47 ce ff ff       	call   102887 <syscall_install_handler>
  105a40:	c7 44 24 04 42 56 10 	movl   $0x105642,0x4(%esp)
  105a47:	00 
  105a48:	c7 04 24 22 00 00 00 	movl   $0x22,(%esp)
  105a4f:	e8 33 ce ff ff       	call   102887 <syscall_install_handler>
  105a54:	c7 44 24 04 99 56 10 	movl   $0x105699,0x4(%esp)
  105a5b:	00 
  105a5c:	c7 04 24 23 00 00 00 	movl   $0x23,(%esp)
  105a63:	e8 1f ce ff ff       	call   102887 <syscall_install_handler>
  105a68:	83 c4 1c             	add    $0x1c,%esp
  105a6b:	c3                   	ret    

00105a6c <test3_process_run>:
  105a6c:	83 ec 1c             	sub    $0x1c,%esp
  105a6f:	c7 04 24 78 97 10 00 	movl   $0x109778,(%esp)
  105a76:	e8 5b f2 ff ff       	call   104cd6 <kprintf>
  105a7b:	eb f2                	jmp    105a6f <test3_process_run+0x3>

00105a7d <test2_process_run>:
  105a7d:	83 ec 1c             	sub    $0x1c,%esp
  105a80:	c7 04 24 88 97 10 00 	movl   $0x109788,(%esp)
  105a87:	e8 4a f2 ff ff       	call   104cd6 <kprintf>
  105a8c:	eb f2                	jmp    105a80 <test2_process_run+0x3>

00105a8e <test_process_run>:
  105a8e:	83 ec 1c             	sub    $0x1c,%esp
  105a91:	c7 04 24 98 97 10 00 	movl   $0x109798,(%esp)
  105a98:	e8 39 f2 ff ff       	call   104cd6 <kprintf>
  105a9d:	eb f2                	jmp    105a91 <test_process_run+0x3>

00105a9f <kernel_process_run>:
  105a9f:	83 ec 1c             	sub    $0x1c,%esp
  105aa2:	c7 04 24 a6 97 10 00 	movl   $0x1097a6,(%esp)
  105aa9:	e8 28 f2 ff ff       	call   104cd6 <kprintf>
  105aae:	eb f2                	jmp    105aa2 <kernel_process_run+0x3>

00105ab0 <switch_tasks_roundrobin>:
  105ab0:	55                   	push   %ebp
  105ab1:	57                   	push   %edi
  105ab2:	56                   	push   %esi
  105ab3:	53                   	push   %ebx
  105ab4:	83 ec 2c             	sub    $0x2c,%esp
  105ab7:	a1 a0 b3 11 00       	mov    0x11b3a0,%eax
  105abc:	8b 00                	mov    (%eax),%eax
  105abe:	8b 50 08             	mov    0x8(%eax),%edx
  105ac1:	8b 40 08             	mov    0x8(%eax),%eax
  105ac4:	8b 12                	mov    (%edx),%edx
  105ac6:	89 54 24 08          	mov    %edx,0x8(%esp)
  105aca:	89 44 24 04          	mov    %eax,0x4(%esp)
  105ace:	c7 04 24 54 97 10 00 	movl   $0x109754,(%esp)
  105ad5:	e8 fc f1 ff ff       	call   104cd6 <kprintf>
  105ada:	e8 08 f7 ff ff       	call   1051e7 <getprocess>
  105adf:	89 c7                	mov    %eax,%edi
  105ae1:	e8 86 03 00 00       	call   105e6c <getthread>
  105ae6:	89 c6                	mov    %eax,%esi
  105ae8:	e8 f4 f6 ff ff       	call   1051e1 <getpid>
  105aed:	89 c5                	mov    %eax,%ebp
  105aef:	e8 72 03 00 00       	call   105e66 <gettid>
  105af4:	89 44 24 1c          	mov    %eax,0x1c(%esp)
  105af8:	e8 03 f7 ff ff       	call   105200 <getnumpids>
  105afd:	89 c3                	mov    %eax,%ebx
  105aff:	85 c0                	test   %eax,%eax
  105b01:	0f 84 c9 00 00 00    	je     105bd0 <switch_tasks_roundrobin+0x120>
  105b07:	f6 05 09 aa 11 00 02 	testb  $0x2,0x11aa09
  105b0e:	0f 84 bc 00 00 00    	je     105bd0 <switch_tasks_roundrobin+0x120>
  105b14:	89 7c 24 04          	mov    %edi,0x4(%esp)
  105b18:	c7 04 24 b6 97 10 00 	movl   $0x1097b6,(%esp)
  105b1f:	e8 b2 f1 ff ff       	call   104cd6 <kprintf>
  105b24:	89 74 24 04          	mov    %esi,0x4(%esp)
  105b28:	c7 04 24 c7 97 10 00 	movl   $0x1097c7,(%esp)
  105b2f:	e8 a2 f1 ff ff       	call   104cd6 <kprintf>
  105b34:	8b 46 04             	mov    0x4(%esi),%eax
  105b37:	89 44 24 04          	mov    %eax,0x4(%esp)
  105b3b:	c7 04 24 d7 97 10 00 	movl   $0x1097d7,(%esp)
  105b42:	e8 8f f1 ff ff       	call   104cd6 <kprintf>
  105b47:	8b 44 24 40          	mov    0x40(%esp),%eax
  105b4b:	89 44 24 04          	mov    %eax,0x4(%esp)
  105b4f:	8b 46 04             	mov    0x4(%esi),%eax
  105b52:	89 04 24             	mov    %eax,(%esp)
  105b55:	e8 f3 c2 ff ff       	call   101e4d <copy_registers>
  105b5a:	8b 74 24 1c          	mov    0x1c(%esp),%esi
  105b5e:	46                   	inc    %esi
  105b5f:	89 6c 24 1c          	mov    %ebp,0x1c(%esp)
  105b63:	3b 77 0c             	cmp    0xc(%edi),%esi
  105b66:	72 1d                	jb     105b85 <switch_tasks_roundrobin+0xd5>
  105b68:	45                   	inc    %ebp
  105b69:	89 6c 24 1c          	mov    %ebp,0x1c(%esp)
  105b6d:	39 dd                	cmp    %ebx,%ebp
  105b6f:	74 07                	je     105b78 <switch_tasks_roundrobin+0xc8>
  105b71:	be 00 00 00 00       	mov    $0x0,%esi
  105b76:	eb 0d                	jmp    105b85 <switch_tasks_roundrobin+0xd5>
  105b78:	be 00 00 00 00       	mov    $0x0,%esi
  105b7d:	c7 44 24 1c 00 00 00 	movl   $0x0,0x1c(%esp)
  105b84:	00 
  105b85:	89 74 24 08          	mov    %esi,0x8(%esp)
  105b89:	8b 44 24 1c          	mov    0x1c(%esp),%eax
  105b8d:	89 44 24 04          	mov    %eax,0x4(%esp)
  105b91:	c7 04 24 ef 97 10 00 	movl   $0x1097ef,(%esp)
  105b98:	e8 39 f1 ff ff       	call   104cd6 <kprintf>
  105b9d:	a1 a0 b3 11 00       	mov    0x11b3a0,%eax
  105ba2:	8b 00                	mov    (%eax),%eax
  105ba4:	8b 50 08             	mov    0x8(%eax),%edx
  105ba7:	8b 40 08             	mov    0x8(%eax),%eax
  105baa:	8b 12                	mov    (%edx),%edx
  105bac:	89 54 24 08          	mov    %edx,0x8(%esp)
  105bb0:	89 44 24 04          	mov    %eax,0x4(%esp)
  105bb4:	c7 04 24 54 97 10 00 	movl   $0x109754,(%esp)
  105bbb:	e8 16 f1 ff ff       	call   104cd6 <kprintf>
  105bc0:	89 74 24 04          	mov    %esi,0x4(%esp)
  105bc4:	8b 44 24 1c          	mov    0x1c(%esp),%eax
  105bc8:	89 04 24             	mov    %eax,(%esp)
  105bcb:	e8 84 f5 ff ff       	call   105154 <switchpid>
  105bd0:	83 c4 2c             	add    $0x2c,%esp
  105bd3:	5b                   	pop    %ebx
  105bd4:	5e                   	pop    %esi
  105bd5:	5f                   	pop    %edi
  105bd6:	5d                   	pop    %ebp
  105bd7:	c3                   	ret    

00105bd8 <enable_task_switching>:
  105bd8:	80 0d 09 aa 11 00 02 	orb    $0x2,0x11aa09
  105bdf:	c3                   	ret    

00105be0 <init_multitasking>:
  105be0:	83 ec 1c             	sub    $0x1c,%esp
  105be3:	fa                   	cli    
  105be4:	e8 97 f1 ff ff       	call   104d80 <init_processes>
  105be9:	e8 32 01 00 00       	call   105d20 <init_threads>
  105bee:	c7 44 24 0c 00 04 00 	movl   $0x400,0xc(%esp)
  105bf5:	00 
  105bf6:	c7 44 24 08 00 00 00 	movl   $0x0,0x8(%esp)
  105bfd:	00 
  105bfe:	c7 44 24 04 9f 5a 10 	movl   $0x105a9f,0x4(%esp)
  105c05:	00 
  105c06:	c7 04 24 00 98 10 00 	movl   $0x109800,(%esp)
  105c0d:	e8 e7 f3 ff ff       	call   104ff9 <create_process>
  105c12:	8b 15 e4 a5 11 00    	mov    0x11a5e4,%edx
  105c18:	89 50 10             	mov    %edx,0x10(%eax)
  105c1b:	c7 44 24 0c 00 04 00 	movl   $0x400,0xc(%esp)
  105c22:	00 
  105c23:	c7 44 24 08 00 00 00 	movl   $0x0,0x8(%esp)
  105c2a:	00 
  105c2b:	c7 44 24 04 8e 5a 10 	movl   $0x105a8e,0x4(%esp)
  105c32:	00 
  105c33:	c7 04 24 0f 98 10 00 	movl   $0x10980f,(%esp)
  105c3a:	e8 ba f3 ff ff       	call   104ff9 <create_process>
  105c3f:	8b 15 e4 a5 11 00    	mov    0x11a5e4,%edx
  105c45:	89 50 10             	mov    %edx,0x10(%eax)
  105c48:	c7 44 24 0c 00 04 00 	movl   $0x400,0xc(%esp)
  105c4f:	00 
  105c50:	c7 44 24 08 00 00 00 	movl   $0x0,0x8(%esp)
  105c57:	00 
  105c58:	c7 44 24 04 7d 5a 10 	movl   $0x105a7d,0x4(%esp)
  105c5f:	00 
  105c60:	c7 04 24 1c 98 10 00 	movl   $0x10981c,(%esp)
  105c67:	e8 8d f3 ff ff       	call   104ff9 <create_process>
  105c6c:	8b 15 e4 a5 11 00    	mov    0x11a5e4,%edx
  105c72:	89 50 10             	mov    %edx,0x10(%eax)
  105c75:	c7 44 24 0c 00 04 00 	movl   $0x400,0xc(%esp)
  105c7c:	00 
  105c7d:	c7 44 24 08 00 00 00 	movl   $0x0,0x8(%esp)
  105c84:	00 
  105c85:	c7 44 24 04 6c 5a 10 	movl   $0x105a6c,0x4(%esp)
  105c8c:	00 
  105c8d:	c7 04 24 2b 98 10 00 	movl   $0x10982b,(%esp)
  105c94:	e8 60 f3 ff ff       	call   104ff9 <create_process>
  105c99:	8b 15 e4 a5 11 00    	mov    0x11a5e4,%edx
  105c9f:	89 50 10             	mov    %edx,0x10(%eax)
  105ca2:	e8 31 ff ff ff       	call   105bd8 <enable_task_switching>
  105ca7:	e8 3e fa ff ff       	call   1056ea <init_semaphores>
  105cac:	a1 a0 b3 11 00       	mov    0x11b3a0,%eax
  105cb1:	8b 00                	mov    (%eax),%eax
  105cb3:	8b 50 08             	mov    0x8(%eax),%edx
  105cb6:	8b 40 08             	mov    0x8(%eax),%eax
  105cb9:	8b 12                	mov    (%edx),%edx
  105cbb:	89 54 24 08          	mov    %edx,0x8(%esp)
  105cbf:	89 44 24 04          	mov    %eax,0x4(%esp)
  105cc3:	c7 04 24 54 97 10 00 	movl   $0x109754,(%esp)
  105cca:	e8 07 f0 ff ff       	call   104cd6 <kprintf>
  105ccf:	c7 44 24 04 00 8a 00 	movl   $0x8a00,0x4(%esp)
  105cd6:	00 
  105cd7:	c7 04 24 00 8a 00 00 	movl   $0x8a00,(%esp)
  105cde:	e8 ee ca ff ff       	call   1027d1 <outportw>
  105ce3:	c7 44 24 04 e0 8a 00 	movl   $0x8ae0,0x4(%esp)
  105cea:	00 
  105ceb:	c7 04 24 00 8a 00 00 	movl   $0x8a00,(%esp)
  105cf2:	e8 da ca ff ff       	call   1027d1 <outportw>
  105cf7:	c7 44 24 04 00 00 00 	movl   $0x0,0x4(%esp)
  105cfe:	00 
  105cff:	c7 04 24 00 00 00 00 	movl   $0x0,(%esp)
  105d06:	e8 49 f4 ff ff       	call   105154 <switchpid>
  105d0b:	83 c4 1c             	add    $0x1c,%esp
  105d0e:	c3                   	ret    

00105d0f <disable_task_switching>:
  105d0f:	80 25 09 aa 11 00 fd 	andb   $0xfd,0x11aa09
  105d16:	c3                   	ret    

00105d17 <getring>:
  105d17:	a0 08 aa 11 00       	mov    0x11aa08,%al
  105d1c:	c3                   	ret    
  105d1d:	66 90                	xchg   %ax,%ax
  105d1f:	90                   	nop

00105d20 <init_threads>:
  105d20:	83 ec 1c             	sub    $0x1c,%esp
  105d23:	a1 8c a0 10 00       	mov    0x10a08c,%eax
  105d28:	8d 04 80             	lea    (%eax,%eax,4),%eax
  105d2b:	c1 e0 02             	shl    $0x2,%eax
  105d2e:	89 04 24             	mov    %eax,(%esp)
  105d31:	e8 51 e1 ff ff       	call   103e87 <kmalloc>
  105d36:	a3 b4 b3 11 00       	mov    %eax,0x11b3b4
  105d3b:	8b 15 8c a0 10 00    	mov    0x10a08c,%edx
  105d41:	8d 14 92             	lea    (%edx,%edx,4),%edx
  105d44:	c1 e2 02             	shl    $0x2,%edx
  105d47:	89 54 24 08          	mov    %edx,0x8(%esp)
  105d4b:	c7 44 24 04 00 00 00 	movl   $0x0,0x4(%esp)
  105d52:	00 
  105d53:	89 04 24             	mov    %eax,(%esp)
  105d56:	e8 62 15 00 00       	call   1072bd <memset>
  105d5b:	83 c4 1c             	add    $0x1c,%esp
  105d5e:	c3                   	ret    

00105d5f <find_first_tid>:
  105d5f:	8b 15 8c a0 10 00    	mov    0x10a08c,%edx
  105d65:	85 d2                	test   %edx,%edx
  105d67:	74 29                	je     105d92 <find_first_tid+0x33>
  105d69:	8b 0d b4 b3 11 00    	mov    0x11b3b4,%ecx
  105d6f:	83 39 00             	cmpl   $0x0,(%ecx)
  105d72:	74 18                	je     105d8c <find_first_tid+0x2d>
  105d74:	b8 00 00 00 00       	mov    $0x0,%eax
  105d79:	eb 06                	jmp    105d81 <find_first_tid+0x22>
  105d7b:	83 3c 81 00          	cmpl   $0x0,(%ecx,%eax,4)
  105d7f:	74 16                	je     105d97 <find_first_tid+0x38>
  105d81:	40                   	inc    %eax
  105d82:	39 d0                	cmp    %edx,%eax
  105d84:	75 f5                	jne    105d7b <find_first_tid+0x1c>
  105d86:	b8 ff ff ff ff       	mov    $0xffffffff,%eax
  105d8b:	c3                   	ret    
  105d8c:	b8 00 00 00 00       	mov    $0x0,%eax
  105d91:	c3                   	ret    
  105d92:	b8 ff ff ff ff       	mov    $0xffffffff,%eax
  105d97:	c3                   	ret    

00105d98 <create_thread>:
  105d98:	57                   	push   %edi
  105d99:	56                   	push   %esi
  105d9a:	53                   	push   %ebx
  105d9b:	83 ec 10             	sub    $0x10,%esp
  105d9e:	8b 74 24 20          	mov    0x20(%esp),%esi
  105da2:	c7 04 24 14 00 00 00 	movl   $0x14,(%esp)
  105da9:	e8 d9 e0 ff ff       	call   103e87 <kmalloc>
  105dae:	89 c7                	mov    %eax,%edi
  105db0:	c7 44 24 08 14 00 00 	movl   $0x14,0x8(%esp)
  105db7:	00 
  105db8:	c7 44 24 04 00 00 00 	movl   $0x0,0x4(%esp)
  105dbf:	00 
  105dc0:	89 04 24             	mov    %eax,(%esp)
  105dc3:	e8 f5 14 00 00       	call   1072bd <memset>
  105dc8:	8b 46 0c             	mov    0xc(%esi),%eax
  105dcb:	8d 04 85 04 00 00 00 	lea    0x4(,%eax,4),%eax
  105dd2:	89 44 24 04          	mov    %eax,0x4(%esp)
  105dd6:	8b 46 08             	mov    0x8(%esi),%eax
  105dd9:	89 04 24             	mov    %eax,(%esp)
  105ddc:	e8 36 e5 ff ff       	call   104317 <krealloc>
  105de1:	89 46 08             	mov    %eax,0x8(%esi)
  105de4:	8b 56 0c             	mov    0xc(%esi),%edx
  105de7:	c7 04 90 00 00 00 00 	movl   $0x0,(%eax,%edx,4)
  105dee:	8b 56 0c             	mov    0xc(%esi),%edx
  105df1:	42                   	inc    %edx
  105df2:	89 56 0c             	mov    %edx,0xc(%esi)
  105df5:	85 d2                	test   %edx,%edx
  105df7:	74 1c                	je     105e15 <create_thread+0x7d>
  105df9:	8b 46 08             	mov    0x8(%esi),%eax
  105dfc:	83 38 00             	cmpl   $0x0,(%eax)
  105dff:	74 1b                	je     105e1c <create_thread+0x84>
  105e01:	bb 00 00 00 00       	mov    $0x0,%ebx
  105e06:	eb 06                	jmp    105e0e <create_thread+0x76>
  105e08:	83 3c 98 00          	cmpl   $0x0,(%eax,%ebx,4)
  105e0c:	74 13                	je     105e21 <create_thread+0x89>
  105e0e:	43                   	inc    %ebx
  105e0f:	39 da                	cmp    %ebx,%edx
  105e11:	75 f5                	jne    105e08 <create_thread+0x70>
  105e13:	eb 0c                	jmp    105e21 <create_thread+0x89>
  105e15:	bb 00 00 00 00       	mov    $0x0,%ebx
  105e1a:	eb 05                	jmp    105e21 <create_thread+0x89>
  105e1c:	bb 00 00 00 00       	mov    $0x0,%ebx
  105e21:	89 1f                	mov    %ebx,(%edi)
  105e23:	e8 ef fe ff ff       	call   105d17 <getring>
  105e28:	25 ff 00 00 00       	and    $0xff,%eax
  105e2d:	89 44 24 04          	mov    %eax,0x4(%esp)
  105e31:	8b 44 24 24          	mov    0x24(%esp),%eax
  105e35:	89 04 24             	mov    %eax,(%esp)
  105e38:	e8 5a bf ff ff       	call   101d97 <create_registers>
  105e3d:	89 47 04             	mov    %eax,0x4(%edi)
  105e40:	c7 04 24 00 00 01 00 	movl   $0x10000,(%esp)
  105e47:	e8 7f e1 ff ff       	call   103fcb <kmalloc_a>
  105e4c:	05 00 00 01 00       	add    $0x10000,%eax
  105e51:	89 47 0c             	mov    %eax,0xc(%edi)
  105e54:	89 77 10             	mov    %esi,0x10(%edi)
  105e57:	8b 46 08             	mov    0x8(%esi),%eax
  105e5a:	89 3c 98             	mov    %edi,(%eax,%ebx,4)
  105e5d:	89 f8                	mov    %edi,%eax
  105e5f:	83 c4 10             	add    $0x10,%esp
  105e62:	5b                   	pop    %ebx
  105e63:	5e                   	pop    %esi
  105e64:	5f                   	pop    %edi
  105e65:	c3                   	ret    

00105e66 <gettid>:
  105e66:	a1 10 aa 11 00       	mov    0x11aa10,%eax
  105e6b:	c3                   	ret    

00105e6c <getthread>:
  105e6c:	83 ec 0c             	sub    $0xc,%esp
  105e6f:	e8 73 f3 ff ff       	call   1051e7 <getprocess>
  105e74:	8b 15 10 aa 11 00    	mov    0x11aa10,%edx
  105e7a:	8b 40 08             	mov    0x8(%eax),%eax
  105e7d:	8b 04 90             	mov    (%eax,%edx,4),%eax
  105e80:	83 c4 0c             	add    $0xc,%esp
  105e83:	c3                   	ret    

00105e84 <settid>:
  105e84:	8b 44 24 04          	mov    0x4(%esp),%eax
  105e88:	a3 10 aa 11 00       	mov    %eax,0x11aa10
  105e8d:	c3                   	ret    
  105e8e:	66 90                	xchg   %ax,%ax

00105e90 <get_root>:
  105e90:	a1 cc b3 11 00       	mov    0x11b3cc,%eax
  105e95:	c3                   	ret    

00105e96 <get_dev>:
  105e96:	a1 c4 b3 11 00       	mov    0x11b3c4,%eax
  105e9b:	c3                   	ret    

00105e9c <create_fs>:
  105e9c:	53                   	push   %ebx
  105e9d:	83 ec 18             	sub    $0x18,%esp
  105ea0:	c7 04 24 70 00 00 00 	movl   $0x70,(%esp)
  105ea7:	e8 db df ff ff       	call   103e87 <kmalloc>
  105eac:	89 c3                	mov    %eax,%ebx
  105eae:	c7 44 24 08 70 00 00 	movl   $0x70,0x8(%esp)
  105eb5:	00 
  105eb6:	c7 44 24 04 00 00 00 	movl   $0x0,0x4(%esp)
  105ebd:	00 
  105ebe:	89 04 24             	mov    %eax,(%esp)
  105ec1:	e8 f7 13 00 00       	call   1072bd <memset>
  105ec6:	89 d8                	mov    %ebx,%eax
  105ec8:	83 c4 18             	add    $0x18,%esp
  105ecb:	5b                   	pop    %ebx
  105ecc:	c3                   	ret    

00105ecd <close_fs>:
  105ecd:	83 ec 1c             	sub    $0x1c,%esp
  105ed0:	8b 54 24 20          	mov    0x20(%esp),%edx
  105ed4:	8b 42 40             	mov    0x40(%edx),%eax
  105ed7:	85 c0                	test   %eax,%eax
  105ed9:	74 07                	je     105ee2 <close_fs+0x15>
  105edb:	89 14 24             	mov    %edx,(%esp)
  105ede:	ff d0                	call   *%eax
  105ee0:	eb 05                	jmp    105ee7 <close_fs+0x1a>
  105ee2:	b8 ff ff ff ff       	mov    $0xffffffff,%eax
  105ee7:	83 c4 1c             	add    $0x1c,%esp
  105eea:	c3                   	ret    

00105eeb <read_fs>:
  105eeb:	83 ec 1c             	sub    $0x1c,%esp
  105eee:	8b 44 24 20          	mov    0x20(%esp),%eax
  105ef2:	8a 50 10             	mov    0x10(%eax),%dl
  105ef5:	80 fa 06             	cmp    $0x6,%dl
  105ef8:	74 0b                	je     105f05 <read_fs+0x1a>
  105efa:	80 fa 07             	cmp    $0x7,%dl
  105efd:	75 09                	jne    105f08 <read_fs+0x1d>
  105eff:	83 78 6c 00          	cmpl   $0x0,0x6c(%eax)
  105f03:	74 03                	je     105f08 <read_fs+0x1d>
  105f05:	8b 40 6c             	mov    0x6c(%eax),%eax
  105f08:	8b 50 44             	mov    0x44(%eax),%edx
  105f0b:	85 d2                	test   %edx,%edx
  105f0d:	74 17                	je     105f26 <read_fs+0x3b>
  105f0f:	8b 4c 24 28          	mov    0x28(%esp),%ecx
  105f13:	89 4c 24 08          	mov    %ecx,0x8(%esp)
  105f17:	8b 4c 24 24          	mov    0x24(%esp),%ecx
  105f1b:	89 4c 24 04          	mov    %ecx,0x4(%esp)
  105f1f:	89 04 24             	mov    %eax,(%esp)
  105f22:	ff d2                	call   *%edx
  105f24:	eb 05                	jmp    105f2b <read_fs+0x40>
  105f26:	b8 ff ff ff ff       	mov    $0xffffffff,%eax
  105f2b:	83 c4 1c             	add    $0x1c,%esp
  105f2e:	c3                   	ret    

00105f2f <write_fs>:
  105f2f:	83 ec 1c             	sub    $0x1c,%esp
  105f32:	8b 44 24 20          	mov    0x20(%esp),%eax
  105f36:	8a 50 10             	mov    0x10(%eax),%dl
  105f39:	80 fa 06             	cmp    $0x6,%dl
  105f3c:	74 0b                	je     105f49 <write_fs+0x1a>
  105f3e:	80 fa 07             	cmp    $0x7,%dl
  105f41:	75 09                	jne    105f4c <write_fs+0x1d>
  105f43:	83 78 6c 00          	cmpl   $0x0,0x6c(%eax)
  105f47:	74 03                	je     105f4c <write_fs+0x1d>
  105f49:	8b 40 6c             	mov    0x6c(%eax),%eax
  105f4c:	8b 50 48             	mov    0x48(%eax),%edx
  105f4f:	85 d2                	test   %edx,%edx
  105f51:	74 17                	je     105f6a <write_fs+0x3b>
  105f53:	8b 4c 24 28          	mov    0x28(%esp),%ecx
  105f57:	89 4c 24 08          	mov    %ecx,0x8(%esp)
  105f5b:	8b 4c 24 24          	mov    0x24(%esp),%ecx
  105f5f:	89 4c 24 04          	mov    %ecx,0x4(%esp)
  105f63:	89 04 24             	mov    %eax,(%esp)
  105f66:	ff d2                	call   *%edx
  105f68:	eb 05                	jmp    105f6f <write_fs+0x40>
  105f6a:	b8 ff ff ff ff       	mov    $0xffffffff,%eax
  105f6f:	83 c4 1c             	add    $0x1c,%esp
  105f72:	c3                   	ret    

00105f73 <seek_fs>:
  105f73:	83 ec 1c             	sub    $0x1c,%esp
  105f76:	8b 44 24 20          	mov    0x20(%esp),%eax
  105f7a:	8a 50 10             	mov    0x10(%eax),%dl
  105f7d:	80 fa 06             	cmp    $0x6,%dl
  105f80:	74 0b                	je     105f8d <seek_fs+0x1a>
  105f82:	80 fa 07             	cmp    $0x7,%dl
  105f85:	75 09                	jne    105f90 <seek_fs+0x1d>
  105f87:	83 78 6c 00          	cmpl   $0x0,0x6c(%eax)
  105f8b:	74 03                	je     105f90 <seek_fs+0x1d>
  105f8d:	8b 40 6c             	mov    0x6c(%eax),%eax
  105f90:	8b 50 4c             	mov    0x4c(%eax),%edx
  105f93:	85 d2                	test   %edx,%edx
  105f95:	74 17                	je     105fae <seek_fs+0x3b>
  105f97:	8b 4c 24 28          	mov    0x28(%esp),%ecx
  105f9b:	89 4c 24 08          	mov    %ecx,0x8(%esp)
  105f9f:	8b 4c 24 24          	mov    0x24(%esp),%ecx
  105fa3:	89 4c 24 04          	mov    %ecx,0x4(%esp)
  105fa7:	89 04 24             	mov    %eax,(%esp)
  105faa:	ff d2                	call   *%edx
  105fac:	eb 05                	jmp    105fb3 <seek_fs+0x40>
  105fae:	b8 ff ff ff ff       	mov    $0xffffffff,%eax
  105fb3:	83 c4 1c             	add    $0x1c,%esp
  105fb6:	c3                   	ret    

00105fb7 <readdir_fs>:
  105fb7:	57                   	push   %edi
  105fb8:	56                   	push   %esi
  105fb9:	53                   	push   %ebx
  105fba:	83 ec 10             	sub    $0x10,%esp
  105fbd:	8b 5c 24 20          	mov    0x20(%esp),%ebx
  105fc1:	8b 7c 24 24          	mov    0x24(%esp),%edi
  105fc5:	39 7b 68             	cmp    %edi,0x68(%ebx)
  105fc8:	76 4e                	jbe    106018 <readdir_fs+0x61>
  105fca:	c7 04 24 08 00 00 00 	movl   $0x8,(%esp)
  105fd1:	e8 b1 de ff ff       	call   103e87 <kmalloc>
  105fd6:	89 c6                	mov    %eax,%esi
  105fd8:	c1 e7 02             	shl    $0x2,%edi
  105fdb:	8b 43 64             	mov    0x64(%ebx),%eax
  105fde:	8b 04 38             	mov    (%eax,%edi,1),%eax
  105fe1:	8b 00                	mov    (%eax),%eax
  105fe3:	89 04 24             	mov    %eax,(%esp)
  105fe6:	e8 59 13 00 00       	call   107344 <strlen>
  105feb:	40                   	inc    %eax
  105fec:	89 04 24             	mov    %eax,(%esp)
  105fef:	e8 93 de ff ff       	call   103e87 <kmalloc>
  105ff4:	89 06                	mov    %eax,(%esi)
  105ff6:	8b 53 64             	mov    0x64(%ebx),%edx
  105ff9:	8b 14 3a             	mov    (%edx,%edi,1),%edx
  105ffc:	8b 12                	mov    (%edx),%edx
  105ffe:	89 54 24 04          	mov    %edx,0x4(%esp)
  106002:	89 04 24             	mov    %eax,(%esp)
  106005:	e8 56 13 00 00       	call   107360 <strcpy>
  10600a:	8b 43 64             	mov    0x64(%ebx),%eax
  10600d:	8b 04 38             	mov    (%eax,%edi,1),%eax
  106010:	8b 40 30             	mov    0x30(%eax),%eax
  106013:	89 46 04             	mov    %eax,0x4(%esi)
  106016:	eb 05                	jmp    10601d <readdir_fs+0x66>
  106018:	be 00 00 00 00       	mov    $0x0,%esi
  10601d:	89 f0                	mov    %esi,%eax
  10601f:	83 c4 10             	add    $0x10,%esp
  106022:	5b                   	pop    %ebx
  106023:	5e                   	pop    %esi
  106024:	5f                   	pop    %edi
  106025:	c3                   	ret    

00106026 <finddir_fs>:
  106026:	55                   	push   %ebp
  106027:	57                   	push   %edi
  106028:	56                   	push   %esi
  106029:	53                   	push   %ebx
  10602a:	83 ec 1c             	sub    $0x1c,%esp
  10602d:	8b 74 24 30          	mov    0x30(%esp),%esi
  106031:	8b 6c 24 34          	mov    0x34(%esp),%ebp
  106035:	83 7e 68 00          	cmpl   $0x0,0x68(%esi)
  106039:	74 3c                	je     106077 <finddir_fs+0x51>
  10603b:	bf 00 00 00 00       	mov    $0x0,%edi
  106040:	bb 00 00 00 00       	mov    $0x0,%ebx
  106045:	c1 e7 02             	shl    $0x2,%edi
  106048:	89 6c 24 04          	mov    %ebp,0x4(%esp)
  10604c:	8b 46 64             	mov    0x64(%esi),%eax
  10604f:	8b 04 38             	mov    (%eax,%edi,1),%eax
  106052:	8b 00                	mov    (%eax),%eax
  106054:	89 04 24             	mov    %eax,(%esp)
  106057:	e8 52 13 00 00       	call   1073ae <strequal>
  10605c:	84 c0                	test   %al,%al
  10605e:	74 08                	je     106068 <finddir_fs+0x42>
  106060:	8b 46 64             	mov    0x64(%esi),%eax
  106063:	8b 04 38             	mov    (%eax,%edi,1),%eax
  106066:	eb 14                	jmp    10607c <finddir_fs+0x56>
  106068:	43                   	inc    %ebx
  106069:	89 df                	mov    %ebx,%edi
  10606b:	3b 5e 68             	cmp    0x68(%esi),%ebx
  10606e:	72 d5                	jb     106045 <finddir_fs+0x1f>
  106070:	b8 00 00 00 00       	mov    $0x0,%eax
  106075:	eb 05                	jmp    10607c <finddir_fs+0x56>
  106077:	b8 00 00 00 00       	mov    $0x0,%eax
  10607c:	83 c4 1c             	add    $0x1c,%esp
  10607f:	5b                   	pop    %ebx
  106080:	5e                   	pop    %esi
  106081:	5f                   	pop    %edi
  106082:	5d                   	pop    %ebp
  106083:	c3                   	ret    

00106084 <unlink_fs>:
  106084:	c3                   	ret    

00106085 <delete_fs>:
  106085:	c3                   	ret    

00106086 <rm_fs>:
  106086:	83 ec 08             	sub    $0x8,%esp
  106089:	8b 44 24 0c          	mov    0xc(%esp),%eax
  10608d:	f6 40 10 07          	testb  $0x7,0x10(%eax)
  106091:	75 12                	jne    1060a5 <rm_fs+0x1f>
  106093:	c7 44 24 04 00 00 00 	movl   $0x0,0x4(%esp)
  10609a:	00 
  10609b:	89 04 24             	mov    %eax,(%esp)
  10609e:	e8 e2 ff ff ff       	call   106085 <delete_fs>
  1060a3:	eb 00                	jmp    1060a5 <rm_fs+0x1f>
  1060a5:	83 c4 08             	add    $0x8,%esp
  1060a8:	c3                   	ret    

001060a9 <rmdir_fs>:
  1060a9:	83 ec 08             	sub    $0x8,%esp
  1060ac:	8b 44 24 0c          	mov    0xc(%esp),%eax
  1060b0:	8a 50 10             	mov    0x10(%eax),%dl
  1060b3:	83 e2 07             	and    $0x7,%edx
  1060b6:	80 fa 01             	cmp    $0x1,%dl
  1060b9:	75 18                	jne    1060d3 <rmdir_fs+0x2a>
  1060bb:	83 78 68 00          	cmpl   $0x0,0x68(%eax)
  1060bf:	75 12                	jne    1060d3 <rmdir_fs+0x2a>
  1060c1:	c7 44 24 04 00 00 00 	movl   $0x0,0x4(%esp)
  1060c8:	00 
  1060c9:	89 04 24             	mov    %eax,(%esp)
  1060cc:	e8 b4 ff ff ff       	call   106085 <delete_fs>
  1060d1:	eb 00                	jmp    1060d3 <rmdir_fs+0x2a>
  1060d3:	83 c4 08             	add    $0x8,%esp
  1060d6:	c3                   	ret    

001060d7 <rfrm_fs>:
  1060d7:	83 ec 08             	sub    $0x8,%esp
  1060da:	c7 44 24 04 01 00 00 	movl   $0x1,0x4(%esp)
  1060e1:	00 
  1060e2:	8b 44 24 0c          	mov    0xc(%esp),%eax
  1060e6:	89 04 24             	mov    %eax,(%esp)
  1060e9:	e8 97 ff ff ff       	call   106085 <delete_fs>
  1060ee:	83 c4 08             	add    $0x8,%esp
  1060f1:	c3                   	ret    

001060f2 <chown_fs>:
  1060f2:	53                   	push   %ebx
  1060f3:	83 ec 18             	sub    $0x18,%esp
  1060f6:	8b 44 24 20          	mov    0x20(%esp),%eax
  1060fa:	8b 4c 24 24          	mov    0x24(%esp),%ecx
  1060fe:	8b 5c 24 28          	mov    0x28(%esp),%ebx
  106102:	8a 50 10             	mov    0x10(%eax),%dl
  106105:	80 fa 06             	cmp    $0x6,%dl
  106108:	74 0b                	je     106115 <chown_fs+0x23>
  10610a:	80 fa 07             	cmp    $0x7,%dl
  10610d:	75 09                	jne    106118 <chown_fs+0x26>
  10610f:	83 78 6c 00          	cmpl   $0x0,0x6c(%eax)
  106113:	74 03                	je     106118 <chown_fs+0x26>
  106115:	8b 40 6c             	mov    0x6c(%eax),%eax
  106118:	89 48 08             	mov    %ecx,0x8(%eax)
  10611b:	89 58 0c             	mov    %ebx,0xc(%eax)
  10611e:	8b 50 60             	mov    0x60(%eax),%edx
  106121:	85 d2                	test   %edx,%edx
  106123:	74 0f                	je     106134 <chown_fs+0x42>
  106125:	89 5c 24 08          	mov    %ebx,0x8(%esp)
  106129:	89 4c 24 04          	mov    %ecx,0x4(%esp)
  10612d:	89 04 24             	mov    %eax,(%esp)
  106130:	ff d2                	call   *%edx
  106132:	eb 05                	jmp    106139 <chown_fs+0x47>
  106134:	b8 00 00 00 00       	mov    $0x0,%eax
  106139:	83 c4 18             	add    $0x18,%esp
  10613c:	5b                   	pop    %ebx
  10613d:	c3                   	ret    

0010613e <stat_fs>:
  10613e:	56                   	push   %esi
  10613f:	53                   	push   %ebx
  106140:	83 ec 14             	sub    $0x14,%esp
  106143:	8b 5c 24 20          	mov    0x20(%esp),%ebx
  106147:	8b 74 24 24          	mov    0x24(%esp),%esi
  10614b:	8a 43 10             	mov    0x10(%ebx),%al
  10614e:	3c 06                	cmp    $0x6,%al
  106150:	74 0a                	je     10615c <stat_fs+0x1e>
  106152:	3c 07                	cmp    $0x7,%al
  106154:	75 09                	jne    10615f <stat_fs+0x21>
  106156:	83 7b 6c 00          	cmpl   $0x0,0x6c(%ebx)
  10615a:	74 03                	je     10615f <stat_fs+0x21>
  10615c:	8b 5b 6c             	mov    0x6c(%ebx),%ebx
  10615f:	8b 43 30             	mov    0x30(%ebx),%eax
  106162:	89 46 04             	mov    %eax,0x4(%esi)
  106165:	8b 43 08             	mov    0x8(%ebx),%eax
  106168:	89 46 10             	mov    %eax,0x10(%esi)
  10616b:	8b 43 0c             	mov    0xc(%ebx),%eax
  10616e:	89 46 14             	mov    %eax,0x14(%esi)
  106171:	8b 43 34             	mov    0x34(%ebx),%eax
  106174:	89 46 1c             	mov    %eax,0x1c(%esi)
  106177:	8b 43 38             	mov    0x38(%ebx),%eax
  10617a:	89 46 20             	mov    %eax,0x20(%esi)
  10617d:	c7 44 24 04 00 02 00 	movl   $0x200,0x4(%esp)
  106184:	00 
  106185:	8b 43 34             	mov    0x34(%ebx),%eax
  106188:	89 04 24             	mov    %eax,(%esp)
  10618b:	e8 1e 0f 00 00       	call   1070ae <ceil>
  106190:	89 46 24             	mov    %eax,0x24(%esi)
  106193:	8b 43 20             	mov    0x20(%ebx),%eax
  106196:	89 46 28             	mov    %eax,0x28(%esi)
  106199:	8b 43 24             	mov    0x24(%ebx),%eax
  10619c:	89 46 2c             	mov    %eax,0x2c(%esi)
  10619f:	8b 43 28             	mov    0x28(%ebx),%eax
  1061a2:	89 46 30             	mov    %eax,0x30(%esi)
  1061a5:	b8 00 00 00 00       	mov    $0x0,%eax
  1061aa:	83 c4 14             	add    $0x14,%esp
  1061ad:	5b                   	pop    %ebx
  1061ae:	5e                   	pop    %esi
  1061af:	c3                   	ret    

001061b0 <mount_fs>:
  1061b0:	56                   	push   %esi
  1061b1:	53                   	push   %ebx
  1061b2:	83 ec 14             	sub    $0x14,%esp
  1061b5:	8b 74 24 20          	mov    0x20(%esp),%esi
  1061b9:	8b 1d c8 b3 11 00    	mov    0x11b3c8,%ebx
  1061bf:	eb 02                	jmp    1061c3 <mount_fs+0x13>
  1061c1:	89 c3                	mov    %eax,%ebx
  1061c3:	8b 43 08             	mov    0x8(%ebx),%eax
  1061c6:	85 c0                	test   %eax,%eax
  1061c8:	75 f7                	jne    1061c1 <mount_fs+0x11>
  1061ca:	89 34 24             	mov    %esi,(%esp)
  1061cd:	e8 72 11 00 00       	call   107344 <strlen>
  1061d2:	40                   	inc    %eax
  1061d3:	89 04 24             	mov    %eax,(%esp)
  1061d6:	e8 ac dc ff ff       	call   103e87 <kmalloc>
  1061db:	89 03                	mov    %eax,(%ebx)
  1061dd:	89 74 24 04          	mov    %esi,0x4(%esp)
  1061e1:	89 04 24             	mov    %eax,(%esp)
  1061e4:	e8 77 11 00 00       	call   107360 <strcpy>
  1061e9:	8b 44 24 24          	mov    0x24(%esp),%eax
  1061ed:	89 43 04             	mov    %eax,0x4(%ebx)
  1061f0:	c7 04 24 0c 00 00 00 	movl   $0xc,(%esp)
  1061f7:	e8 8b dc ff ff       	call   103e87 <kmalloc>
  1061fc:	89 43 08             	mov    %eax,0x8(%ebx)
  1061ff:	c7 40 08 00 00 00 00 	movl   $0x0,0x8(%eax)
  106206:	b8 00 00 00 00       	mov    $0x0,%eax
  10620b:	83 c4 14             	add    $0x14,%esp
  10620e:	5b                   	pop    %ebx
  10620f:	5e                   	pop    %esi
  106210:	c3                   	ret    

00106211 <umount_fs>:
  106211:	57                   	push   %edi
  106212:	56                   	push   %esi
  106213:	53                   	push   %ebx
  106214:	83 ec 10             	sub    $0x10,%esp
  106217:	8b 74 24 20          	mov    0x20(%esp),%esi
  10621b:	8b 1d c8 b3 11 00    	mov    0x11b3c8,%ebx
  106221:	eb 18                	jmp    10623b <umount_fs+0x2a>
  106223:	8b 5b 08             	mov    0x8(%ebx),%ebx
  106226:	85 db                	test   %ebx,%ebx
  106228:	74 26                	je     106250 <umount_fs+0x3f>
  10622a:	8b 43 08             	mov    0x8(%ebx),%eax
  10622d:	8b 78 08             	mov    0x8(%eax),%edi
  106230:	89 04 24             	mov    %eax,(%esp)
  106233:	e8 fd df ff ff       	call   104235 <kfree>
  106238:	89 7b 08             	mov    %edi,0x8(%ebx)
  10623b:	89 74 24 04          	mov    %esi,0x4(%esp)
  10623f:	8b 43 08             	mov    0x8(%ebx),%eax
  106242:	8b 00                	mov    (%eax),%eax
  106244:	89 04 24             	mov    %eax,(%esp)
  106247:	e8 62 11 00 00       	call   1073ae <strequal>
  10624c:	84 c0                	test   %al,%al
  10624e:	74 d3                	je     106223 <umount_fs+0x12>
  106250:	b8 00 00 00 00       	mov    $0x0,%eax
  106255:	83 c4 10             	add    $0x10,%esp
  106258:	5b                   	pop    %ebx
  106259:	5e                   	pop    %esi
  10625a:	5f                   	pop    %edi
  10625b:	c3                   	ret    

0010625c <check_mounted>:
  10625c:	56                   	push   %esi
  10625d:	53                   	push   %ebx
  10625e:	83 ec 14             	sub    $0x14,%esp
  106261:	8b 74 24 20          	mov    0x20(%esp),%esi
  106265:	8b 1d c8 b3 11 00    	mov    0x11b3c8,%ebx
  10626b:	eb 07                	jmp    106274 <check_mounted+0x18>
  10626d:	8b 5b 08             	mov    0x8(%ebx),%ebx
  106270:	85 db                	test   %ebx,%ebx
  106272:	74 16                	je     10628a <check_mounted+0x2e>
  106274:	89 74 24 04          	mov    %esi,0x4(%esp)
  106278:	8b 03                	mov    (%ebx),%eax
  10627a:	89 04 24             	mov    %eax,(%esp)
  10627d:	e8 2c 11 00 00       	call   1073ae <strequal>
  106282:	84 c0                	test   %al,%al
  106284:	74 e7                	je     10626d <check_mounted+0x11>
  106286:	b0 01                	mov    $0x1,%al
  106288:	eb 02                	jmp    10628c <check_mounted+0x30>
  10628a:	b0 00                	mov    $0x0,%al
  10628c:	83 c4 14             	add    $0x14,%esp
  10628f:	5b                   	pop    %ebx
  106290:	5e                   	pop    %esi
  106291:	c3                   	ret    

00106292 <dev_open>:
  106292:	53                   	push   %ebx
  106293:	83 ec 18             	sub    $0x18,%esp
  106296:	8b 5c 24 20          	mov    0x20(%esp),%ebx
  10629a:	c7 44 24 04 ab 95 10 	movl   $0x1095ab,0x4(%esp)
  1062a1:	00 
  1062a2:	8b 03                	mov    (%ebx),%eax
  1062a4:	89 04 24             	mov    %eax,(%esp)
  1062a7:	e8 02 11 00 00       	call   1073ae <strequal>
  1062ac:	84 c0                	test   %al,%al
  1062ae:	74 17                	je     1062c7 <dev_open+0x35>
  1062b0:	c6 43 10 01          	movb   $0x1,0x10(%ebx)
  1062b4:	a1 c4 b3 11 00       	mov    0x11b3c4,%eax
  1062b9:	8b 50 64             	mov    0x64(%eax),%edx
  1062bc:	89 53 64             	mov    %edx,0x64(%ebx)
  1062bf:	8b 40 68             	mov    0x68(%eax),%eax
  1062c2:	89 43 68             	mov    %eax,0x68(%ebx)
  1062c5:	eb 39                	jmp    106300 <dev_open+0x6e>
  1062c7:	8b 03                	mov    (%ebx),%eax
  1062c9:	89 44 24 04          	mov    %eax,0x4(%esp)
  1062cd:	a1 c4 b3 11 00       	mov    0x11b3c4,%eax
  1062d2:	89 04 24             	mov    %eax,(%esp)
  1062d5:	e8 4c fd ff ff       	call   106026 <finddir_fs>
  1062da:	8a 50 10             	mov    0x10(%eax),%dl
  1062dd:	88 53 10             	mov    %dl,0x10(%ebx)
  1062e0:	8a 50 18             	mov    0x18(%eax),%dl
  1062e3:	88 53 18             	mov    %dl,0x18(%ebx)
  1062e6:	8b 50 44             	mov    0x44(%eax),%edx
  1062e9:	89 53 44             	mov    %edx,0x44(%ebx)
  1062ec:	8b 40 48             	mov    0x48(%eax),%eax
  1062ef:	89 43 48             	mov    %eax,0x48(%ebx)
  1062f2:	c7 43 64 00 00 00 00 	movl   $0x0,0x64(%ebx)
  1062f9:	c7 43 68 00 00 00 00 	movl   $0x0,0x68(%ebx)
  106300:	83 c4 18             	add    $0x18,%esp
  106303:	5b                   	pop    %ebx
  106304:	c3                   	ret    

00106305 <get_full_name>:
  106305:	53                   	push   %ebx
  106306:	83 ec 18             	sub    $0x18,%esp
  106309:	8b 44 24 20          	mov    0x20(%esp),%eax
  10630d:	8b 18                	mov    (%eax),%ebx
  10630f:	c7 44 24 04 3a 98 10 	movl   $0x10983a,0x4(%esp)
  106316:	00 
  106317:	8b 40 04             	mov    0x4(%eax),%eax
  10631a:	89 04 24             	mov    %eax,(%esp)
  10631d:	e8 98 11 00 00       	call   1074ba <strcat>
  106322:	89 5c 24 04          	mov    %ebx,0x4(%esp)
  106326:	89 04 24             	mov    %eax,(%esp)
  106329:	e8 8c 11 00 00       	call   1074ba <strcat>
  10632e:	83 c4 18             	add    $0x18,%esp
  106331:	5b                   	pop    %ebx
  106332:	c3                   	ret    

00106333 <resolve_mount>:
  106333:	56                   	push   %esi
  106334:	53                   	push   %ebx
  106335:	83 ec 14             	sub    $0x14,%esp
  106338:	8b 74 24 20          	mov    0x20(%esp),%esi
  10633c:	89 34 24             	mov    %esi,(%esp)
  10633f:	e8 c1 ff ff ff       	call   106305 <get_full_name>
  106344:	89 04 24             	mov    %eax,(%esp)
  106347:	e8 10 ff ff ff       	call   10625c <check_mounted>
  10634c:	8b 1d c8 b3 11 00    	mov    0x11b3c8,%ebx
  106352:	84 c0                	test   %al,%al
  106354:	75 09                	jne    10635f <resolve_mount+0x2c>
  106356:	eb 2b                	jmp    106383 <resolve_mount+0x50>
  106358:	8b 5b 08             	mov    0x8(%ebx),%ebx
  10635b:	85 db                	test   %ebx,%ebx
  10635d:	74 1f                	je     10637e <resolve_mount+0x4b>
  10635f:	89 34 24             	mov    %esi,(%esp)
  106362:	e8 9e ff ff ff       	call   106305 <get_full_name>
  106367:	89 44 24 04          	mov    %eax,0x4(%esp)
  10636b:	8b 03                	mov    (%ebx),%eax
  10636d:	89 04 24             	mov    %eax,(%esp)
  106370:	e8 39 10 00 00       	call   1073ae <strequal>
  106375:	84 c0                	test   %al,%al
  106377:	74 df                	je     106358 <resolve_mount+0x25>
  106379:	8b 73 04             	mov    0x4(%ebx),%esi
  10637c:	eb 05                	jmp    106383 <resolve_mount+0x50>
  10637e:	be 00 00 00 00       	mov    $0x0,%esi
  106383:	89 f0                	mov    %esi,%eax
  106385:	83 c4 14             	add    $0x14,%esp
  106388:	5b                   	pop    %ebx
  106389:	5e                   	pop    %esi
  10638a:	c3                   	ret    

0010638b <get_fs>:
  10638b:	83 ec 1c             	sub    $0x1c,%esp
  10638e:	8b 44 24 20          	mov    0x20(%esp),%eax
  106392:	89 04 24             	mov    %eax,(%esp)
  106395:	e8 99 ff ff ff       	call   106333 <resolve_mount>
  10639a:	8a 40 2e             	mov    0x2e(%eax),%al
  10639d:	83 c4 1c             	add    $0x1c,%esp
  1063a0:	c3                   	ret    

001063a1 <open_file_fs>:
  1063a1:	56                   	push   %esi
  1063a2:	53                   	push   %ebx
  1063a3:	83 ec 14             	sub    $0x14,%esp
  1063a6:	8b 5c 24 20          	mov    0x20(%esp),%ebx
  1063aa:	8b 74 24 24          	mov    0x24(%esp),%esi
  1063ae:	89 1c 24             	mov    %ebx,(%esp)
  1063b1:	e8 d5 ff ff ff       	call   10638b <get_fs>
  1063b6:	84 c0                	test   %al,%al
  1063b8:	74 06                	je     1063c0 <open_file_fs+0x1f>
  1063ba:	3c 01                	cmp    $0x1,%al
  1063bc:	75 14                	jne    1063d2 <open_file_fs+0x31>
  1063be:	eb 0a                	jmp    1063ca <open_file_fs+0x29>
  1063c0:	89 1c 24             	mov    %ebx,(%esp)
  1063c3:	e8 ca fe ff ff       	call   106292 <dev_open>
  1063c8:	eb 08                	jmp    1063d2 <open_file_fs+0x31>
  1063ca:	89 1c 24             	mov    %ebx,(%esp)
  1063cd:	e8 d0 e2 ff ff       	call   1046a2 <initrd_open>
  1063d2:	85 f6                	test   %esi,%esi
  1063d4:	74 49                	je     10641f <open_file_fs+0x7e>
  1063d6:	c7 44 24 04 b6 83 10 	movl   $0x1083b6,0x4(%esp)
  1063dd:	00 
  1063de:	8b 06                	mov    (%esi),%eax
  1063e0:	89 04 24             	mov    %eax,(%esp)
  1063e3:	e8 c6 0f 00 00       	call   1073ae <strequal>
  1063e8:	84 c0                	test   %al,%al
  1063ea:	74 09                	je     1063f5 <open_file_fs+0x54>
  1063ec:	c7 43 04 b6 83 10 00 	movl   $0x1083b6,0x4(%ebx)
  1063f3:	eb 16                	jmp    10640b <open_file_fs+0x6a>
  1063f5:	c7 44 24 04 3a 98 10 	movl   $0x10983a,0x4(%esp)
  1063fc:	00 
  1063fd:	8b 46 04             	mov    0x4(%esi),%eax
  106400:	89 04 24             	mov    %eax,(%esp)
  106403:	e8 b2 10 00 00       	call   1074ba <strcat>
  106408:	89 43 04             	mov    %eax,0x4(%ebx)
  10640b:	8b 06                	mov    (%esi),%eax
  10640d:	89 44 24 04          	mov    %eax,0x4(%esp)
  106411:	8b 43 04             	mov    0x4(%ebx),%eax
  106414:	89 04 24             	mov    %eax,(%esp)
  106417:	e8 9e 10 00 00       	call   1074ba <strcat>
  10641c:	89 43 04             	mov    %eax,0x4(%ebx)
  10641f:	83 c4 14             	add    $0x14,%esp
  106422:	5b                   	pop    %ebx
  106423:	5e                   	pop    %esi
  106424:	c3                   	ret    

00106425 <open_fs>:
  106425:	57                   	push   %edi
  106426:	56                   	push   %esi
  106427:	53                   	push   %ebx
  106428:	83 ec 10             	sub    $0x10,%esp
  10642b:	c7 04 24 70 00 00 00 	movl   $0x70,(%esp)
  106432:	e8 50 da ff ff       	call   103e87 <kmalloc>
  106437:	89 c3                	mov    %eax,%ebx
  106439:	c7 40 04 b6 83 10 00 	movl   $0x1083b6,0x4(%eax)
  106440:	c6 40 2e 01          	movb   $0x1,0x2e(%eax)
  106444:	c7 04 24 04 00 00 00 	movl   $0x4,(%esp)
  10644b:	e8 37 da ff ff       	call   103e87 <kmalloc>
  106450:	89 c7                	mov    %eax,%edi
  106452:	89 44 24 08          	mov    %eax,0x8(%esp)
  106456:	c7 44 24 04 3a 98 10 	movl   $0x10983a,0x4(%esp)
  10645d:	00 
  10645e:	8b 44 24 20          	mov    0x20(%esp),%eax
  106462:	89 04 24             	mov    %eax,(%esp)
  106465:	e8 ea 10 00 00       	call   107554 <strtok>
  10646a:	89 c6                	mov    %eax,%esi
  10646c:	89 03                	mov    %eax,(%ebx)
  10646e:	c7 44 24 04 00 00 00 	movl   $0x0,0x4(%esp)
  106475:	00 
  106476:	89 1c 24             	mov    %ebx,(%esp)
  106479:	e8 23 ff ff ff       	call   1063a1 <open_file_fs>
  10647e:	85 f6                	test   %esi,%esi
  106480:	74 3a                	je     1064bc <open_fs+0x97>
  106482:	89 7c 24 08          	mov    %edi,0x8(%esp)
  106486:	c7 44 24 04 3a 98 10 	movl   $0x10983a,0x4(%esp)
  10648d:	00 
  10648e:	c7 04 24 00 00 00 00 	movl   $0x0,(%esp)
  106495:	e8 ba 10 00 00       	call   107554 <strtok>
  10649a:	85 c0                	test   %eax,%eax
  10649c:	74 1e                	je     1064bc <open_fs+0x97>
  10649e:	89 44 24 04          	mov    %eax,0x4(%esp)
  1064a2:	89 1c 24             	mov    %ebx,(%esp)
  1064a5:	e8 7c fb ff ff       	call   106026 <finddir_fs>
  1064aa:	89 c6                	mov    %eax,%esi
  1064ac:	89 5c 24 04          	mov    %ebx,0x4(%esp)
  1064b0:	89 04 24             	mov    %eax,(%esp)
  1064b3:	e8 e9 fe ff ff       	call   1063a1 <open_file_fs>
  1064b8:	89 f3                	mov    %esi,%ebx
  1064ba:	eb c6                	jmp    106482 <open_fs+0x5d>
  1064bc:	89 d8                	mov    %ebx,%eax
  1064be:	83 c4 10             	add    $0x10,%esp
  1064c1:	5b                   	pop    %ebx
  1064c2:	5e                   	pop    %esi
  1064c3:	5f                   	pop    %edi
  1064c4:	c3                   	ret    

001064c5 <hardlink_fs>:
  1064c5:	57                   	push   %edi
  1064c6:	56                   	push   %esi
  1064c7:	53                   	push   %ebx
  1064c8:	83 ec 10             	sub    $0x10,%esp
  1064cb:	8b 5c 24 20          	mov    0x20(%esp),%ebx
  1064cf:	8b 74 24 24          	mov    0x24(%esp),%esi
  1064d3:	c7 44 24 08 00 00 00 	movl   $0x0,0x8(%esp)
  1064da:	00 
  1064db:	c7 44 24 04 00 00 00 	movl   $0x0,0x4(%esp)
  1064e2:	00 
  1064e3:	89 1c 24             	mov    %ebx,(%esp)
  1064e6:	e8 3a ff ff ff       	call   106425 <open_fs>
  1064eb:	89 c7                	mov    %eax,%edi
  1064ed:	c7 44 24 04 00 00 00 	movl   $0x0,0x4(%esp)
  1064f4:	00 
  1064f5:	89 34 24             	mov    %esi,(%esp)
  1064f8:	e8 9f f9 ff ff       	call   105e9c <create_fs>
  1064fd:	89 c2                	mov    %eax,%edx
  1064ff:	89 78 6c             	mov    %edi,0x6c(%eax)
  106502:	c6 40 10 07          	movb   $0x7,0x10(%eax)
  106506:	8b 40 54             	mov    0x54(%eax),%eax
  106509:	85 c0                	test   %eax,%eax
  10650b:	74 0f                	je     10651c <hardlink_fs+0x57>
  10650d:	89 74 24 08          	mov    %esi,0x8(%esp)
  106511:	89 5c 24 04          	mov    %ebx,0x4(%esp)
  106515:	89 14 24             	mov    %edx,(%esp)
  106518:	ff d0                	call   *%eax
  10651a:	eb 05                	jmp    106521 <hardlink_fs+0x5c>
  10651c:	b8 ff ff ff ff       	mov    $0xffffffff,%eax
  106521:	83 c4 10             	add    $0x10,%esp
  106524:	5b                   	pop    %ebx
  106525:	5e                   	pop    %esi
  106526:	5f                   	pop    %edi
  106527:	c3                   	ret    

00106528 <symlink_fs>:
  106528:	57                   	push   %edi
  106529:	56                   	push   %esi
  10652a:	53                   	push   %ebx
  10652b:	83 ec 10             	sub    $0x10,%esp
  10652e:	8b 5c 24 20          	mov    0x20(%esp),%ebx
  106532:	8b 74 24 24          	mov    0x24(%esp),%esi
  106536:	c7 44 24 08 00 00 00 	movl   $0x0,0x8(%esp)
  10653d:	00 
  10653e:	c7 44 24 04 00 00 00 	movl   $0x0,0x4(%esp)
  106545:	00 
  106546:	89 1c 24             	mov    %ebx,(%esp)
  106549:	e8 d7 fe ff ff       	call   106425 <open_fs>
  10654e:	89 c7                	mov    %eax,%edi
  106550:	c7 44 24 04 00 00 00 	movl   $0x0,0x4(%esp)
  106557:	00 
  106558:	89 34 24             	mov    %esi,(%esp)
  10655b:	e8 3c f9 ff ff       	call   105e9c <create_fs>
  106560:	89 c2                	mov    %eax,%edx
  106562:	89 78 6c             	mov    %edi,0x6c(%eax)
  106565:	c6 40 10 06          	movb   $0x6,0x10(%eax)
  106569:	8b 40 50             	mov    0x50(%eax),%eax
  10656c:	85 c0                	test   %eax,%eax
  10656e:	74 0f                	je     10657f <symlink_fs+0x57>
  106570:	89 74 24 08          	mov    %esi,0x8(%esp)
  106574:	89 5c 24 04          	mov    %ebx,0x4(%esp)
  106578:	89 14 24             	mov    %edx,(%esp)
  10657b:	ff d0                	call   *%eax
  10657d:	eb 05                	jmp    106584 <symlink_fs+0x5c>
  10657f:	b8 ff ff ff ff       	mov    $0xffffffff,%eax
  106584:	83 c4 10             	add    $0x10,%esp
  106587:	5b                   	pop    %ebx
  106588:	5e                   	pop    %esi
  106589:	5f                   	pop    %edi
  10658a:	c3                   	ret    

0010658b <add_dev_node>:
  10658b:	53                   	push   %ebx
  10658c:	83 ec 18             	sub    $0x18,%esp
  10658f:	8b 1d c4 b3 11 00    	mov    0x11b3c4,%ebx
  106595:	8b 43 68             	mov    0x68(%ebx),%eax
  106598:	40                   	inc    %eax
  106599:	89 44 24 04          	mov    %eax,0x4(%esp)
  10659d:	8b 43 64             	mov    0x64(%ebx),%eax
  1065a0:	89 04 24             	mov    %eax,(%esp)
  1065a3:	e8 6f dd ff ff       	call   104317 <krealloc>
  1065a8:	89 43 64             	mov    %eax,0x64(%ebx)
  1065ab:	a1 c4 b3 11 00       	mov    0x11b3c4,%eax
  1065b0:	8b 50 68             	mov    0x68(%eax),%edx
  1065b3:	8b 40 64             	mov    0x64(%eax),%eax
  1065b6:	8b 4c 24 20          	mov    0x20(%esp),%ecx
  1065ba:	89 0c 90             	mov    %ecx,(%eax,%edx,4)
  1065bd:	a1 c4 b3 11 00       	mov    0x11b3c4,%eax
  1065c2:	ff 40 68             	incl   0x68(%eax)
  1065c5:	83 c4 18             	add    $0x18,%esp
  1065c8:	5b                   	pop    %ebx
  1065c9:	c3                   	ret    

001065ca <init_vfs>:
  1065ca:	53                   	push   %ebx
  1065cb:	83 ec 18             	sub    $0x18,%esp
  1065ce:	c7 04 24 70 00 00 00 	movl   $0x70,(%esp)
  1065d5:	e8 ad d8 ff ff       	call   103e87 <kmalloc>
  1065da:	a3 cc b3 11 00       	mov    %eax,0x11b3cc
  1065df:	c7 44 24 08 70 00 00 	movl   $0x70,0x8(%esp)
  1065e6:	00 
  1065e7:	c7 44 24 04 00 00 00 	movl   $0x0,0x4(%esp)
  1065ee:	00 
  1065ef:	89 04 24             	mov    %eax,(%esp)
  1065f2:	e8 c6 0c 00 00       	call   1072bd <memset>
  1065f7:	c7 04 24 70 00 00 00 	movl   $0x70,(%esp)
  1065fe:	e8 84 d8 ff ff       	call   103e87 <kmalloc>
  106603:	a3 c4 b3 11 00       	mov    %eax,0x11b3c4
  106608:	c7 44 24 08 70 00 00 	movl   $0x70,0x8(%esp)
  10660f:	00 
  106610:	c7 44 24 04 00 00 00 	movl   $0x0,0x4(%esp)
  106617:	00 
  106618:	89 04 24             	mov    %eax,(%esp)
  10661b:	e8 9d 0c 00 00       	call   1072bd <memset>
  106620:	a1 cc b3 11 00       	mov    0x11b3cc,%eax
  106625:	c7 00 b6 83 10 00    	movl   $0x1083b6,(%eax)
  10662b:	a1 cc b3 11 00       	mov    0x11b3cc,%eax
  106630:	c6 40 10 01          	movb   $0x1,0x10(%eax)
  106634:	a1 c4 b3 11 00       	mov    0x11b3c4,%eax
  106639:	c7 00 b6 83 10 00    	movl   $0x1083b6,(%eax)
  10663f:	a1 c4 b3 11 00       	mov    0x11b3c4,%eax
  106644:	c6 40 10 01          	movb   $0x1,0x10(%eax)
  106648:	c6 40 2e 00          	movb   $0x0,0x2e(%eax)
  10664c:	c7 04 24 70 00 00 00 	movl   $0x70,(%esp)
  106653:	e8 2f d8 ff ff       	call   103e87 <kmalloc>
  106658:	a3 bc b3 11 00       	mov    %eax,0x11b3bc
  10665d:	c7 44 24 08 70 00 00 	movl   $0x70,0x8(%esp)
  106664:	00 
  106665:	c7 44 24 04 00 00 00 	movl   $0x0,0x4(%esp)
  10666c:	00 
  10666d:	89 04 24             	mov    %eax,(%esp)
  106670:	e8 48 0c 00 00       	call   1072bd <memset>
  106675:	a1 bc b3 11 00       	mov    0x11b3bc,%eax
  10667a:	c7 00 3c 98 10 00    	movl   $0x10983c,(%eax)
  106680:	a1 bc b3 11 00       	mov    0x11b3bc,%eax
  106685:	c6 40 10 03          	movb   $0x3,0x10(%eax)
  106689:	c6 40 18 01          	movb   $0x1,0x18(%eax)
  10668d:	c7 40 44 56 6c 10 00 	movl   $0x106c56,0x44(%eax)
  106694:	c6 40 2e 00          	movb   $0x0,0x2e(%eax)
  106698:	c7 04 24 70 00 00 00 	movl   $0x70,(%esp)
  10669f:	e8 e3 d7 ff ff       	call   103e87 <kmalloc>
  1066a4:	a3 b8 b3 11 00       	mov    %eax,0x11b3b8
  1066a9:	c7 44 24 08 70 00 00 	movl   $0x70,0x8(%esp)
  1066b0:	00 
  1066b1:	c7 44 24 04 00 00 00 	movl   $0x0,0x4(%esp)
  1066b8:	00 
  1066b9:	89 04 24             	mov    %eax,(%esp)
  1066bc:	e8 fc 0b 00 00       	call   1072bd <memset>
  1066c1:	a1 b8 b3 11 00       	mov    0x11b3b8,%eax
  1066c6:	c7 00 42 98 10 00    	movl   $0x109842,(%eax)
  1066cc:	a1 b8 b3 11 00       	mov    0x11b3b8,%eax
  1066d1:	c6 40 10 03          	movb   $0x3,0x10(%eax)
  1066d5:	c6 40 18 01          	movb   $0x1,0x18(%eax)
  1066d9:	c7 40 48 85 6a 10 00 	movl   $0x106a85,0x48(%eax)
  1066e0:	c6 40 2e 00          	movb   $0x0,0x2e(%eax)
  1066e4:	c7 04 24 70 00 00 00 	movl   $0x70,(%esp)
  1066eb:	e8 97 d7 ff ff       	call   103e87 <kmalloc>
  1066f0:	a3 c0 b3 11 00       	mov    %eax,0x11b3c0
  1066f5:	c7 44 24 08 70 00 00 	movl   $0x70,0x8(%esp)
  1066fc:	00 
  1066fd:	c7 44 24 04 00 00 00 	movl   $0x0,0x4(%esp)
  106704:	00 
  106705:	89 04 24             	mov    %eax,(%esp)
  106708:	e8 b0 0b 00 00       	call   1072bd <memset>
  10670d:	a1 c0 b3 11 00       	mov    0x11b3c0,%eax
  106712:	c7 00 49 98 10 00    	movl   $0x109849,(%eax)
  106718:	a1 b8 b3 11 00       	mov    0x11b3b8,%eax
  10671d:	c6 40 10 03          	movb   $0x3,0x10(%eax)
  106721:	a1 c0 b3 11 00       	mov    0x11b3c0,%eax
  106726:	c6 40 18 01          	movb   $0x1,0x18(%eax)
  10672a:	c7 40 48 d7 6a 10 00 	movl   $0x106ad7,0x48(%eax)
  106731:	c6 40 2e 00          	movb   $0x0,0x2e(%eax)
  106735:	8b 1d c4 b3 11 00    	mov    0x11b3c4,%ebx
  10673b:	c7 04 24 50 01 00 00 	movl   $0x150,(%esp)
  106742:	e8 40 d7 ff ff       	call   103e87 <kmalloc>
  106747:	89 43 64             	mov    %eax,0x64(%ebx)
  10674a:	a1 c4 b3 11 00       	mov    0x11b3c4,%eax
  10674f:	8b 40 64             	mov    0x64(%eax),%eax
  106752:	8b 15 bc b3 11 00    	mov    0x11b3bc,%edx
  106758:	89 10                	mov    %edx,(%eax)
  10675a:	a1 c4 b3 11 00       	mov    0x11b3c4,%eax
  10675f:	8b 50 64             	mov    0x64(%eax),%edx
  106762:	8b 0d b8 b3 11 00    	mov    0x11b3b8,%ecx
  106768:	89 4a 04             	mov    %ecx,0x4(%edx)
  10676b:	8b 50 64             	mov    0x64(%eax),%edx
  10676e:	8b 0d c0 b3 11 00    	mov    0x11b3c0,%ecx
  106774:	89 4a 08             	mov    %ecx,0x8(%edx)
  106777:	c7 40 68 03 00 00 00 	movl   $0x3,0x68(%eax)
  10677e:	c7 04 24 0c 00 00 00 	movl   $0xc,(%esp)
  106785:	e8 fd d6 ff ff       	call   103e87 <kmalloc>
  10678a:	a3 c8 b3 11 00       	mov    %eax,0x11b3c8
  10678f:	c7 40 08 00 00 00 00 	movl   $0x0,0x8(%eax)
  106796:	83 c4 18             	add    $0x18,%esp
  106799:	5b                   	pop    %ebx
  10679a:	c3                   	ret    
  10679b:	90                   	nop

0010679c <ls>:
  10679c:	56                   	push   %esi
  10679d:	53                   	push   %ebx
  10679e:	83 ec 14             	sub    $0x14,%esp
  1067a1:	8b 74 24 20          	mov    0x20(%esp),%esi
  1067a5:	c7 44 24 04 00 00 00 	movl   $0x0,0x4(%esp)
  1067ac:	00 
  1067ad:	89 34 24             	mov    %esi,(%esp)
  1067b0:	e8 02 f8 ff ff       	call   105fb7 <readdir_fs>
  1067b5:	85 c0                	test   %eax,%eax
  1067b7:	74 28                	je     1067e1 <ls+0x45>
  1067b9:	bb 00 00 00 00       	mov    $0x0,%ebx
  1067be:	8b 00                	mov    (%eax),%eax
  1067c0:	89 44 24 04          	mov    %eax,0x4(%esp)
  1067c4:	c7 04 24 48 83 10 00 	movl   $0x108348,(%esp)
  1067cb:	e8 06 e5 ff ff       	call   104cd6 <kprintf>
  1067d0:	43                   	inc    %ebx
  1067d1:	89 5c 24 04          	mov    %ebx,0x4(%esp)
  1067d5:	89 34 24             	mov    %esi,(%esp)
  1067d8:	e8 da f7 ff ff       	call   105fb7 <readdir_fs>
  1067dd:	85 c0                	test   %eax,%eax
  1067df:	75 dd                	jne    1067be <ls+0x22>
  1067e1:	83 c4 14             	add    $0x14,%esp
  1067e4:	5b                   	pop    %ebx
  1067e5:	5e                   	pop    %esi
  1067e6:	c3                   	ret    

001067e7 <cat>:
  1067e7:	56                   	push   %esi
  1067e8:	53                   	push   %ebx
  1067e9:	83 ec 14             	sub    $0x14,%esp
  1067ec:	8b 74 24 20          	mov    0x20(%esp),%esi
  1067f0:	8b 46 34             	mov    0x34(%esi),%eax
  1067f3:	89 04 24             	mov    %eax,(%esp)
  1067f6:	e8 8c d6 ff ff       	call   103e87 <kmalloc>
  1067fb:	89 c3                	mov    %eax,%ebx
  1067fd:	8b 46 34             	mov    0x34(%esi),%eax
  106800:	89 44 24 08          	mov    %eax,0x8(%esp)
  106804:	89 5c 24 04          	mov    %ebx,0x4(%esp)
  106808:	89 34 24             	mov    %esi,(%esp)
  10680b:	e8 db f6 ff ff       	call   105eeb <read_fs>
  106810:	89 1c 24             	mov    %ebx,(%esp)
  106813:	e8 be e4 ff ff       	call   104cd6 <kprintf>
  106818:	89 1c 24             	mov    %ebx,(%esp)
  10681b:	e8 15 da ff ff       	call   104235 <kfree>
  106820:	83 c4 14             	add    $0x14,%esp
  106823:	5b                   	pop    %ebx
  106824:	5e                   	pop    %esi
  106825:	c3                   	ret    
  106826:	66 90                	xchg   %ax,%ax

00106828 <scroll>:
  106828:	56                   	push   %esi
  106829:	53                   	push   %ebx
  10682a:	83 ec 14             	sub    $0x14,%esp
  10682d:	8b 1d 90 a0 10 00    	mov    0x10a090,%ebx
  106833:	a1 14 aa 11 00       	mov    0x11aa14,%eax
  106838:	83 f8 18             	cmp    $0x18,%eax
  10683b:	7e 65                	jle    1068a2 <scroll+0x7a>
  10683d:	83 e8 18             	sub    $0x18,%eax
  106840:	8d 0c 85 00 00 00 00 	lea    0x0(,%eax,4),%ecx
  106847:	8d 34 01             	lea    (%ecx,%eax,1),%esi
  10684a:	c1 e6 05             	shl    $0x5,%esi
  10684d:	f7 de                	neg    %esi
  10684f:	81 c6 a0 0f 00 00    	add    $0xfa0,%esi
  106855:	8b 15 d0 b3 11 00    	mov    0x11b3d0,%edx
  10685b:	89 74 24 08          	mov    %esi,0x8(%esp)
  10685f:	01 c8                	add    %ecx,%eax
  106861:	c1 e0 05             	shl    $0x5,%eax
  106864:	01 d0                	add    %edx,%eax
  106866:	89 44 24 04          	mov    %eax,0x4(%esp)
  10686a:	89 14 24             	mov    %edx,(%esp)
  10686d:	e8 26 0a 00 00       	call   107298 <memcpy>
  106872:	c7 44 24 08 50 00 00 	movl   $0x50,0x8(%esp)
  106879:	00 
  10687a:	c1 e3 08             	shl    $0x8,%ebx
  10687d:	81 e3 ff ff 00 00    	and    $0xffff,%ebx
  106883:	83 cb 20             	or     $0x20,%ebx
  106886:	89 5c 24 04          	mov    %ebx,0x4(%esp)
  10688a:	03 35 d0 b3 11 00    	add    0x11b3d0,%esi
  106890:	89 34 24             	mov    %esi,(%esp)
  106893:	e8 43 0a 00 00       	call   1072db <memsetw>
  106898:	c7 05 14 aa 11 00 18 	movl   $0x18,0x11aa14
  10689f:	00 00 00 
  1068a2:	83 c4 14             	add    $0x14,%esp
  1068a5:	5b                   	pop    %ebx
  1068a6:	5e                   	pop    %esi
  1068a7:	c3                   	ret    

001068a8 <move_csr>:
  1068a8:	53                   	push   %ebx
  1068a9:	83 ec 18             	sub    $0x18,%esp
  1068ac:	a1 14 aa 11 00       	mov    0x11aa14,%eax
  1068b1:	8d 1c 80             	lea    (%eax,%eax,4),%ebx
  1068b4:	c1 e3 04             	shl    $0x4,%ebx
  1068b7:	03 1d 18 aa 11 00    	add    0x11aa18,%ebx
  1068bd:	c7 44 24 04 0e 00 00 	movl   $0xe,0x4(%esp)
  1068c4:	00 
  1068c5:	c7 04 24 d4 03 00 00 	movl   $0x3d4,(%esp)
  1068cc:	e8 dc be ff ff       	call   1027ad <outportb>
  1068d1:	0f b6 c7             	movzbl %bh,%eax
  1068d4:	89 44 24 04          	mov    %eax,0x4(%esp)
  1068d8:	c7 04 24 d5 03 00 00 	movl   $0x3d5,(%esp)
  1068df:	e8 c9 be ff ff       	call   1027ad <outportb>
  1068e4:	c7 44 24 04 0f 00 00 	movl   $0xf,0x4(%esp)
  1068eb:	00 
  1068ec:	c7 04 24 d4 03 00 00 	movl   $0x3d4,(%esp)
  1068f3:	e8 b5 be ff ff       	call   1027ad <outportb>
  1068f8:	81 e3 ff 00 00 00    	and    $0xff,%ebx
  1068fe:	89 5c 24 04          	mov    %ebx,0x4(%esp)
  106902:	c7 04 24 d5 03 00 00 	movl   $0x3d5,(%esp)
  106909:	e8 9f be ff ff       	call   1027ad <outportb>
  10690e:	83 c4 18             	add    $0x18,%esp
  106911:	5b                   	pop    %ebx
  106912:	c3                   	ret    

00106913 <clear>:
  106913:	56                   	push   %esi
  106914:	53                   	push   %ebx
  106915:	83 ec 14             	sub    $0x14,%esp
  106918:	8b 35 90 a0 10 00    	mov    0x10a090,%esi
  10691e:	c1 e6 08             	shl    $0x8,%esi
  106921:	bb 00 00 00 00       	mov    $0x0,%ebx
  106926:	81 e6 ff ff 00 00    	and    $0xffff,%esi
  10692c:	83 ce 20             	or     $0x20,%esi
  10692f:	c7 44 24 08 50 00 00 	movl   $0x50,0x8(%esp)
  106936:	00 
  106937:	89 74 24 04          	mov    %esi,0x4(%esp)
  10693b:	a1 d0 b3 11 00       	mov    0x11b3d0,%eax
  106940:	01 d8                	add    %ebx,%eax
  106942:	89 04 24             	mov    %eax,(%esp)
  106945:	e8 91 09 00 00       	call   1072db <memsetw>
  10694a:	81 c3 a0 00 00 00    	add    $0xa0,%ebx
  106950:	81 fb a0 0f 00 00    	cmp    $0xfa0,%ebx
  106956:	75 d7                	jne    10692f <clear+0x1c>
  106958:	c7 05 18 aa 11 00 00 	movl   $0x0,0x11aa18
  10695f:	00 00 00 
  106962:	c7 05 14 aa 11 00 00 	movl   $0x0,0x11aa14
  106969:	00 00 00 
  10696c:	e8 37 ff ff ff       	call   1068a8 <move_csr>
  106971:	83 c4 14             	add    $0x14,%esp
  106974:	5b                   	pop    %ebx
  106975:	5e                   	pop    %esi
  106976:	c3                   	ret    

00106977 <putch>:
  106977:	53                   	push   %ebx
  106978:	83 ec 08             	sub    $0x8,%esp
  10697b:	8a 44 24 10          	mov    0x10(%esp),%al
  10697f:	8b 15 90 a0 10 00    	mov    0x10a090,%edx
  106985:	c1 e2 08             	shl    $0x8,%edx
  106988:	3c 08                	cmp    $0x8,%al
  10698a:	75 38                	jne    1069c4 <putch+0x4d>
  10698c:	a1 18 aa 11 00       	mov    0x11aa18,%eax
  106991:	48                   	dec    %eax
  106992:	83 f8 ff             	cmp    $0xffffffff,%eax
  106995:	74 07                	je     10699e <putch+0x27>
  106997:	a3 18 aa 11 00       	mov    %eax,0x11aa18
  10699c:	eb 0a                	jmp    1069a8 <putch+0x31>
  10699e:	c7 05 18 aa 11 00 00 	movl   $0x0,0x11aa18
  1069a5:	00 00 00 
  1069a8:	a1 14 aa 11 00       	mov    0x11aa14,%eax
  1069ad:	8d 0c 80             	lea    (%eax,%eax,4),%ecx
  1069b0:	c1 e1 04             	shl    $0x4,%ecx
  1069b3:	03 0d 18 aa 11 00    	add    0x11aa18,%ecx
  1069b9:	a1 d0 b3 11 00       	mov    0x11b3d0,%eax
  1069be:	66 89 14 48          	mov    %dx,(%eax,%ecx,2)
  1069c2:	eb 69                	jmp    106a2d <putch+0xb6>
  1069c4:	3c 09                	cmp    $0x9,%al
  1069c6:	75 12                	jne    1069da <putch+0x63>
  1069c8:	a1 18 aa 11 00       	mov    0x11aa18,%eax
  1069cd:	83 c0 08             	add    $0x8,%eax
  1069d0:	83 e0 f8             	and    $0xfffffff8,%eax
  1069d3:	a3 18 aa 11 00       	mov    %eax,0x11aa18
  1069d8:	eb 53                	jmp    106a2d <putch+0xb6>
  1069da:	3c 0d                	cmp    $0xd,%al
  1069dc:	75 0c                	jne    1069ea <putch+0x73>
  1069de:	c7 05 18 aa 11 00 00 	movl   $0x0,0x11aa18
  1069e5:	00 00 00 
  1069e8:	eb 5c                	jmp    106a46 <putch+0xcf>
  1069ea:	3c 0a                	cmp    $0xa,%al
  1069ec:	75 12                	jne    106a00 <putch+0x89>
  1069ee:	c7 05 18 aa 11 00 00 	movl   $0x0,0x11aa18
  1069f5:	00 00 00 
  1069f8:	ff 05 14 aa 11 00    	incl   0x11aa14
  1069fe:	eb 2d                	jmp    106a2d <putch+0xb6>
  106a00:	3c 1f                	cmp    $0x1f,%al
  106a02:	76 29                	jbe    106a2d <putch+0xb6>
  106a04:	8b 0d 14 aa 11 00    	mov    0x11aa14,%ecx
  106a0a:	8d 1c 89             	lea    (%ecx,%ecx,4),%ebx
  106a0d:	c1 e3 04             	shl    $0x4,%ebx
  106a10:	03 1d 18 aa 11 00    	add    0x11aa18,%ebx
  106a16:	25 ff 00 00 00       	and    $0xff,%eax
  106a1b:	09 c2                	or     %eax,%edx
  106a1d:	8b 0d d0 b3 11 00    	mov    0x11b3d0,%ecx
  106a23:	66 89 14 59          	mov    %dx,(%ecx,%ebx,2)
  106a27:	ff 05 18 aa 11 00    	incl   0x11aa18
  106a2d:	83 3d 18 aa 11 00 4f 	cmpl   $0x4f,0x11aa18
  106a34:	7e 10                	jle    106a46 <putch+0xcf>
  106a36:	c7 05 18 aa 11 00 00 	movl   $0x0,0x11aa18
  106a3d:	00 00 00 
  106a40:	ff 05 14 aa 11 00    	incl   0x11aa14
  106a46:	e8 dd fd ff ff       	call   106828 <scroll>
  106a4b:	e8 58 fe ff ff       	call   1068a8 <move_csr>
  106a50:	83 c4 08             	add    $0x8,%esp
  106a53:	5b                   	pop    %ebx
  106a54:	c3                   	ret    

00106a55 <puts>:
  106a55:	56                   	push   %esi
  106a56:	53                   	push   %ebx
  106a57:	83 ec 14             	sub    $0x14,%esp
  106a5a:	8b 74 24 20          	mov    0x20(%esp),%esi
  106a5e:	bb 00 00 00 00       	mov    $0x0,%ebx
  106a63:	eb 0e                	jmp    106a73 <puts+0x1e>
  106a65:	31 c0                	xor    %eax,%eax
  106a67:	8a 04 1e             	mov    (%esi,%ebx,1),%al
  106a6a:	89 04 24             	mov    %eax,(%esp)
  106a6d:	e8 05 ff ff ff       	call   106977 <putch>
  106a72:	43                   	inc    %ebx
  106a73:	89 34 24             	mov    %esi,(%esp)
  106a76:	e8 c9 08 00 00       	call   107344 <strlen>
  106a7b:	39 c3                	cmp    %eax,%ebx
  106a7d:	7c e6                	jl     106a65 <puts+0x10>
  106a7f:	83 c4 14             	add    $0x14,%esp
  106a82:	5b                   	pop    %ebx
  106a83:	5e                   	pop    %esi
  106a84:	c3                   	ret    

00106a85 <screen_write>:
  106a85:	57                   	push   %edi
  106a86:	56                   	push   %esi
  106a87:	53                   	push   %ebx
  106a88:	83 ec 10             	sub    $0x10,%esp
  106a8b:	8b 74 24 24          	mov    0x24(%esp),%esi
  106a8f:	8b 7c 24 28          	mov    0x28(%esp),%edi
  106a93:	85 ff                	test   %edi,%edi
  106a95:	74 21                	je     106ab8 <screen_write+0x33>
  106a97:	b8 00 00 00 00       	mov    $0x0,%eax
  106a9c:	bb 00 00 00 00       	mov    $0x0,%ebx
  106aa1:	8a 04 06             	mov    (%esi,%eax,1),%al
  106aa4:	25 ff 00 00 00       	and    $0xff,%eax
  106aa9:	89 04 24             	mov    %eax,(%esp)
  106aac:	e8 c6 fe ff ff       	call   106977 <putch>
  106ab1:	43                   	inc    %ebx
  106ab2:	89 d8                	mov    %ebx,%eax
  106ab4:	39 fb                	cmp    %edi,%ebx
  106ab6:	75 e9                	jne    106aa1 <screen_write+0x1c>
  106ab8:	83 c4 10             	add    $0x10,%esp
  106abb:	5b                   	pop    %ebx
  106abc:	5e                   	pop    %esi
  106abd:	5f                   	pop    %edi
  106abe:	c3                   	ret    

00106abf <settextcolor>:
  106abf:	31 c0                	xor    %eax,%eax
  106ac1:	8a 44 24 08          	mov    0x8(%esp),%al
  106ac5:	c1 e0 04             	shl    $0x4,%eax
  106ac8:	8a 54 24 04          	mov    0x4(%esp),%dl
  106acc:	83 e2 0f             	and    $0xf,%edx
  106acf:	09 d0                	or     %edx,%eax
  106ad1:	a3 90 a0 10 00       	mov    %eax,0x10a090
  106ad6:	c3                   	ret    

00106ad7 <error_screen_write>:
  106ad7:	53                   	push   %ebx
  106ad8:	83 ec 18             	sub    $0x18,%esp
  106adb:	8b 1d 90 a0 10 00    	mov    0x10a090,%ebx
  106ae1:	c7 44 24 04 00 00 00 	movl   $0x0,0x4(%esp)
  106ae8:	00 
  106ae9:	c7 04 24 04 00 00 00 	movl   $0x4,(%esp)
  106af0:	e8 ca ff ff ff       	call   106abf <settextcolor>
  106af5:	8b 44 24 28          	mov    0x28(%esp),%eax
  106af9:	89 44 24 08          	mov    %eax,0x8(%esp)
  106afd:	8b 44 24 24          	mov    0x24(%esp),%eax
  106b01:	89 44 24 04          	mov    %eax,0x4(%esp)
  106b05:	8b 44 24 20          	mov    0x20(%esp),%eax
  106b09:	89 04 24             	mov    %eax,(%esp)
  106b0c:	e8 74 ff ff ff       	call   106a85 <screen_write>
  106b11:	81 e3 ff 00 00 00    	and    $0xff,%ebx
  106b17:	89 1d 90 a0 10 00    	mov    %ebx,0x10a090
  106b1d:	83 c4 18             	add    $0x18,%esp
  106b20:	5b                   	pop    %ebx
  106b21:	c3                   	ret    

00106b22 <error_puts>:
  106b22:	53                   	push   %ebx
  106b23:	83 ec 18             	sub    $0x18,%esp
  106b26:	8b 1d 90 a0 10 00    	mov    0x10a090,%ebx
  106b2c:	c7 44 24 04 00 00 00 	movl   $0x0,0x4(%esp)
  106b33:	00 
  106b34:	c7 04 24 04 00 00 00 	movl   $0x4,(%esp)
  106b3b:	e8 7f ff ff ff       	call   106abf <settextcolor>
  106b40:	8b 44 24 20          	mov    0x20(%esp),%eax
  106b44:	89 04 24             	mov    %eax,(%esp)
  106b47:	e8 09 ff ff ff       	call   106a55 <puts>
  106b4c:	81 e3 ff 00 00 00    	and    $0xff,%ebx
  106b52:	89 1d 90 a0 10 00    	mov    %ebx,0x10a090
  106b58:	83 c4 18             	add    $0x18,%esp
  106b5b:	5b                   	pop    %ebx
  106b5c:	c3                   	ret    

00106b5d <init_text_mode>:
  106b5d:	83 ec 1c             	sub    $0x1c,%esp
  106b60:	c7 05 d0 b3 11 00 00 	movl   $0xb8000,0x11b3d0
  106b67:	80 0b 00 
  106b6a:	31 c0                	xor    %eax,%eax
  106b6c:	8a 44 24 24          	mov    0x24(%esp),%al
  106b70:	89 44 24 04          	mov    %eax,0x4(%esp)
  106b74:	31 c0                	xor    %eax,%eax
  106b76:	8a 44 24 20          	mov    0x20(%esp),%al
  106b7a:	89 04 24             	mov    %eax,(%esp)
  106b7d:	e8 3d ff ff ff       	call   106abf <settextcolor>
  106b82:	e8 8c fd ff ff       	call   106913 <clear>
  106b87:	83 c4 1c             	add    $0x1c,%esp
  106b8a:	c3                   	ret    
  106b8b:	90                   	nop

00106b8c <getch>:
  106b8c:	83 ec 2c             	sub    $0x2c,%esp
  106b8f:	c6 44 24 1f 00       	movb   $0x0,0x1f(%esp)
  106b94:	a0 d8 b3 11 00       	mov    0x11b3d8,%al
  106b99:	88 44 24 1f          	mov    %al,0x1f(%esp)
  106b9d:	8a 44 24 1f          	mov    0x1f(%esp),%al
  106ba1:	84 c0                	test   %al,%al
  106ba3:	74 ef                	je     106b94 <getch+0x8>
  106ba5:	8a 44 24 1f          	mov    0x1f(%esp),%al
  106ba9:	25 ff 00 00 00       	and    $0xff,%eax
  106bae:	89 04 24             	mov    %eax,(%esp)
  106bb1:	e8 c1 fd ff ff       	call   106977 <putch>
  106bb6:	c6 05 d8 b3 11 00 00 	movb   $0x0,0x11b3d8
  106bbd:	8a 44 24 1f          	mov    0x1f(%esp),%al
  106bc1:	83 c4 2c             	add    $0x2c,%esp
  106bc4:	c3                   	ret    

00106bc5 <gets>:
  106bc5:	55                   	push   %ebp
  106bc6:	57                   	push   %edi
  106bc7:	56                   	push   %esi
  106bc8:	53                   	push   %ebx
  106bc9:	83 ec 2c             	sub    $0x2c,%esp
  106bcc:	c7 04 24 40 00 00 00 	movl   $0x40,(%esp)
  106bd3:	e8 af d2 ff ff       	call   103e87 <kmalloc>
  106bd8:	89 c7                	mov    %eax,%edi
  106bda:	e8 ad ff ff ff       	call   106b8c <getch>
  106bdf:	88 c3                	mov    %al,%bl
  106be1:	3c 0a                	cmp    $0xa,%al
  106be3:	74 50                	je     106c35 <gets+0x70>
  106be5:	be 00 00 00 00       	mov    $0x0,%esi
  106bea:	c7 44 24 1c 40 00 00 	movl   $0x40,0x1c(%esp)
  106bf1:	00 
  106bf2:	80 fb 08             	cmp    $0x8,%bl
  106bf5:	74 06                	je     106bfd <gets+0x38>
  106bf7:	88 1f                	mov    %bl,(%edi)
  106bf9:	47                   	inc    %edi
  106bfa:	46                   	inc    %esi
  106bfb:	eb 06                	jmp    106c03 <gets+0x3e>
  106bfd:	85 f6                	test   %esi,%esi
  106bff:	74 02                	je     106c03 <gets+0x3e>
  106c01:	4f                   	dec    %edi
  106c02:	4e                   	dec    %esi
  106c03:	e8 84 ff ff ff       	call   106b8c <getch>
  106c08:	88 c3                	mov    %al,%bl
  106c0a:	8b 6c 24 1c          	mov    0x1c(%esp),%ebp
  106c0e:	4d                   	dec    %ebp
  106c0f:	39 f5                	cmp    %esi,%ebp
  106c11:	75 1b                	jne    106c2e <gets+0x69>
  106c13:	83 44 24 1c 10       	addl   $0x10,0x1c(%esp)
  106c18:	8b 44 24 1c          	mov    0x1c(%esp),%eax
  106c1c:	89 44 24 04          	mov    %eax,0x4(%esp)
  106c20:	29 ef                	sub    %ebp,%edi
  106c22:	89 3c 24             	mov    %edi,(%esp)
  106c25:	e8 ed d6 ff ff       	call   104317 <krealloc>
  106c2a:	89 c7                	mov    %eax,%edi
  106c2c:	89 ee                	mov    %ebp,%esi
  106c2e:	80 fb 0a             	cmp    $0xa,%bl
  106c31:	75 bf                	jne    106bf2 <gets+0x2d>
  106c33:	eb 05                	jmp    106c3a <gets+0x75>
  106c35:	be 00 00 00 00       	mov    $0x0,%esi
  106c3a:	c6 07 00             	movb   $0x0,(%edi)
  106c3d:	8d 46 01             	lea    0x1(%esi),%eax
  106c40:	89 44 24 04          	mov    %eax,0x4(%esp)
  106c44:	29 f7                	sub    %esi,%edi
  106c46:	89 3c 24             	mov    %edi,(%esp)
  106c49:	e8 c9 d6 ff ff       	call   104317 <krealloc>
  106c4e:	83 c4 2c             	add    $0x2c,%esp
  106c51:	5b                   	pop    %ebx
  106c52:	5e                   	pop    %esi
  106c53:	5f                   	pop    %edi
  106c54:	5d                   	pop    %ebp
  106c55:	c3                   	ret    

00106c56 <keyboard_read>:
  106c56:	55                   	push   %ebp
  106c57:	57                   	push   %edi
  106c58:	56                   	push   %esi
  106c59:	53                   	push   %ebx
  106c5a:	83 ec 0c             	sub    $0xc,%esp
  106c5d:	8b 7c 24 24          	mov    0x24(%esp),%edi
  106c61:	8b 6c 24 28          	mov    0x28(%esp),%ebp
  106c65:	e8 22 ff ff ff       	call   106b8c <getch>
  106c6a:	85 ed                	test   %ebp,%ebp
  106c6c:	74 13                	je     106c81 <keyboard_read+0x2b>
  106c6e:	89 ee                	mov    %ebp,%esi
  106c70:	89 fb                	mov    %edi,%ebx
  106c72:	88 03                	mov    %al,(%ebx)
  106c74:	43                   	inc    %ebx
  106c75:	4e                   	dec    %esi
  106c76:	e8 11 ff ff ff       	call   106b8c <getch>
  106c7b:	85 f6                	test   %esi,%esi
  106c7d:	75 f3                	jne    106c72 <keyboard_read+0x1c>
  106c7f:	01 ef                	add    %ebp,%edi
  106c81:	c6 07 00             	movb   $0x0,(%edi)
  106c84:	89 f8                	mov    %edi,%eax
  106c86:	83 c4 0c             	add    $0xc,%esp
  106c89:	5b                   	pop    %ebx
  106c8a:	5e                   	pop    %esi
  106c8b:	5f                   	pop    %edi
  106c8c:	5d                   	pop    %ebp
  106c8d:	c3                   	ret    

00106c8e <set_leds>:
  106c8e:	53                   	push   %ebx
  106c8f:	83 ec 18             	sub    $0x18,%esp
  106c92:	8a 5c 24 20          	mov    0x20(%esp),%bl
  106c96:	c7 04 24 64 00 00 00 	movl   $0x64,(%esp)
  106c9d:	e8 fe ba ff ff       	call   1027a0 <inportb>
  106ca2:	a8 02                	test   $0x2,%al
  106ca4:	75 f0                	jne    106c96 <set_leds+0x8>
  106ca6:	c7 44 24 04 ed 00 00 	movl   $0xed,0x4(%esp)
  106cad:	00 
  106cae:	c7 04 24 60 00 00 00 	movl   $0x60,(%esp)
  106cb5:	e8 f3 ba ff ff       	call   1027ad <outportb>
  106cba:	81 e3 ff 00 00 00    	and    $0xff,%ebx
  106cc0:	89 5c 24 04          	mov    %ebx,0x4(%esp)
  106cc4:	c7 04 24 60 00 00 00 	movl   $0x60,(%esp)
  106ccb:	e8 dd ba ff ff       	call   1027ad <outportb>
  106cd0:	83 c4 18             	add    $0x18,%esp
  106cd3:	5b                   	pop    %ebx
  106cd4:	c3                   	ret    

00106cd5 <keyboard_handler>:
  106cd5:	83 ec 1c             	sub    $0x1c,%esp
  106cd8:	c7 04 24 60 00 00 00 	movl   $0x60,(%esp)
  106cdf:	e8 bc ba ff ff       	call   1027a0 <inportb>
  106ce4:	84 c0                	test   %al,%al
  106ce6:	79 5c                	jns    106d44 <keyboard_handler+0x6f>
  106ce8:	3c aa                	cmp    $0xaa,%al
  106cea:	74 1c                	je     106d08 <keyboard_handler+0x33>
  106cec:	3c aa                	cmp    $0xaa,%al
  106cee:	77 0a                	ja     106cfa <keyboard_handler+0x25>
  106cf0:	3c 9d                	cmp    $0x9d,%al
  106cf2:	0f 85 26 01 00 00    	jne    106e1e <keyboard_handler+0x149>
  106cf8:	eb 2c                	jmp    106d26 <keyboard_handler+0x51>
  106cfa:	3c b6                	cmp    $0xb6,%al
  106cfc:	74 19                	je     106d17 <keyboard_handler+0x42>
  106cfe:	3c b8                	cmp    $0xb8,%al
  106d00:	0f 85 18 01 00 00    	jne    106e1e <keyboard_handler+0x149>
  106d06:	eb 2d                	jmp    106d35 <keyboard_handler+0x60>
  106d08:	c7 05 5c aa 11 00 00 	movl   $0x0,0x11aa5c
  106d0f:	00 00 00 
  106d12:	e9 07 01 00 00       	jmp    106e1e <keyboard_handler+0x149>
  106d17:	c7 05 5c aa 11 00 00 	movl   $0x0,0x11aa5c
  106d1e:	00 00 00 
  106d21:	e9 f8 00 00 00       	jmp    106e1e <keyboard_handler+0x149>
  106d26:	c7 05 d4 b3 11 00 00 	movl   $0x0,0x11b3d4
  106d2d:	00 00 00 
  106d30:	e9 e9 00 00 00       	jmp    106e1e <keyboard_handler+0x149>
  106d35:	c7 05 54 aa 11 00 00 	movl   $0x0,0x11aa54
  106d3c:	00 00 00 
  106d3f:	e9 da 00 00 00       	jmp    106e1e <keyboard_handler+0x149>
  106d44:	8d 50 e3             	lea    -0x1d(%eax),%edx
  106d47:	80 fa 1d             	cmp    $0x1d,%dl
  106d4a:	77 6e                	ja     106dba <keyboard_handler+0xe5>
  106d4c:	81 e2 ff 00 00 00    	and    $0xff,%edx
  106d52:	ff 24 95 50 98 10 00 	jmp    *0x109850(,%edx,4)
  106d59:	c7 05 5c aa 11 00 01 	movl   $0x1,0x11aa5c
  106d60:	00 00 00 
  106d63:	e9 b6 00 00 00       	jmp    106e1e <keyboard_handler+0x149>
  106d68:	c7 05 5c aa 11 00 01 	movl   $0x1,0x11aa5c
  106d6f:	00 00 00 
  106d72:	e9 a7 00 00 00       	jmp    106e1e <keyboard_handler+0x149>
  106d77:	a1 58 aa 11 00       	mov    0x11aa58,%eax
  106d7c:	85 c0                	test   %eax,%eax
  106d7e:	0f 94 c0             	sete   %al
  106d81:	25 ff 00 00 00       	and    $0xff,%eax
  106d86:	a3 58 aa 11 00       	mov    %eax,0x11aa58
  106d8b:	a1 58 aa 11 00       	mov    0x11aa58,%eax
  106d90:	c1 e0 02             	shl    $0x2,%eax
  106d93:	25 ff 00 00 00       	and    $0xff,%eax
  106d98:	89 04 24             	mov    %eax,(%esp)
  106d9b:	e8 ee fe ff ff       	call   106c8e <set_leds>
  106da0:	eb 7c                	jmp    106e1e <keyboard_handler+0x149>
  106da2:	c7 05 d4 b3 11 00 01 	movl   $0x1,0x11b3d4
  106da9:	00 00 00 
  106dac:	eb 70                	jmp    106e1e <keyboard_handler+0x149>
  106dae:	c7 05 54 aa 11 00 01 	movl   $0x1,0x11aa54
  106db5:	00 00 00 
  106db8:	eb 64                	jmp    106e1e <keyboard_handler+0x149>
  106dba:	8b 15 5c aa 11 00    	mov    0x11aa5c,%edx
  106dc0:	85 d2                	test   %edx,%edx
  106dc2:	74 2e                	je     106df2 <keyboard_handler+0x11d>
  106dc4:	8b 15 58 aa 11 00    	mov    0x11aa58,%edx
  106dca:	85 d2                	test   %edx,%edx
  106dcc:	74 12                	je     106de0 <keyboard_handler+0x10b>
  106dce:	25 ff 00 00 00       	and    $0xff,%eax
  106dd3:	8a 80 20 a1 10 00    	mov    0x10a120(%eax),%al
  106dd9:	a2 d8 b3 11 00       	mov    %al,0x11b3d8
  106dde:	eb 3e                	jmp    106e1e <keyboard_handler+0x149>
  106de0:	25 ff 00 00 00       	and    $0xff,%eax
  106de5:	8a 80 a0 a0 10 00    	mov    0x10a0a0(%eax),%al
  106deb:	a2 d8 b3 11 00       	mov    %al,0x11b3d8
  106df0:	eb 2c                	jmp    106e1e <keyboard_handler+0x149>
  106df2:	8b 15 58 aa 11 00    	mov    0x11aa58,%edx
  106df8:	85 d2                	test   %edx,%edx
  106dfa:	74 12                	je     106e0e <keyboard_handler+0x139>
  106dfc:	25 ff 00 00 00       	and    $0xff,%eax
  106e01:	8a 80 a0 a0 10 00    	mov    0x10a0a0(%eax),%al
  106e07:	a2 d8 b3 11 00       	mov    %al,0x11b3d8
  106e0c:	eb 10                	jmp    106e1e <keyboard_handler+0x149>
  106e0e:	25 ff 00 00 00       	and    $0xff,%eax
  106e13:	8a 80 20 a1 10 00    	mov    0x10a120(%eax),%al
  106e19:	a2 d8 b3 11 00       	mov    %al,0x11b3d8
  106e1e:	83 c4 1c             	add    $0x1c,%esp
  106e21:	c3                   	ret    

00106e22 <keyboard_install>:
  106e22:	83 ec 1c             	sub    $0x1c,%esp
  106e25:	c7 44 24 04 d5 6c 10 	movl   $0x106cd5,0x4(%esp)
  106e2c:	00 
  106e2d:	c7 04 24 01 00 00 00 	movl   $0x1,(%esp)
  106e34:	e8 2b ab ff ff       	call   101964 <irq_install_handler>
  106e39:	83 c4 1c             	add    $0x1c,%esp
  106e3c:	c3                   	ret    
  106e3d:	66 90                	xchg   %ax,%ax
  106e3f:	90                   	nop

00106e40 <mouse_handler>:
  106e40:	83 ec 1c             	sub    $0x1c,%esp
  106e43:	a0 62 aa 11 00       	mov    0x11aa62,%al
  106e48:	3c 01                	cmp    $0x1,%al
  106e4a:	74 28                	je     106e74 <mouse_handler+0x34>
  106e4c:	3c 01                	cmp    $0x1,%al
  106e4e:	72 06                	jb     106e56 <mouse_handler+0x16>
  106e50:	3c 02                	cmp    $0x2,%al
  106e52:	75 6a                	jne    106ebe <mouse_handler+0x7e>
  106e54:	eb 3c                	jmp    106e92 <mouse_handler+0x52>
  106e56:	c7 04 24 60 00 00 00 	movl   $0x60,(%esp)
  106e5d:	e8 3e b9 ff ff       	call   1027a0 <inportb>
  106e62:	a2 d9 b3 11 00       	mov    %al,0x11b3d9
  106e67:	a0 62 aa 11 00       	mov    0x11aa62,%al
  106e6c:	40                   	inc    %eax
  106e6d:	a2 62 aa 11 00       	mov    %al,0x11aa62
  106e72:	eb 4a                	jmp    106ebe <mouse_handler+0x7e>
  106e74:	c7 04 24 60 00 00 00 	movl   $0x60,(%esp)
  106e7b:	e8 20 b9 ff ff       	call   1027a0 <inportb>
  106e80:	a2 da b3 11 00       	mov    %al,0x11b3da
  106e85:	a0 62 aa 11 00       	mov    0x11aa62,%al
  106e8a:	40                   	inc    %eax
  106e8b:	a2 62 aa 11 00       	mov    %al,0x11aa62
  106e90:	eb 2c                	jmp    106ebe <mouse_handler+0x7e>
  106e92:	c7 04 24 60 00 00 00 	movl   $0x60,(%esp)
  106e99:	e8 02 b9 ff ff       	call   1027a0 <inportb>
  106e9e:	a2 db b3 11 00       	mov    %al,0x11b3db
  106ea3:	a0 da b3 11 00       	mov    0x11b3da,%al
  106ea8:	a2 61 aa 11 00       	mov    %al,0x11aa61
  106ead:	a0 db b3 11 00       	mov    0x11b3db,%al
  106eb2:	a2 60 aa 11 00       	mov    %al,0x11aa60
  106eb7:	c6 05 62 aa 11 00 00 	movb   $0x0,0x11aa62
  106ebe:	83 c4 1c             	add    $0x1c,%esp
  106ec1:	c3                   	ret    

00106ec2 <mouse_wait>:
  106ec2:	83 ec 1c             	sub    $0x1c,%esp
  106ec5:	8a 44 24 20          	mov    0x20(%esp),%al
  106ec9:	84 c0                	test   %al,%al
  106ecb:	75 12                	jne    106edf <mouse_wait+0x1d>
  106ecd:	c7 04 24 64 00 00 00 	movl   $0x64,(%esp)
  106ed4:	e8 c7 b8 ff ff       	call   1027a0 <inportb>
  106ed9:	a8 01                	test   $0x1,%al
  106edb:	74 f0                	je     106ecd <mouse_wait+0xb>
  106edd:	eb 14                	jmp    106ef3 <mouse_wait+0x31>
  106edf:	3c 01                	cmp    $0x1,%al
  106ee1:	75 10                	jne    106ef3 <mouse_wait+0x31>
  106ee3:	c7 04 24 64 00 00 00 	movl   $0x64,(%esp)
  106eea:	e8 b1 b8 ff ff       	call   1027a0 <inportb>
  106eef:	a8 02                	test   $0x2,%al
  106ef1:	75 f0                	jne    106ee3 <mouse_wait+0x21>
  106ef3:	83 c4 1c             	add    $0x1c,%esp
  106ef6:	c3                   	ret    

00106ef7 <mouse_read>:
  106ef7:	83 ec 1c             	sub    $0x1c,%esp
  106efa:	c7 04 24 00 00 00 00 	movl   $0x0,(%esp)
  106f01:	e8 bc ff ff ff       	call   106ec2 <mouse_wait>
  106f06:	c7 04 24 60 00 00 00 	movl   $0x60,(%esp)
  106f0d:	e8 8e b8 ff ff       	call   1027a0 <inportb>
  106f12:	83 c4 1c             	add    $0x1c,%esp
  106f15:	c3                   	ret    

00106f16 <mouse_write>:
  106f16:	53                   	push   %ebx
  106f17:	83 ec 18             	sub    $0x18,%esp
  106f1a:	8a 5c 24 20          	mov    0x20(%esp),%bl
  106f1e:	c7 04 24 01 00 00 00 	movl   $0x1,(%esp)
  106f25:	e8 98 ff ff ff       	call   106ec2 <mouse_wait>
  106f2a:	c7 44 24 04 d4 00 00 	movl   $0xd4,0x4(%esp)
  106f31:	00 
  106f32:	c7 04 24 64 00 00 00 	movl   $0x64,(%esp)
  106f39:	e8 6f b8 ff ff       	call   1027ad <outportb>
  106f3e:	c7 04 24 01 00 00 00 	movl   $0x1,(%esp)
  106f45:	e8 78 ff ff ff       	call   106ec2 <mouse_wait>
  106f4a:	81 e3 ff 00 00 00    	and    $0xff,%ebx
  106f50:	89 5c 24 04          	mov    %ebx,0x4(%esp)
  106f54:	c7 04 24 60 00 00 00 	movl   $0x60,(%esp)
  106f5b:	e8 4d b8 ff ff       	call   1027ad <outportb>
  106f60:	83 c4 18             	add    $0x18,%esp
  106f63:	5b                   	pop    %ebx
  106f64:	c3                   	ret    

00106f65 <mouse_install>:
  106f65:	53                   	push   %ebx
  106f66:	83 ec 18             	sub    $0x18,%esp
  106f69:	c7 04 24 01 00 00 00 	movl   $0x1,(%esp)
  106f70:	e8 4d ff ff ff       	call   106ec2 <mouse_wait>
  106f75:	c7 44 24 04 a8 00 00 	movl   $0xa8,0x4(%esp)
  106f7c:	00 
  106f7d:	c7 04 24 64 00 00 00 	movl   $0x64,(%esp)
  106f84:	e8 24 b8 ff ff       	call   1027ad <outportb>
  106f89:	c7 04 24 01 00 00 00 	movl   $0x1,(%esp)
  106f90:	e8 2d ff ff ff       	call   106ec2 <mouse_wait>
  106f95:	c7 44 24 04 20 00 00 	movl   $0x20,0x4(%esp)
  106f9c:	00 
  106f9d:	c7 04 24 64 00 00 00 	movl   $0x64,(%esp)
  106fa4:	e8 04 b8 ff ff       	call   1027ad <outportb>
  106fa9:	c7 04 24 00 00 00 00 	movl   $0x0,(%esp)
  106fb0:	e8 0d ff ff ff       	call   106ec2 <mouse_wait>
  106fb5:	c7 04 24 60 00 00 00 	movl   $0x60,(%esp)
  106fbc:	e8 df b7 ff ff       	call   1027a0 <inportb>
  106fc1:	88 c3                	mov    %al,%bl
  106fc3:	c7 04 24 01 00 00 00 	movl   $0x1,(%esp)
  106fca:	e8 f3 fe ff ff       	call   106ec2 <mouse_wait>
  106fcf:	c7 44 24 04 60 00 00 	movl   $0x60,0x4(%esp)
  106fd6:	00 
  106fd7:	c7 04 24 64 00 00 00 	movl   $0x64,(%esp)
  106fde:	e8 ca b7 ff ff       	call   1027ad <outportb>
  106fe3:	c7 04 24 01 00 00 00 	movl   $0x1,(%esp)
  106fea:	e8 d3 fe ff ff       	call   106ec2 <mouse_wait>
  106fef:	83 cb 02             	or     $0x2,%ebx
  106ff2:	81 e3 ff 00 00 00    	and    $0xff,%ebx
  106ff8:	89 5c 24 04          	mov    %ebx,0x4(%esp)
  106ffc:	c7 04 24 60 00 00 00 	movl   $0x60,(%esp)
  107003:	e8 a5 b7 ff ff       	call   1027ad <outportb>
  107008:	c7 04 24 f6 00 00 00 	movl   $0xf6,(%esp)
  10700f:	e8 02 ff ff ff       	call   106f16 <mouse_write>
  107014:	e8 de fe ff ff       	call   106ef7 <mouse_read>
  107019:	c7 04 24 f4 00 00 00 	movl   $0xf4,(%esp)
  107020:	e8 f1 fe ff ff       	call   106f16 <mouse_write>
  107025:	e8 cd fe ff ff       	call   106ef7 <mouse_read>
  10702a:	c7 44 24 04 40 6e 10 	movl   $0x106e40,0x4(%esp)
  107031:	00 
  107032:	c7 04 24 0c 00 00 00 	movl   $0xc,(%esp)
  107039:	e8 26 a9 ff ff       	call   101964 <irq_install_handler>
  10703e:	83 c4 18             	add    $0x18,%esp
  107041:	5b                   	pop    %ebx
  107042:	c3                   	ret    
  107043:	90                   	nop

00107044 <bit_set>:
  107044:	b8 01 00 00 00       	mov    $0x1,%eax
  107049:	8a 4c 24 08          	mov    0x8(%esp),%cl
  10704d:	d3 e0                	shl    %cl,%eax
  10704f:	0b 44 24 04          	or     0x4(%esp),%eax
  107053:	c3                   	ret    

00107054 <bit_clear>:
  107054:	b8 fe ff ff ff       	mov    $0xfffffffe,%eax
  107059:	8a 4c 24 08          	mov    0x8(%esp),%cl
  10705d:	d3 c0                	rol    %cl,%eax
  10705f:	23 44 24 04          	and    0x4(%esp),%eax
  107063:	c3                   	ret    

00107064 <bit_test>:
  107064:	b8 01 00 00 00       	mov    $0x1,%eax
  107069:	8a 4c 24 08          	mov    0x8(%esp),%cl
  10706d:	d3 e0                	shl    %cl,%eax
  10706f:	23 44 24 04          	and    0x4(%esp),%eax
  107073:	c3                   	ret    

00107074 <bit_toggle>:
  107074:	b8 01 00 00 00       	mov    $0x1,%eax
  107079:	8a 4c 24 08          	mov    0x8(%esp),%cl
  10707d:	d3 e0                	shl    %cl,%eax
  10707f:	33 44 24 04          	xor    0x4(%esp),%eax
  107083:	c3                   	ret    

00107084 <pow>:
  107084:	83 ec 1c             	sub    $0x1c,%esp
  107087:	8b 54 24 24          	mov    0x24(%esp),%edx
  10708b:	b8 01 00 00 00       	mov    $0x1,%eax
  107090:	85 d2                	test   %edx,%edx
  107092:	74 16                	je     1070aa <pow+0x26>
  107094:	4a                   	dec    %edx
  107095:	89 54 24 04          	mov    %edx,0x4(%esp)
  107099:	8b 44 24 20          	mov    0x20(%esp),%eax
  10709d:	89 04 24             	mov    %eax,(%esp)
  1070a0:	e8 df ff ff ff       	call   107084 <pow>
  1070a5:	0f af 44 24 20       	imul   0x20(%esp),%eax
  1070aa:	83 c4 1c             	add    $0x1c,%esp
  1070ad:	c3                   	ret    

001070ae <ceil>:
  1070ae:	8b 4c 24 08          	mov    0x8(%esp),%ecx
  1070b2:	8b 44 24 04          	mov    0x4(%esp),%eax
  1070b6:	89 c2                	mov    %eax,%edx
  1070b8:	c1 fa 1f             	sar    $0x1f,%edx
  1070bb:	f7 f9                	idiv   %ecx
  1070bd:	85 d2                	test   %edx,%edx
  1070bf:	75 0c                	jne    1070cd <ceil+0x1f>
  1070c1:	8b 44 24 04          	mov    0x4(%esp),%eax
  1070c5:	89 c2                	mov    %eax,%edx
  1070c7:	c1 fa 1f             	sar    $0x1f,%edx
  1070ca:	f7 f9                	idiv   %ecx
  1070cc:	c3                   	ret    
  1070cd:	8b 44 24 04          	mov    0x4(%esp),%eax
  1070d1:	29 d0                	sub    %edx,%eax
  1070d3:	89 c2                	mov    %eax,%edx
  1070d5:	c1 fa 1f             	sar    $0x1f,%edx
  1070d8:	f7 f9                	idiv   %ecx
  1070da:	40                   	inc    %eax
  1070db:	c3                   	ret    

001070dc <floor>:
  1070dc:	8b 4c 24 08          	mov    0x8(%esp),%ecx
  1070e0:	8b 44 24 04          	mov    0x4(%esp),%eax
  1070e4:	89 c2                	mov    %eax,%edx
  1070e6:	c1 fa 1f             	sar    $0x1f,%edx
  1070e9:	f7 f9                	idiv   %ecx
  1070eb:	85 d2                	test   %edx,%edx
  1070ed:	75 0c                	jne    1070fb <floor+0x1f>
  1070ef:	8b 44 24 04          	mov    0x4(%esp),%eax
  1070f3:	89 c2                	mov    %eax,%edx
  1070f5:	c1 fa 1f             	sar    $0x1f,%edx
  1070f8:	f7 f9                	idiv   %ecx
  1070fa:	c3                   	ret    
  1070fb:	8b 44 24 04          	mov    0x4(%esp),%eax
  1070ff:	29 d0                	sub    %edx,%eax
  107101:	89 c2                	mov    %eax,%edx
  107103:	c1 fa 1f             	sar    $0x1f,%edx
  107106:	f7 f9                	idiv   %ecx
  107108:	c3                   	ret    

00107109 <abs>:
  107109:	8b 44 24 04          	mov    0x4(%esp),%eax
  10710d:	89 c2                	mov    %eax,%edx
  10710f:	c1 fa 1f             	sar    $0x1f,%edx
  107112:	31 d0                	xor    %edx,%eax
  107114:	29 d0                	sub    %edx,%eax
  107116:	c3                   	ret    
  107117:	90                   	nop

00107118 <standard_lessthan_predicate>:
  107118:	8b 44 24 08          	mov    0x8(%esp),%eax
  10711c:	39 44 24 04          	cmp    %eax,0x4(%esp)
  107120:	0f 92 c0             	setb   %al
  107123:	c3                   	ret    

00107124 <create_ordered_array>:
  107124:	55                   	push   %ebp
  107125:	57                   	push   %edi
  107126:	56                   	push   %esi
  107127:	53                   	push   %ebx
  107128:	83 ec 1c             	sub    $0x1c,%esp
  10712b:	8b 5c 24 30          	mov    0x30(%esp),%ebx
  10712f:	8b 74 24 34          	mov    0x34(%esp),%esi
  107133:	8d 2c b5 00 00 00 00 	lea    0x0(,%esi,4),%ebp
  10713a:	89 2c 24             	mov    %ebp,(%esp)
  10713d:	e8 45 cd ff ff       	call   103e87 <kmalloc>
  107142:	89 c7                	mov    %eax,%edi
  107144:	89 6c 24 08          	mov    %ebp,0x8(%esp)
  107148:	c7 44 24 04 00 00 00 	movl   $0x0,0x4(%esp)
  10714f:	00 
  107150:	89 04 24             	mov    %eax,(%esp)
  107153:	e8 65 01 00 00       	call   1072bd <memset>
  107158:	89 3b                	mov    %edi,(%ebx)
  10715a:	c7 43 04 00 00 00 00 	movl   $0x0,0x4(%ebx)
  107161:	89 73 08             	mov    %esi,0x8(%ebx)
  107164:	8b 44 24 38          	mov    0x38(%esp),%eax
  107168:	89 43 0c             	mov    %eax,0xc(%ebx)
  10716b:	89 d8                	mov    %ebx,%eax
  10716d:	83 c4 1c             	add    $0x1c,%esp
  107170:	5b                   	pop    %ebx
  107171:	5e                   	pop    %esi
  107172:	5f                   	pop    %edi
  107173:	5d                   	pop    %ebp
  107174:	c2 04 00             	ret    $0x4

00107177 <place_ordered_array>:
  107177:	57                   	push   %edi
  107178:	56                   	push   %esi
  107179:	53                   	push   %ebx
  10717a:	83 ec 10             	sub    $0x10,%esp
  10717d:	8b 5c 24 20          	mov    0x20(%esp),%ebx
  107181:	8b 7c 24 24          	mov    0x24(%esp),%edi
  107185:	8b 74 24 28          	mov    0x28(%esp),%esi
  107189:	8d 04 b5 00 00 00 00 	lea    0x0(,%esi,4),%eax
  107190:	89 44 24 08          	mov    %eax,0x8(%esp)
  107194:	c7 44 24 04 00 00 00 	movl   $0x0,0x4(%esp)
  10719b:	00 
  10719c:	89 3c 24             	mov    %edi,(%esp)
  10719f:	e8 19 01 00 00       	call   1072bd <memset>
  1071a4:	89 3b                	mov    %edi,(%ebx)
  1071a6:	c7 43 04 00 00 00 00 	movl   $0x0,0x4(%ebx)
  1071ad:	89 73 08             	mov    %esi,0x8(%ebx)
  1071b0:	8b 44 24 2c          	mov    0x2c(%esp),%eax
  1071b4:	89 43 0c             	mov    %eax,0xc(%ebx)
  1071b7:	89 d8                	mov    %ebx,%eax
  1071b9:	83 c4 10             	add    $0x10,%esp
  1071bc:	5b                   	pop    %ebx
  1071bd:	5e                   	pop    %esi
  1071be:	5f                   	pop    %edi
  1071bf:	c2 04 00             	ret    $0x4

001071c2 <destroy_ordered_array>:
  1071c2:	83 ec 1c             	sub    $0x1c,%esp
  1071c5:	8b 44 24 20          	mov    0x20(%esp),%eax
  1071c9:	8b 00                	mov    (%eax),%eax
  1071cb:	89 04 24             	mov    %eax,(%esp)
  1071ce:	e8 62 d0 ff ff       	call   104235 <kfree>
  1071d3:	83 c4 1c             	add    $0x1c,%esp
  1071d6:	c3                   	ret    

001071d7 <insert_ordered_array>:
  1071d7:	57                   	push   %edi
  1071d8:	56                   	push   %esi
  1071d9:	53                   	push   %ebx
  1071da:	83 ec 10             	sub    $0x10,%esp
  1071dd:	8b 7c 24 20          	mov    0x20(%esp),%edi
  1071e1:	8b 74 24 24          	mov    0x24(%esp),%esi
  1071e5:	8b 46 04             	mov    0x4(%esi),%eax
  1071e8:	bb 00 00 00 00       	mov    $0x0,%ebx
  1071ed:	85 c0                	test   %eax,%eax
  1071ef:	75 08                	jne    1071f9 <insert_ordered_array+0x22>
  1071f1:	eb 20                	jmp    107213 <insert_ordered_array+0x3c>
  1071f3:	43                   	inc    %ebx
  1071f4:	39 5e 04             	cmp    %ebx,0x4(%esi)
  1071f7:	76 13                	jbe    10720c <insert_ordered_array+0x35>
  1071f9:	89 7c 24 04          	mov    %edi,0x4(%esp)
  1071fd:	8b 06                	mov    (%esi),%eax
  1071ff:	8b 04 98             	mov    (%eax,%ebx,4),%eax
  107202:	89 04 24             	mov    %eax,(%esp)
  107205:	ff 56 0c             	call   *0xc(%esi)
  107208:	84 c0                	test   %al,%al
  10720a:	75 e7                	jne    1071f3 <insert_ordered_array+0x1c>
  10720c:	8b 46 04             	mov    0x4(%esi),%eax
  10720f:	39 d8                	cmp    %ebx,%eax
  107211:	75 0b                	jne    10721e <insert_ordered_array+0x47>
  107213:	8b 16                	mov    (%esi),%edx
  107215:	89 3c 82             	mov    %edi,(%edx,%eax,4)
  107218:	40                   	inc    %eax
  107219:	89 46 04             	mov    %eax,0x4(%esi)
  10721c:	eb 30                	jmp    10724e <insert_ordered_array+0x77>
  10721e:	8b 06                	mov    (%esi),%eax
  107220:	8d 04 98             	lea    (%eax,%ebx,4),%eax
  107223:	8b 08                	mov    (%eax),%ecx
  107225:	89 38                	mov    %edi,(%eax)
  107227:	8b 56 04             	mov    0x4(%esi),%edx
  10722a:	39 da                	cmp    %ebx,%edx
  10722c:	76 1c                	jbe    10724a <insert_ordered_array+0x73>
  10722e:	8d 04 9d 04 00 00 00 	lea    0x4(,%ebx,4),%eax
  107235:	43                   	inc    %ebx
  107236:	8b 16                	mov    (%esi),%edx
  107238:	01 c2                	add    %eax,%edx
  10723a:	8b 3a                	mov    (%edx),%edi
  10723c:	89 0a                	mov    %ecx,(%edx)
  10723e:	8b 56 04             	mov    0x4(%esi),%edx
  107241:	83 c0 04             	add    $0x4,%eax
  107244:	89 f9                	mov    %edi,%ecx
  107246:	39 da                	cmp    %ebx,%edx
  107248:	77 eb                	ja     107235 <insert_ordered_array+0x5e>
  10724a:	42                   	inc    %edx
  10724b:	89 56 04             	mov    %edx,0x4(%esi)
  10724e:	83 c4 10             	add    $0x10,%esp
  107251:	5b                   	pop    %ebx
  107252:	5e                   	pop    %esi
  107253:	5f                   	pop    %edi
  107254:	c3                   	ret    

00107255 <lookup_ordered_array>:
  107255:	8b 44 24 08          	mov    0x8(%esp),%eax
  107259:	8b 00                	mov    (%eax),%eax
  10725b:	8b 54 24 04          	mov    0x4(%esp),%edx
  10725f:	8b 04 90             	mov    (%eax,%edx,4),%eax
  107262:	c3                   	ret    

00107263 <remove_ordered_array>:
  107263:	56                   	push   %esi
  107264:	53                   	push   %ebx
  107265:	8b 54 24 0c          	mov    0xc(%esp),%edx
  107269:	8b 5c 24 10          	mov    0x10(%esp),%ebx
  10726d:	8b 4b 04             	mov    0x4(%ebx),%ecx
  107270:	39 ca                	cmp    %ecx,%edx
  107272:	73 1c                	jae    107290 <remove_ordered_array+0x2d>
  107274:	8d 04 95 00 00 00 00 	lea    0x0(,%edx,4),%eax
  10727b:	8b 0b                	mov    (%ebx),%ecx
  10727d:	8d 34 01             	lea    (%ecx,%eax,1),%esi
  107280:	42                   	inc    %edx
  107281:	83 c0 04             	add    $0x4,%eax
  107284:	8b 0c 01             	mov    (%ecx,%eax,1),%ecx
  107287:	89 0e                	mov    %ecx,(%esi)
  107289:	8b 4b 04             	mov    0x4(%ebx),%ecx
  10728c:	39 d1                	cmp    %edx,%ecx
  10728e:	77 eb                	ja     10727b <remove_ordered_array+0x18>
  107290:	49                   	dec    %ecx
  107291:	89 4b 04             	mov    %ecx,0x4(%ebx)
  107294:	5b                   	pop    %ebx
  107295:	5e                   	pop    %esi
  107296:	c3                   	ret    
  107297:	90                   	nop

00107298 <memcpy>:
  107298:	53                   	push   %ebx
  107299:	8b 5c 24 10          	mov    0x10(%esp),%ebx
  10729d:	85 db                	test   %ebx,%ebx
  10729f:	74 16                	je     1072b7 <memcpy+0x1f>
  1072a1:	03 5c 24 0c          	add    0xc(%esp),%ebx
  1072a5:	8b 4c 24 08          	mov    0x8(%esp),%ecx
  1072a9:	8b 54 24 0c          	mov    0xc(%esp),%edx
  1072ad:	8a 02                	mov    (%edx),%al
  1072af:	88 01                	mov    %al,(%ecx)
  1072b1:	41                   	inc    %ecx
  1072b2:	42                   	inc    %edx
  1072b3:	39 da                	cmp    %ebx,%edx
  1072b5:	75 f6                	jne    1072ad <memcpy+0x15>
  1072b7:	8b 44 24 08          	mov    0x8(%esp),%eax
  1072bb:	5b                   	pop    %ebx
  1072bc:	c3                   	ret    

001072bd <memset>:
  1072bd:	53                   	push   %ebx
  1072be:	8b 44 24 08          	mov    0x8(%esp),%eax
  1072c2:	8b 5c 24 10          	mov    0x10(%esp),%ebx
  1072c6:	8a 4c 24 0c          	mov    0xc(%esp),%cl
  1072ca:	85 db                	test   %ebx,%ebx
  1072cc:	74 0b                	je     1072d9 <memset+0x1c>
  1072ce:	01 c3                	add    %eax,%ebx
  1072d0:	89 c2                	mov    %eax,%edx
  1072d2:	88 0a                	mov    %cl,(%edx)
  1072d4:	42                   	inc    %edx
  1072d5:	39 da                	cmp    %ebx,%edx
  1072d7:	75 f9                	jne    1072d2 <memset+0x15>
  1072d9:	5b                   	pop    %ebx
  1072da:	c3                   	ret    

001072db <memsetw>:
  1072db:	53                   	push   %ebx
  1072dc:	8b 44 24 08          	mov    0x8(%esp),%eax
  1072e0:	8b 54 24 10          	mov    0x10(%esp),%edx
  1072e4:	8b 5c 24 0c          	mov    0xc(%esp),%ebx
  1072e8:	85 d2                	test   %edx,%edx
  1072ea:	74 0b                	je     1072f7 <memsetw+0x1c>
  1072ec:	89 c1                	mov    %eax,%ecx
  1072ee:	66 89 19             	mov    %bx,(%ecx)
  1072f1:	83 c1 02             	add    $0x2,%ecx
  1072f4:	4a                   	dec    %edx
  1072f5:	75 f7                	jne    1072ee <memsetw+0x13>
  1072f7:	5b                   	pop    %ebx
  1072f8:	c3                   	ret    

001072f9 <memequal>:
  1072f9:	55                   	push   %ebp
  1072fa:	57                   	push   %edi
  1072fb:	56                   	push   %esi
  1072fc:	53                   	push   %ebx
  1072fd:	8b 7c 24 14          	mov    0x14(%esp),%edi
  107301:	8b 6c 24 18          	mov    0x18(%esp),%ebp
  107305:	8b 74 24 1c          	mov    0x1c(%esp),%esi
  107309:	85 f6                	test   %esi,%esi
  10730b:	74 30                	je     10733d <memequal+0x44>
  10730d:	bb 00 00 00 00       	mov    $0x0,%ebx
  107312:	b0 01                	mov    $0x1,%al
  107314:	ba 00 00 00 00       	mov    $0x0,%edx
  107319:	b9 00 00 00 00       	mov    $0x0,%ecx
  10731e:	84 c0                	test   %al,%al
  107320:	74 10                	je     107332 <memequal+0x39>
  107322:	8a 44 1d 00          	mov    0x0(%ebp,%ebx,1),%al
  107326:	38 04 1f             	cmp    %al,(%edi,%ebx,1)
  107329:	0f 94 c1             	sete   %cl
  10732c:	81 e1 ff 00 00 00    	and    $0xff,%ecx
  107332:	88 c8                	mov    %cl,%al
  107334:	42                   	inc    %edx
  107335:	89 d3                	mov    %edx,%ebx
  107337:	39 f2                	cmp    %esi,%edx
  107339:	75 de                	jne    107319 <memequal+0x20>
  10733b:	eb 02                	jmp    10733f <memequal+0x46>
  10733d:	b0 01                	mov    $0x1,%al
  10733f:	5b                   	pop    %ebx
  107340:	5e                   	pop    %esi
  107341:	5f                   	pop    %edi
  107342:	5d                   	pop    %ebp
  107343:	c3                   	ret    

00107344 <strlen>:
  107344:	8b 54 24 04          	mov    0x4(%esp),%edx
  107348:	80 3a 00             	cmpb   $0x0,(%edx)
  10734b:	74 0d                	je     10735a <strlen+0x16>
  10734d:	b8 00 00 00 00       	mov    $0x0,%eax
  107352:	40                   	inc    %eax
  107353:	80 3c 02 00          	cmpb   $0x0,(%edx,%eax,1)
  107357:	75 f9                	jne    107352 <strlen+0xe>
  107359:	c3                   	ret    
  10735a:	b8 00 00 00 00       	mov    $0x0,%eax
  10735f:	c3                   	ret    

00107360 <strcpy>:
  107360:	53                   	push   %ebx
  107361:	83 ec 0c             	sub    $0xc,%esp
  107364:	8b 5c 24 18          	mov    0x18(%esp),%ebx
  107368:	89 1c 24             	mov    %ebx,(%esp)
  10736b:	e8 d4 ff ff ff       	call   107344 <strlen>
  107370:	40                   	inc    %eax
  107371:	89 44 24 08          	mov    %eax,0x8(%esp)
  107375:	89 5c 24 04          	mov    %ebx,0x4(%esp)
  107379:	8b 44 24 14          	mov    0x14(%esp),%eax
  10737d:	89 04 24             	mov    %eax,(%esp)
  107380:	e8 13 ff ff ff       	call   107298 <memcpy>
  107385:	83 c4 0c             	add    $0xc,%esp
  107388:	5b                   	pop    %ebx
  107389:	c3                   	ret    

0010738a <strncpy>:
  10738a:	83 ec 0c             	sub    $0xc,%esp
  10738d:	8b 44 24 18          	mov    0x18(%esp),%eax
  107391:	40                   	inc    %eax
  107392:	89 44 24 08          	mov    %eax,0x8(%esp)
  107396:	8b 44 24 14          	mov    0x14(%esp),%eax
  10739a:	89 44 24 04          	mov    %eax,0x4(%esp)
  10739e:	8b 44 24 10          	mov    0x10(%esp),%eax
  1073a2:	89 04 24             	mov    %eax,(%esp)
  1073a5:	e8 ee fe ff ff       	call   107298 <memcpy>
  1073aa:	83 c4 0c             	add    $0xc,%esp
  1073ad:	c3                   	ret    

001073ae <strequal>:
  1073ae:	57                   	push   %edi
  1073af:	56                   	push   %esi
  1073b0:	53                   	push   %ebx
  1073b1:	83 ec 04             	sub    $0x4,%esp
  1073b4:	8b 74 24 14          	mov    0x14(%esp),%esi
  1073b8:	8b 7c 24 18          	mov    0x18(%esp),%edi
  1073bc:	89 34 24             	mov    %esi,(%esp)
  1073bf:	e8 80 ff ff ff       	call   107344 <strlen>
  1073c4:	89 c3                	mov    %eax,%ebx
  1073c6:	89 3c 24             	mov    %edi,(%esp)
  1073c9:	e8 76 ff ff ff       	call   107344 <strlen>
  1073ce:	b1 00                	mov    $0x0,%cl
  1073d0:	39 c3                	cmp    %eax,%ebx
  1073d2:	75 2d                	jne    107401 <strequal+0x53>
  1073d4:	85 db                	test   %ebx,%ebx
  1073d6:	7e 27                	jle    1073ff <strequal+0x51>
  1073d8:	ba 00 00 00 00       	mov    $0x0,%edx
  1073dd:	b1 01                	mov    $0x1,%cl
  1073df:	b8 00 00 00 00       	mov    $0x0,%eax
  1073e4:	84 c9                	test   %cl,%cl
  1073e6:	74 0e                	je     1073f6 <strequal+0x48>
  1073e8:	8a 04 17             	mov    (%edi,%edx,1),%al
  1073eb:	38 04 16             	cmp    %al,(%esi,%edx,1)
  1073ee:	0f 94 c0             	sete   %al
  1073f1:	25 ff 00 00 00       	and    $0xff,%eax
  1073f6:	88 c1                	mov    %al,%cl
  1073f8:	42                   	inc    %edx
  1073f9:	39 da                	cmp    %ebx,%edx
  1073fb:	75 e2                	jne    1073df <strequal+0x31>
  1073fd:	eb 02                	jmp    107401 <strequal+0x53>
  1073ff:	b1 01                	mov    $0x1,%cl
  107401:	88 c8                	mov    %cl,%al
  107403:	83 c4 04             	add    $0x4,%esp
  107406:	5b                   	pop    %ebx
  107407:	5e                   	pop    %esi
  107408:	5f                   	pop    %edi
  107409:	c3                   	ret    

0010740a <strnequal>:
  10740a:	57                   	push   %edi
  10740b:	56                   	push   %esi
  10740c:	53                   	push   %ebx
  10740d:	8b 74 24 10          	mov    0x10(%esp),%esi
  107411:	8b 7c 24 14          	mov    0x14(%esp),%edi
  107415:	8b 5c 24 18          	mov    0x18(%esp),%ebx
  107419:	85 db                	test   %ebx,%ebx
  10741b:	74 2a                	je     107447 <strnequal+0x3d>
  10741d:	b9 00 00 00 00       	mov    $0x0,%ecx
  107422:	ba 00 00 00 00       	mov    $0x0,%edx
  107427:	b8 01 00 00 00       	mov    $0x1,%eax
  10742c:	85 c0                	test   %eax,%eax
  10742e:	74 0e                	je     10743e <strnequal+0x34>
  107430:	8a 04 0f             	mov    (%edi,%ecx,1),%al
  107433:	38 04 0e             	cmp    %al,(%esi,%ecx,1)
  107436:	0f 94 c0             	sete   %al
  107439:	25 ff 00 00 00       	and    $0xff,%eax
  10743e:	42                   	inc    %edx
  10743f:	89 d1                	mov    %edx,%ecx
  107441:	39 da                	cmp    %ebx,%edx
  107443:	75 e7                	jne    10742c <strnequal+0x22>
  107445:	eb 05                	jmp    10744c <strnequal+0x42>
  107447:	b8 01 00 00 00       	mov    $0x1,%eax
  10744c:	5b                   	pop    %ebx
  10744d:	5e                   	pop    %esi
  10744e:	5f                   	pop    %edi
  10744f:	c3                   	ret    

00107450 <strlower>:
  107450:	56                   	push   %esi
  107451:	53                   	push   %ebx
  107452:	83 ec 04             	sub    $0x4,%esp
  107455:	8b 74 24 10          	mov    0x10(%esp),%esi
  107459:	bb 00 00 00 00       	mov    $0x0,%ebx
  10745e:	eb 11                	jmp    107471 <strlower+0x21>
  107460:	89 d8                	mov    %ebx,%eax
  107462:	8a 14 1e             	mov    (%esi,%ebx,1),%dl
  107465:	f6 c2 01             	test   $0x1,%dl
  107468:	74 03                	je     10746d <strlower+0x1d>
  10746a:	83 c2 20             	add    $0x20,%edx
  10746d:	88 14 06             	mov    %dl,(%esi,%eax,1)
  107470:	43                   	inc    %ebx
  107471:	89 34 24             	mov    %esi,(%esp)
  107474:	e8 cb fe ff ff       	call   107344 <strlen>
  107479:	39 c3                	cmp    %eax,%ebx
  10747b:	7c e3                	jl     107460 <strlower+0x10>
  10747d:	89 f0                	mov    %esi,%eax
  10747f:	83 c4 04             	add    $0x4,%esp
  107482:	5b                   	pop    %ebx
  107483:	5e                   	pop    %esi
  107484:	c3                   	ret    

00107485 <strupper>:
  107485:	56                   	push   %esi
  107486:	53                   	push   %ebx
  107487:	83 ec 04             	sub    $0x4,%esp
  10748a:	8b 74 24 10          	mov    0x10(%esp),%esi
  10748e:	bb 00 00 00 00       	mov    $0x0,%ebx
  107493:	eb 11                	jmp    1074a6 <strupper+0x21>
  107495:	89 d8                	mov    %ebx,%eax
  107497:	8a 14 1e             	mov    (%esi,%ebx,1),%dl
  10749a:	f6 c2 02             	test   $0x2,%dl
  10749d:	74 03                	je     1074a2 <strupper+0x1d>
  10749f:	83 ea 20             	sub    $0x20,%edx
  1074a2:	88 14 06             	mov    %dl,(%esi,%eax,1)
  1074a5:	43                   	inc    %ebx
  1074a6:	89 34 24             	mov    %esi,(%esp)
  1074a9:	e8 96 fe ff ff       	call   107344 <strlen>
  1074ae:	39 c3                	cmp    %eax,%ebx
  1074b0:	7c e3                	jl     107495 <strupper+0x10>
  1074b2:	89 f0                	mov    %esi,%eax
  1074b4:	83 c4 04             	add    $0x4,%esp
  1074b7:	5b                   	pop    %ebx
  1074b8:	5e                   	pop    %esi
  1074b9:	c3                   	ret    

001074ba <strcat>:
  1074ba:	55                   	push   %ebp
  1074bb:	57                   	push   %edi
  1074bc:	56                   	push   %esi
  1074bd:	53                   	push   %ebx
  1074be:	83 ec 2c             	sub    $0x2c,%esp
  1074c1:	8b 74 24 40          	mov    0x40(%esp),%esi
  1074c5:	8b 6c 24 44          	mov    0x44(%esp),%ebp
  1074c9:	89 34 24             	mov    %esi,(%esp)
  1074cc:	e8 73 fe ff ff       	call   107344 <strlen>
  1074d1:	89 c3                	mov    %eax,%ebx
  1074d3:	89 2c 24             	mov    %ebp,(%esp)
  1074d6:	e8 69 fe ff ff       	call   107344 <strlen>
  1074db:	8d 44 03 01          	lea    0x1(%ebx,%eax,1),%eax
  1074df:	89 04 24             	mov    %eax,(%esp)
  1074e2:	e8 a0 c9 ff ff       	call   103e87 <kmalloc>
  1074e7:	89 44 24 18          	mov    %eax,0x18(%esp)
  1074eb:	89 44 24 1c          	mov    %eax,0x1c(%esp)
  1074ef:	bb 00 00 00 00       	mov    $0x0,%ebx
  1074f4:	eb 0b                	jmp    107501 <strcat+0x47>
  1074f6:	8a 04 1e             	mov    (%esi,%ebx,1),%al
  1074f9:	8b 54 24 18          	mov    0x18(%esp),%edx
  1074fd:	88 04 13             	mov    %al,(%ebx,%edx,1)
  107500:	43                   	inc    %ebx
  107501:	89 34 24             	mov    %esi,(%esp)
  107504:	e8 3b fe ff ff       	call   107344 <strlen>
  107509:	39 c3                	cmp    %eax,%ebx
  10750b:	7c e9                	jl     1074f6 <strcat+0x3c>
  10750d:	bb 00 00 00 00       	mov    $0x0,%ebx
  107512:	eb 16                	jmp    10752a <strcat+0x70>
  107514:	89 34 24             	mov    %esi,(%esp)
  107517:	e8 28 fe ff ff       	call   107344 <strlen>
  10751c:	8b 54 24 1c          	mov    0x1c(%esp),%edx
  107520:	01 da                	add    %ebx,%edx
  107522:	8a 4c 1d 00          	mov    0x0(%ebp,%ebx,1),%cl
  107526:	88 0c 02             	mov    %cl,(%edx,%eax,1)
  107529:	43                   	inc    %ebx
  10752a:	89 2c 24             	mov    %ebp,(%esp)
  10752d:	e8 12 fe ff ff       	call   107344 <strlen>
  107532:	89 c7                	mov    %eax,%edi
  107534:	39 c3                	cmp    %eax,%ebx
  107536:	7c dc                	jl     107514 <strcat+0x5a>
  107538:	89 34 24             	mov    %esi,(%esp)
  10753b:	e8 04 fe ff ff       	call   107344 <strlen>
  107540:	03 7c 24 18          	add    0x18(%esp),%edi
  107544:	c6 04 07 00          	movb   $0x0,(%edi,%eax,1)
  107548:	8b 44 24 18          	mov    0x18(%esp),%eax
  10754c:	83 c4 2c             	add    $0x2c,%esp
  10754f:	5b                   	pop    %ebx
  107550:	5e                   	pop    %esi
  107551:	5f                   	pop    %edi
  107552:	5d                   	pop    %ebp
  107553:	c3                   	ret    

00107554 <strtok>:
  107554:	55                   	push   %ebp
  107555:	57                   	push   %edi
  107556:	56                   	push   %esi
  107557:	53                   	push   %ebx
  107558:	83 ec 1c             	sub    $0x1c,%esp
  10755b:	8b 44 24 30          	mov    0x30(%esp),%eax
  10755f:	8b 6c 24 34          	mov    0x34(%esp),%ebp
  107563:	8b 74 24 38          	mov    0x38(%esp),%esi
  107567:	85 c0                	test   %eax,%eax
  107569:	74 04                	je     10756f <strtok+0x1b>
  10756b:	89 06                	mov    %eax,(%esi)
  10756d:	eb 09                	jmp    107578 <strtok+0x24>
  10756f:	83 3e 00             	cmpl   $0x0,(%esi)
  107572:	0f 84 88 00 00 00    	je     107600 <strtok+0xac>
  107578:	bf 00 00 00 00       	mov    $0x0,%edi
  10757d:	eb 32                	jmp    1075b1 <strtok+0x5d>
  10757f:	80 3b 00             	cmpb   $0x0,(%ebx)
  107582:	75 29                	jne    1075ad <strtok+0x59>
  107584:	8d 6f 01             	lea    0x1(%edi),%ebp
  107587:	89 2c 24             	mov    %ebp,(%esp)
  10758a:	e8 f8 c8 ff ff       	call   103e87 <kmalloc>
  10758f:	89 c3                	mov    %eax,%ebx
  107591:	89 6c 24 08          	mov    %ebp,0x8(%esp)
  107595:	8b 06                	mov    (%esi),%eax
  107597:	29 f8                	sub    %edi,%eax
  107599:	89 44 24 04          	mov    %eax,0x4(%esp)
  10759d:	89 1c 24             	mov    %ebx,(%esp)
  1075a0:	e8 f3 fc ff ff       	call   107298 <memcpy>
  1075a5:	c7 06 00 00 00 00    	movl   $0x0,(%esi)
  1075ab:	eb 58                	jmp    107605 <strtok+0xb1>
  1075ad:	47                   	inc    %edi
  1075ae:	43                   	inc    %ebx
  1075af:	89 1e                	mov    %ebx,(%esi)
  1075b1:	89 2c 24             	mov    %ebp,(%esp)
  1075b4:	e8 8b fd ff ff       	call   107344 <strlen>
  1075b9:	8b 1e                	mov    (%esi),%ebx
  1075bb:	89 44 24 08          	mov    %eax,0x8(%esp)
  1075bf:	89 6c 24 04          	mov    %ebp,0x4(%esp)
  1075c3:	89 1c 24             	mov    %ebx,(%esp)
  1075c6:	e8 3f fe ff ff       	call   10740a <strnequal>
  1075cb:	84 c0                	test   %al,%al
  1075cd:	74 b0                	je     10757f <strtok+0x2b>
  1075cf:	8d 47 01             	lea    0x1(%edi),%eax
  1075d2:	89 04 24             	mov    %eax,(%esp)
  1075d5:	e8 ad c8 ff ff       	call   103e87 <kmalloc>
  1075da:	89 c3                	mov    %eax,%ebx
  1075dc:	89 7c 24 08          	mov    %edi,0x8(%esp)
  1075e0:	8b 06                	mov    (%esi),%eax
  1075e2:	29 f8                	sub    %edi,%eax
  1075e4:	89 44 24 04          	mov    %eax,0x4(%esp)
  1075e8:	89 1c 24             	mov    %ebx,(%esp)
  1075eb:	e8 a8 fc ff ff       	call   107298 <memcpy>
  1075f0:	c6 04 3b 00          	movb   $0x0,(%ebx,%edi,1)
  1075f4:	89 2c 24             	mov    %ebp,(%esp)
  1075f7:	e8 48 fd ff ff       	call   107344 <strlen>
  1075fc:	01 06                	add    %eax,(%esi)
  1075fe:	eb 05                	jmp    107605 <strtok+0xb1>
  107600:	bb 00 00 00 00       	mov    $0x0,%ebx
  107605:	89 d8                	mov    %ebx,%eax
  107607:	83 c4 1c             	add    $0x1c,%esp
  10760a:	5b                   	pop    %ebx
  10760b:	5e                   	pop    %esi
  10760c:	5f                   	pop    %edi
  10760d:	5d                   	pop    %ebp
  10760e:	c3                   	ret    

Disassembly of section .rodata:

00108000 <rodata>:
  108000:	49                   	dec    %ecx
  108001:	6e                   	outsb  %ds:(%esi),(%dx)
  108002:	76 61                	jbe    108065 <rodata+0x65>
  108004:	6c                   	insb   (%dx),%es:(%edi)
  108005:	69 64 20 56 4d 38 36 	imul   $0x2036384d,0x56(%eax,%eiz,1),%esp
  10800c:	20 
  10800d:	6f                   	outsl  %ds:(%esi),(%dx)
  10800e:	70 63                	jo     108073 <rodata+0x73>
  108010:	6f                   	outsl  %ds:(%esi),(%dx)
  108011:	64 65 0a 00          	fs or  %fs:%gs:(%eax),%al
  108015:	75 73                	jne    10808a <rodata+0x8a>
  108017:	65                   	gs
  108018:	72 00                	jb     10801a <rodata+0x1a>
  10801a:	73 75                	jae    108091 <rodata+0x91>
  10801c:	70 65                	jo     108083 <rodata+0x83>
  10801e:	72 76                	jb     108096 <rodata+0x96>
  108020:	69 73 6f 72 00 77 72 	imul   $0x72770072,0x6f(%ebx),%esi
  108027:	69 74 65 00 72 65 61 	imul   $0x64616572,0x0(%ebp,%eiz,2),%esi
  10802e:	64 
  10802f:	00 79 65             	add    %bh,0x65(%ecx)
  108032:	73 00                	jae    108034 <rodata+0x34>
  108034:	6e                   	outsb  %ds:(%esi),(%dx)
  108035:	6f                   	outsl  %ds:(%esi),(%dx)
  108036:	00 00                	add    %al,(%eax)
  108038:	55                   	push   %ebp
  108039:	6e                   	outsb  %ds:(%esi),(%dx)
  10803a:	68 61 6e 64 6c       	push   $0x6c646e61
  10803f:	65 64 20 47 65       	gs and %al,%fs:%gs:0x65(%edi)
  108044:	6e                   	outsb  %ds:(%esi),(%dx)
  108045:	65                   	gs
  108046:	72 61                	jb     1080a9 <rodata+0xa9>
  108048:	6c                   	insb   (%dx),%es:(%edi)
  108049:	20 50 72             	and    %dl,0x72(%eax)
  10804c:	6f                   	outsl  %ds:(%esi),(%dx)
  10804d:	74 65                	je     1080b4 <rodata+0xb4>
  10804f:	63 74 69 6f          	arpl   %si,0x6f(%ecx,%ebp,2)
  108053:	6e                   	outsb  %ds:(%esi),(%dx)
  108054:	20 46 61             	and    %al,0x61(%esi)
  108057:	75 6c                	jne    1080c5 <rodata+0xc5>
  108059:	74 20                	je     10807b <rodata+0x7b>
  10805b:	45                   	inc    %ebp
  10805c:	78 63                	js     1080c1 <rodata+0xc1>
  10805e:	65                   	gs
  10805f:	70 74                	jo     1080d5 <rodata+0xd5>
  108061:	69 6f 6e 20 61 74 20 	imul   $0x20746120,0x6e(%edi),%ebp
  108068:	30 78 25             	xor    %bh,0x25(%eax)
  10806b:	30 38                	xor    %bh,(%eax)
  10806d:	78 0a                	js     108079 <rodata+0x79>
  10806f:	00 55 6e             	add    %dl,0x6e(%ebp)
  108072:	68 61 6e 64 6c       	push   $0x6c646e61
  108077:	65 64 20 50 61       	gs and %dl,%fs:%gs:0x61(%eax)
  10807c:	67 65 20 46 61       	and    %al,%gs:0x61(%bp)
  108081:	75 6c                	jne    1080ef <rodata+0xef>
  108083:	74 20                	je     1080a5 <rodata+0xa5>
  108085:	45                   	inc    %ebp
  108086:	78 63                	js     1080eb <rodata+0xeb>
  108088:	65                   	gs
  108089:	70 74                	jo     1080ff <rodata+0xff>
  10808b:	69 6f 6e 20 61 74 20 	imul   $0x20746120,0x6e(%edi),%ebp
  108092:	30 78 25             	xor    %bh,0x25(%eax)
  108095:	30 38                	xor    %bh,(%eax)
  108097:	78 2c                	js     1080c5 <rodata+0xc5>
  108099:	20 65 72             	and    %ah,0x72(%ebp)
  10809c:	72 6f                	jb     10810d <rodata+0x10d>
  10809e:	72 20                	jb     1080c0 <rodata+0xc0>
  1080a0:	63 6f 64             	arpl   %bp,0x64(%edi)
  1080a3:	65 20 30             	and    %dh,%gs:(%eax)
  1080a6:	78 25                	js     1080cd <rodata+0xcd>
  1080a8:	30 38                	xor    %bh,(%eax)
  1080aa:	78 0a                	js     1080b6 <rodata+0xb6>
  1080ac:	00 00                	add    %al,(%eax)
  1080ae:	00 00                	add    %al,(%eax)
  1080b0:	50                   	push   %eax
  1080b1:	72 65                	jb     108118 <rodata+0x118>
  1080b3:	73 65                	jae    10811a <rodata+0x11a>
  1080b5:	6e                   	outsb  %ds:(%esi),(%dx)
  1080b6:	74 3a                	je     1080f2 <rodata+0xf2>
  1080b8:	20 25 73 2c 20 41    	and    %ah,0x41202c73
  1080be:	63 63 65             	arpl   %sp,0x65(%ebx)
  1080c1:	73 73                	jae    108136 <rodata+0x136>
  1080c3:	3a 20                	cmp    (%eax),%ah
  1080c5:	25 73 2c 20 4d       	and    $0x4d202c73,%eax
  1080ca:	6f                   	outsl  %ds:(%esi),(%dx)
  1080cb:	64 65 3a 20          	fs cmp %fs:%gs:(%eax),%ah
  1080cf:	25 73 0a 00 52       	and    $0x52000a73,%eax
  1080d4:	65 67 69 73 74 65 72 	imul   $0x44207265,%gs:0x74(%bp,%di),%esi
  1080db:	20 44 
  1080dd:	75 6d                	jne    10814c <rodata+0x14c>
  1080df:	70 0a                	jo     1080eb <rodata+0xeb>
  1080e1:	0a 00                	or     (%eax),%al
  1080e3:	45                   	inc    %ebp
  1080e4:	49                   	dec    %ecx
  1080e5:	50                   	push   %eax
  1080e6:	3a 20                	cmp    (%eax),%ah
  1080e8:	25 30 38 78 20       	and    $0x20783830,%eax
  1080ed:	45                   	inc    %ebp
  1080ee:	46                   	inc    %esi
  1080ef:	4c                   	dec    %esp
  1080f0:	41                   	inc    %ecx
  1080f1:	47                   	inc    %edi
  1080f2:	53                   	push   %ebx
  1080f3:	3a 20                	cmp    (%eax),%ah
  1080f5:	25 30 38 78 0a       	and    $0xa783830,%eax
  1080fa:	00 25 30 38 78 20    	add    %ah,0x20783830
  108100:	00 44 69 76          	add    %al,0x76(%ecx,%ebp,2)
  108104:	69 73 69 6f 6e 20 42 	imul   $0x42206e6f,0x69(%ebx),%esi
  10810b:	79 20                	jns    10812d <rodata+0x12d>
  10810d:	5a                   	pop    %edx
  10810e:	65                   	gs
  10810f:	72 6f                	jb     108180 <rodata+0x180>
  108111:	00 44 65 62          	add    %al,0x62(%ebp,%eiz,2)
  108115:	75 67                	jne    10817e <rodata+0x17e>
  108117:	00 4e 6f             	add    %cl,0x6f(%esi)
  10811a:	6e                   	outsb  %ds:(%esi),(%dx)
  10811b:	20 4d 61             	and    %cl,0x61(%ebp)
  10811e:	73 6b                	jae    10818b <rodata+0x18b>
  108120:	61                   	popa   
  108121:	62 6c 65 20          	bound  %ebp,0x20(%ebp,%eiz,2)
  108125:	49                   	dec    %ecx
  108126:	6e                   	outsb  %ds:(%esi),(%dx)
  108127:	74 65                	je     10818e <rodata+0x18e>
  108129:	72 72                	jb     10819d <rodata+0x19d>
  10812b:	75 70                	jne    10819d <rodata+0x19d>
  10812d:	74 00                	je     10812f <rodata+0x12f>
  10812f:	42                   	inc    %edx
  108130:	72 65                	jb     108197 <rodata+0x197>
  108132:	61                   	popa   
  108133:	6b 70 6f 69          	imul   $0x69,0x6f(%eax),%esi
  108137:	6e                   	outsb  %ds:(%esi),(%dx)
  108138:	74 00                	je     10813a <rodata+0x13a>
  10813a:	49                   	dec    %ecx
  10813b:	6e                   	outsb  %ds:(%esi),(%dx)
  10813c:	74 6f                	je     1081ad <rodata+0x1ad>
  10813e:	20 44 65 74          	and    %al,0x74(%ebp,%eiz,2)
  108142:	65 63 74 65 64       	arpl   %si,%gs:0x64(%ebp,%eiz,2)
  108147:	20 4f 76             	and    %cl,0x76(%edi)
  10814a:	65                   	gs
  10814b:	72 66                	jb     1081b3 <rodata+0x1b3>
  10814d:	6c                   	insb   (%dx),%es:(%edi)
  10814e:	6f                   	outsl  %ds:(%esi),(%dx)
  10814f:	77 00                	ja     108151 <rodata+0x151>
  108151:	4f                   	dec    %edi
  108152:	75 74                	jne    1081c8 <rodata+0x1c8>
  108154:	20 6f 66             	and    %ch,0x66(%edi)
  108157:	20 42 6f             	and    %al,0x6f(%edx)
  10815a:	75 6e                	jne    1081ca <rodata+0x1ca>
  10815c:	64                   	fs
  10815d:	73 00                	jae    10815f <rodata+0x15f>
  10815f:	49                   	dec    %ecx
  108160:	6e                   	outsb  %ds:(%esi),(%dx)
  108161:	76 61                	jbe    1081c4 <rodata+0x1c4>
  108163:	6c                   	insb   (%dx),%es:(%edi)
  108164:	69 64 20 4f 70 63 6f 	imul   $0x646f6370,0x4f(%eax,%eiz,1),%esp
  10816b:	64 
  10816c:	65 00 4e 6f          	add    %cl,%gs:0x6f(%esi)
  108170:	20 43 6f             	and    %al,0x6f(%ebx)
  108173:	70 72                	jo     1081e7 <rodata+0x1e7>
  108175:	6f                   	outsl  %ds:(%esi),(%dx)
  108176:	63 65 73             	arpl   %sp,0x73(%ebp)
  108179:	73 6f                	jae    1081ea <rodata+0x1ea>
  10817b:	72 00                	jb     10817d <rodata+0x17d>
  10817d:	44                   	inc    %esp
  10817e:	6f                   	outsl  %ds:(%esi),(%dx)
  10817f:	75 62                	jne    1081e3 <rodata+0x1e3>
  108181:	6c                   	insb   (%dx),%es:(%edi)
  108182:	65 20 46 61          	and    %al,%gs:0x61(%esi)
  108186:	75 6c                	jne    1081f4 <rodata+0x1f4>
  108188:	74 00                	je     10818a <rodata+0x18a>
  10818a:	43                   	inc    %ebx
  10818b:	6f                   	outsl  %ds:(%esi),(%dx)
  10818c:	70 72                	jo     108200 <rodata+0x200>
  10818e:	6f                   	outsl  %ds:(%esi),(%dx)
  10818f:	63 65 73             	arpl   %sp,0x73(%ebp)
  108192:	73 6f                	jae    108203 <rodata+0x203>
  108194:	72 20                	jb     1081b6 <rodata+0x1b6>
  108196:	53                   	push   %ebx
  108197:	65                   	gs
  108198:	67 6d                	insl   (%dx),%es:(%di)
  10819a:	65 6e                	outsb  %gs:(%esi),(%dx)
  10819c:	74 20                	je     1081be <rodata+0x1be>
  10819e:	4f                   	dec    %edi
  10819f:	76 65                	jbe    108206 <rodata+0x206>
  1081a1:	72 72                	jb     108215 <rodata+0x215>
  1081a3:	75 6e                	jne    108213 <rodata+0x213>
  1081a5:	00 42 61             	add    %al,0x61(%edx)
  1081a8:	64 20 54 53 53       	and    %dl,%fs:0x53(%ebx,%edx,2)
  1081ad:	00 53 65             	add    %dl,0x65(%ebx)
  1081b0:	67 6d                	insl   (%dx),%es:(%di)
  1081b2:	65 6e                	outsb  %gs:(%esi),(%dx)
  1081b4:	74 20                	je     1081d6 <rodata+0x1d6>
  1081b6:	4e                   	dec    %esi
  1081b7:	6f                   	outsl  %ds:(%esi),(%dx)
  1081b8:	74 20                	je     1081da <rodata+0x1da>
  1081ba:	50                   	push   %eax
  1081bb:	72 65                	jb     108222 <rodata+0x222>
  1081bd:	73 65                	jae    108224 <rodata+0x224>
  1081bf:	6e                   	outsb  %ds:(%esi),(%dx)
  1081c0:	74 00                	je     1081c2 <rodata+0x1c2>
  1081c2:	53                   	push   %ebx
  1081c3:	74 61                	je     108226 <rodata+0x226>
  1081c5:	63 6b 20             	arpl   %bp,0x20(%ebx)
  1081c8:	46                   	inc    %esi
  1081c9:	61                   	popa   
  1081ca:	75 6c                	jne    108238 <rodata+0x238>
  1081cc:	74 00                	je     1081ce <rodata+0x1ce>
  1081ce:	47                   	inc    %edi
  1081cf:	65 6e                	outsb  %gs:(%esi),(%dx)
  1081d1:	65                   	gs
  1081d2:	72 61                	jb     108235 <rodata+0x235>
  1081d4:	6c                   	insb   (%dx),%es:(%edi)
  1081d5:	20 50 72             	and    %dl,0x72(%eax)
  1081d8:	6f                   	outsl  %ds:(%esi),(%dx)
  1081d9:	74 65                	je     108240 <rodata+0x240>
  1081db:	63 74 69 6f          	arpl   %si,0x6f(%ecx,%ebp,2)
  1081df:	6e                   	outsb  %ds:(%esi),(%dx)
  1081e0:	20 46 61             	and    %al,0x61(%esi)
  1081e3:	75 6c                	jne    108251 <rodata+0x251>
  1081e5:	74 00                	je     1081e7 <rodata+0x1e7>
  1081e7:	50                   	push   %eax
  1081e8:	61                   	popa   
  1081e9:	67 65 20 46 61       	and    %al,%gs:0x61(%bp)
  1081ee:	75 6c                	jne    10825c <rodata+0x25c>
  1081f0:	74 00                	je     1081f2 <rodata+0x1f2>
  1081f2:	55                   	push   %ebp
  1081f3:	6e                   	outsb  %ds:(%esi),(%dx)
  1081f4:	6b 6e 6f 77          	imul   $0x77,0x6f(%esi),%ebp
  1081f8:	6e                   	outsb  %ds:(%esi),(%dx)
  1081f9:	20 49 6e             	and    %cl,0x6e(%ecx)
  1081fc:	74 65                	je     108263 <rodata+0x263>
  1081fe:	72 72                	jb     108272 <rodata+0x272>
  108200:	75 70                	jne    108272 <rodata+0x272>
  108202:	74 00                	je     108204 <rodata+0x204>
  108204:	43                   	inc    %ebx
  108205:	6f                   	outsl  %ds:(%esi),(%dx)
  108206:	70 72                	jo     10827a <rodata+0x27a>
  108208:	6f                   	outsl  %ds:(%esi),(%dx)
  108209:	63 65 73             	arpl   %sp,0x73(%ebp)
  10820c:	73 6f                	jae    10827d <rodata+0x27d>
  10820e:	72 20                	jb     108230 <rodata+0x230>
  108210:	46                   	inc    %esi
  108211:	61                   	popa   
  108212:	75 6c                	jne    108280 <rodata+0x280>
  108214:	74 00                	je     108216 <rodata+0x216>
  108216:	41                   	inc    %ecx
  108217:	6c                   	insb   (%dx),%es:(%edi)
  108218:	69 67 6e 6d 65 6e 74 	imul   $0x746e656d,0x6e(%edi),%esp
  10821f:	20 43 68             	and    %al,0x68(%ebx)
  108222:	65 63 6b 00          	arpl   %bp,%gs:0x0(%ebx)
  108226:	4d                   	dec    %ebp
  108227:	61                   	popa   
  108228:	63 68 69             	arpl   %bp,0x69(%eax)
  10822b:	6e                   	outsb  %ds:(%esi),(%dx)
  10822c:	65 20 43 68          	and    %al,%gs:0x68(%ebx)
  108230:	65 63 6b 00          	arpl   %bp,%gs:0x0(%ebx)
  108234:	52                   	push   %edx
  108235:	65                   	gs
  108236:	73 65                	jae    10829d <rodata+0x29d>
  108238:	72 76                	jb     1082b0 <rodata+0x2b0>
  10823a:	65 64 00 00          	gs add %al,%fs:%gs:(%eax)
  10823e:	00 00                	add    %al,(%eax)
  108240:	45                   	inc    %ebp
  108241:	41                   	inc    %ecx
  108242:	58                   	pop    %eax
  108243:	3a 20                	cmp    (%eax),%ah
  108245:	25 30 38 78 20       	and    $0x20783830,%eax
  10824a:	45                   	inc    %ebp
  10824b:	42                   	inc    %edx
  10824c:	58                   	pop    %eax
  10824d:	3a 20                	cmp    (%eax),%ah
  10824f:	25 30 38 78 20       	and    $0x20783830,%eax
  108254:	45                   	inc    %ebp
  108255:	43                   	inc    %ebx
  108256:	58                   	pop    %eax
  108257:	3a 20                	cmp    (%eax),%ah
  108259:	25 30 38 78 20       	and    $0x20783830,%eax
  10825e:	45                   	inc    %ebp
  10825f:	44                   	inc    %esp
  108260:	58                   	pop    %eax
  108261:	3a 20                	cmp    (%eax),%ah
  108263:	25 30 38 78 0a       	and    $0xa783830,%eax
  108268:	00 00                	add    %al,(%eax)
  10826a:	00 00                	add    %al,(%eax)
  10826c:	45                   	inc    %ebp
  10826d:	53                   	push   %ebx
  10826e:	49                   	dec    %ecx
  10826f:	3a 20                	cmp    (%eax),%ah
  108271:	25 30 38 78 20       	and    $0x20783830,%eax
  108276:	45                   	inc    %ebp
  108277:	44                   	inc    %esp
  108278:	49                   	dec    %ecx
  108279:	3a 20                	cmp    (%eax),%ah
  10827b:	25 30 38 78 20       	and    $0x20783830,%eax
  108280:	45                   	inc    %ebp
  108281:	53                   	push   %ebx
  108282:	50                   	push   %eax
  108283:	3a 20                	cmp    (%eax),%ah
  108285:	25 30 38 78 20       	and    $0x20783830,%eax
  10828a:	45                   	inc    %ebp
  10828b:	42                   	inc    %edx
  10828c:	50                   	push   %eax
  10828d:	3a 20                	cmp    (%eax),%ah
  10828f:	25 30 38 78 0a       	and    $0xa783830,%eax
  108294:	00 00                	add    %al,(%eax)
  108296:	00 00                	add    %al,(%eax)
  108298:	43                   	inc    %ebx
  108299:	53                   	push   %ebx
  10829a:	3a 20                	cmp    (%eax),%ah
  10829c:	20 25 30 38 78 20    	and    %ah,0x20783830
  1082a2:	44                   	inc    %esp
  1082a3:	53                   	push   %ebx
  1082a4:	3a 20                	cmp    (%eax),%ah
  1082a6:	20 25 30 38 78 20    	and    %ah,0x20783830
  1082ac:	45                   	inc    %ebp
  1082ad:	53                   	push   %ebx
  1082ae:	3a 20                	cmp    (%eax),%ah
  1082b0:	20 25 30 38 78 0a    	and    %ah,0xa783830
  1082b6:	00 00                	add    %al,(%eax)
  1082b8:	46                   	inc    %esi
  1082b9:	53                   	push   %ebx
  1082ba:	3a 20                	cmp    (%eax),%ah
  1082bc:	20 25 30 38 78 20    	and    %ah,0x20783830
  1082c2:	47                   	inc    %edi
  1082c3:	53                   	push   %ebx
  1082c4:	3a 20                	cmp    (%eax),%ah
  1082c6:	20 25 30 38 78 20    	and    %ah,0x20783830
  1082cc:	53                   	push   %ebx
  1082cd:	53                   	push   %ebx
  1082ce:	3a 20                	cmp    (%eax),%ah
  1082d0:	20 25 30 38 78 0a    	and    %ah,0xa783830
  1082d6:	00 00                	add    %al,(%eax)
  1082d8:	43                   	inc    %ebx
  1082d9:	52                   	push   %edx
  1082da:	30 3a                	xor    %bh,(%edx)
  1082dc:	20 25 30 38 78 20    	and    %ah,0x20783830
  1082e2:	43                   	inc    %ebx
  1082e3:	52                   	push   %edx
  1082e4:	32 3a                	xor    (%edx),%bh
  1082e6:	20 25 30 38 78 20    	and    %ah,0x20783830
  1082ec:	43                   	inc    %ebx
  1082ed:	52                   	push   %edx
  1082ee:	33 3a                	xor    (%edx),%edi
  1082f0:	20 25 30 38 78 20    	and    %ah,0x20783830
  1082f6:	43                   	inc    %ebx
  1082f7:	52                   	push   %edx
  1082f8:	34 3a                	xor    $0x3a,%al
  1082fa:	20 25 30 38 78 0a    	and    %ah,0xa783830
  108300:	00 00                	add    %al,(%eax)
  108302:	00 00                	add    %al,(%eax)
  108304:	55                   	push   %ebp
  108305:	6e                   	outsb  %ds:(%esi),(%dx)
  108306:	68 61 6e 64 6c       	push   $0x6c646e61
  10830b:	65 64 20 25 73 20 45 	gs and %ah,%fs:%gs:0x78452073
  108312:	78 
  108313:	63 65 70             	arpl   %sp,0x70(%ebp)
  108316:	74 69                	je     108381 <rodata+0x381>
  108318:	6f                   	outsl  %ds:(%esi),(%dx)
  108319:	6e                   	outsb  %ds:(%esi),(%dx)
  10831a:	20 61 74             	and    %ah,0x74(%ecx)
  10831d:	20 25 30 38 78 0a    	and    %ah,0xa783830
  108323:	00 46 69             	add    %al,0x69(%esi)
  108326:	6c                   	insb   (%dx),%es:(%edi)
  108327:	65 20 74 79 70       	and    %dh,%gs:0x70(%ecx,%edi,2)
  10832c:	65 3a 09             	cmp    %gs:(%ecx),%cl
  10832f:	25 73 0a 00 4d       	and    $0x4d000a73,%eax
  108334:	61                   	popa   
  108335:	63 68 69             	arpl   %bp,0x69(%eax)
  108338:	6e                   	outsb  %ds:(%esi),(%dx)
  108339:	65 3a 09             	cmp    %gs:(%ecx),%cl
  10833c:	25 73 0a 00 43       	and    $0x43000a73,%eax
  108341:	6c                   	insb   (%dx),%es:(%edi)
  108342:	61                   	popa   
  108343:	73 73                	jae    1083b8 <rodata+0x3b8>
  108345:	3a 09                	cmp    (%ecx),%cl
  108347:	09 25 73 0a 00 45    	or     %esp,0x45000a73
  10834d:	6e                   	outsb  %ds:(%esi),(%dx)
  10834e:	63 6f 64             	arpl   %bp,0x64(%edi)
  108351:	69 6e 67 3a 09 25 73 	imul   $0x7325093a,0x67(%esi),%ebp
  108358:	0a 00                	or     (%eax),%al
  10835a:	56                   	push   %esi
  10835b:	65                   	gs
  10835c:	72 73                	jb     1083d1 <rodata+0x3d1>
  10835e:	69 6f 6e 3a 09 25 64 	imul   $0x6425093a,0x6e(%edi),%ebp
  108365:	0a 00                	or     (%eax),%al
  108367:	56                   	push   %esi
  108368:	65                   	gs
  108369:	72 73                	jb     1083de <rodata+0x3de>
  10836b:	69 6f 6e 3a 09 49 6e 	imul   $0x6e49093a,0x6e(%edi),%ebp
  108372:	76 61                	jbe    1083d5 <rodata+0x3d5>
  108374:	6c                   	insb   (%dx),%es:(%edi)
  108375:	69 64 0a 00 2e 73 79 	imul   $0x6d79732e,0x0(%edx,%ecx,1),%esp
  10837c:	6d 
  10837d:	74 61                	je     1083e0 <rodata+0x3e0>
  10837f:	62 00                	bound  %eax,(%eax)
  108381:	25 64 20 65 6e       	and    $0x6e652064,%eax
  108386:	74 72                	je     1083fa <rodata+0x3fa>
  108388:	69 65 73 2e 0a 00 2e 	imul   $0x2e000a2e,0x73(%ebp),%esp
  10838f:	73 74                	jae    108405 <rodata+0x405>
  108391:	72 74                	jb     108407 <rodata+0x407>
  108393:	61                   	popa   
  108394:	62 00                	bound  %eax,(%eax)
  108396:	25 64 09 25 73       	and    $0x73250964,%eax
  10839b:	09 25 64 09 25 73    	or     %esp,0x73250964
  1083a1:	09 25 73 0a 00 23    	or     %esp,0x23000a73
  1083a7:	20 73 65             	and    %dh,0x65(%ebx)
  1083aa:	63 74 69 6f          	arpl   %si,0x6f(%ecx,%ebp,2)
  1083ae:	6e                   	outsb  %ds:(%esi),(%dx)
  1083af:	73 3a                	jae    1083eb <rodata+0x3eb>
  1083b1:	09 25 64 0a 0a 00    	or     %esp,0xa0a64
  1083b7:	23 09                	and    (%ecx),%ecx
  1083b9:	09 4e 61             	or     %ecx,0x61(%esi)
  1083bc:	6d                   	insl   (%dx),%es:(%edi)
  1083bd:	65 09 09             	or     %ecx,%gs:(%ecx)
  1083c0:	53                   	push   %ebx
  1083c1:	69 7a 65 00 25 64 09 	imul   $0x9642500,0x65(%edx),%edi
  1083c8:	09 25 73 09 09 25    	or     %esp,0x25090973
  1083ce:	30 38                	xor    %bh,(%eax)
  1083d0:	58                   	pop    %eax
  1083d1:	0a 00                	or     (%eax),%al
  1083d3:	2e 72 65             	jb,pn  10843b <rodata+0x43b>
  1083d6:	6c                   	insb   (%dx),%es:(%edi)
  1083d7:	2e 00 00             	add    %al,%cs:(%eax)
  1083da:	00 00                	add    %al,(%eax)
  1083dc:	23 09                	and    (%ecx),%ecx
  1083de:	54                   	push   %esp
  1083df:	79 70                	jns    108451 <rodata+0x451>
  1083e1:	65 09 53 69          	or     %edx,%gs:0x69(%ebx)
  1083e5:	7a 65                	jp     10844c <rodata+0x44c>
  1083e7:	09 42 69             	or     %eax,0x69(%edx)
  1083ea:	6e                   	outsb  %ds:(%esi),(%dx)
  1083eb:	64 09 4e 61          	or     %ecx,%fs:0x61(%esi)
  1083ef:	6d                   	insl   (%dx),%es:(%edi)
  1083f0:	65 09 53 65          	or     %edx,%gs:0x65(%ebx)
  1083f4:	63 74 69 6f          	arpl   %si,0x6f(%ecx,%ebp,2)
  1083f8:	6e                   	outsb  %ds:(%esi),(%dx)
  1083f9:	0a 00                	or     (%eax),%al
  1083fb:	4e                   	dec    %esi
  1083fc:	4f                   	dec    %edi
  1083fd:	54                   	push   %esp
  1083fe:	59                   	pop    %ecx
  1083ff:	50                   	push   %eax
  108400:	45                   	inc    %ebp
  108401:	00 4f 42             	add    %cl,0x42(%edi)
  108404:	4a                   	dec    %edx
  108405:	45                   	inc    %ebp
  108406:	43                   	inc    %ebx
  108407:	54                   	push   %esp
  108408:	00 46 55             	add    %al,0x55(%esi)
  10840b:	4e                   	dec    %esi
  10840c:	43                   	inc    %ebx
  10840d:	00 53 45             	add    %dl,0x45(%ebx)
  108410:	43                   	inc    %ebx
  108411:	54                   	push   %esp
  108412:	49                   	dec    %ecx
  108413:	4f                   	dec    %edi
  108414:	4e                   	dec    %esi
  108415:	00 46 49             	add    %al,0x49(%esi)
  108418:	4c                   	dec    %esp
  108419:	45                   	inc    %ebp
  10841a:	00 43 4f             	add    %al,0x4f(%ebx)
  10841d:	4d                   	dec    %ebp
  10841e:	4d                   	dec    %ebp
  10841f:	4f                   	dec    %edi
  108420:	4e                   	dec    %esi
  108421:	00 54 4c 53          	add    %dl,0x53(%esp,%ecx,2)
  108425:	00 55 4e             	add    %dl,0x4e(%ebp)
  108428:	4b                   	dec    %ebx
  108429:	4e                   	dec    %esi
  10842a:	4f                   	dec    %edi
  10842b:	57                   	push   %edi
  10842c:	4e                   	dec    %esi
  10842d:	00 4c 4f 43          	add    %cl,0x43(%edi,%ecx,2)
  108431:	41                   	inc    %ecx
  108432:	4c                   	dec    %esp
  108433:	00 47 4c             	add    %al,0x4c(%edi)
  108436:	4f                   	dec    %edi
  108437:	42                   	inc    %edx
  108438:	41                   	inc    %ecx
  108439:	4c                   	dec    %esp
  10843a:	00 57 45             	add    %dl,0x45(%edi)
  10843d:	41                   	inc    %ecx
  10843e:	4b                   	dec    %ebx
  10843f:	00 4c 4f 4f          	add    %cl,0x4f(%edi,%ecx,2)
  108443:	53                   	push   %ebx
  108444:	00 48 49             	add    %cl,0x49(%eax)
  108447:	4f                   	dec    %edi
  108448:	53                   	push   %ebx
  108449:	00 4c 4f 50          	add    %cl,0x50(%edi,%ecx,2)
  10844d:	52                   	push   %edx
  10844e:	4f                   	dec    %edi
  10844f:	43                   	inc    %ebx
  108450:	00 48 49             	add    %cl,0x49(%eax)
  108453:	50                   	push   %eax
  108454:	52                   	push   %edx
  108455:	4f                   	dec    %edi
  108456:	43                   	inc    %ebx
  108457:	00 4c 69 74          	add    %cl,0x74(%ecx,%ebp,2)
  10845b:	74 6c                	je     1084c9 <rodata+0x4c9>
  10845d:	65 20 65 6e          	and    %ah,%gs:0x6e(%ebp)
  108461:	64 69 61 6e 00 42 69 	imul   $0x67694200,%fs:0x6e(%ecx),%esp
  108468:	67 
  108469:	20 65 6e             	and    %ah,0x6e(%ebp)
  10846c:	64 69 61 6e 00 49 6e 	imul   $0x766e4900,%fs:0x6e(%ecx),%esp
  108473:	76 
  108474:	61                   	popa   
  108475:	6c                   	insb   (%dx),%es:(%edi)
  108476:	69 64 00 4e 6f 20 6d 	imul   $0x616d206f,0x4e(%eax,%eax,1),%esp
  10847d:	61 
  10847e:	63 68 69             	arpl   %bp,0x69(%eax)
  108481:	6e                   	outsb  %ds:(%esi),(%dx)
  108482:	65 00 41 54          	add    %al,%gs:0x54(%ecx)
  108486:	26                   	es
  108487:	54                   	push   %esp
  108488:	20 57 45             	and    %dl,0x45(%edi)
  10848b:	20 33                	and    %dh,(%ebx)
  10848d:	32 31                	xor    (%ecx),%dh
  10848f:	30 30                	xor    %dh,(%eax)
  108491:	00 53 50             	add    %dl,0x50(%ebx)
  108494:	41                   	inc    %ecx
  108495:	52                   	push   %edx
  108496:	43                   	inc    %ebx
  108497:	00 49 6e             	add    %cl,0x6e(%ecx)
  10849a:	74 65                	je     108501 <rodata+0x501>
  10849c:	6c                   	insb   (%dx),%es:(%edi)
  10849d:	20 38                	and    %bh,(%eax)
  10849f:	30 33                	xor    %dh,(%ebx)
  1084a1:	38 36                	cmp    %dh,(%esi)
  1084a3:	20 28                	and    %ch,(%eax)
  1084a5:	69 33 38 36 29 00    	imul   $0x293638,(%ebx),%esi
  1084ab:	4d                   	dec    %ebp
  1084ac:	6f                   	outsl  %ds:(%esi),(%dx)
  1084ad:	74 6f                	je     10851e <rodata+0x51e>
  1084af:	72 6f                	jb     108520 <rodata+0x520>
  1084b1:	6c                   	insb   (%dx),%es:(%edi)
  1084b2:	61                   	popa   
  1084b3:	20 36                	and    %dh,(%esi)
  1084b5:	38 30                	cmp    %dh,(%eax)
  1084b7:	30 30                	xor    %dh,(%eax)
  1084b9:	00 4d 6f             	add    %cl,0x6f(%ebp)
  1084bc:	74 6f                	je     10852d <rodata+0x52d>
  1084be:	72 6f                	jb     10852f <rodata+0x52f>
  1084c0:	6c                   	insb   (%dx),%es:(%edi)
  1084c1:	61                   	popa   
  1084c2:	20 38                	and    %bh,(%eax)
  1084c4:	38 30                	cmp    %dh,(%eax)
  1084c6:	30 30                	xor    %dh,(%eax)
  1084c8:	00 49 6e             	add    %cl,0x6e(%ecx)
  1084cb:	74 65                	je     108532 <rodata+0x532>
  1084cd:	6c                   	insb   (%dx),%es:(%edi)
  1084ce:	20 38                	and    %bh,(%eax)
  1084d0:	30 38                	xor    %bh,(%eax)
  1084d2:	36 30 00             	xor    %al,%ss:(%eax)
  1084d5:	4d                   	dec    %ebp
  1084d6:	49                   	dec    %ecx
  1084d7:	50                   	push   %eax
  1084d8:	53                   	push   %ebx
  1084d9:	20 49 20             	and    %cl,0x20(%ecx)
  1084dc:	41                   	inc    %ecx
  1084dd:	72 63                	jb     108542 <rodata+0x542>
  1084df:	68 69 74 65 63       	push   $0x63657469
  1084e4:	74 75                	je     10855b <rodata+0x55b>
  1084e6:	72 65                	jb     10854d <rodata+0x54d>
  1084e8:	00 49 42             	add    %cl,0x42(%ecx)
  1084eb:	4d                   	dec    %ebp
  1084ec:	20 53 79             	and    %dl,0x79(%ebx)
  1084ef:	73 74                	jae    108565 <rodata+0x565>
  1084f1:	65                   	gs
  1084f2:	6d                   	insl   (%dx),%es:(%edi)
  1084f3:	2f                   	das    
  1084f4:	33 37                	xor    (%edi),%esi
  1084f6:	30 20                	xor    %ah,(%eax)
  1084f8:	50                   	push   %eax
  1084f9:	72 6f                	jb     10856a <rodata+0x56a>
  1084fb:	63 65 73             	arpl   %sp,0x73(%ebp)
  1084fe:	73 6f                	jae    10856f <rodata+0x56f>
  108500:	72 00                	jb     108502 <rodata+0x502>
  108502:	4d                   	dec    %ebp
  108503:	49                   	dec    %ecx
  108504:	50                   	push   %eax
  108505:	53                   	push   %ebx
  108506:	20 52 53             	and    %dl,0x53(%edx)
  108509:	33 30                	xor    (%eax),%esi
  10850b:	30 30                	xor    %dh,(%eax)
  10850d:	20 4c 69 74          	and    %cl,0x74(%ecx,%ebp,2)
  108511:	74 6c                	je     10857f <rodata+0x57f>
  108513:	65                   	gs
  108514:	2d 65 6e 64 69       	sub    $0x69646e65,%eax
  108519:	61                   	popa   
  10851a:	6e                   	outsb  %ds:(%esi),(%dx)
  10851b:	00 48 65             	add    %cl,0x65(%eax)
  10851e:	77 6c                	ja     10858c <rodata+0x58c>
  108520:	65                   	gs
  108521:	74 74                	je     108597 <rodata+0x597>
  108523:	2d 50 61 63 6b       	sub    $0x6b636150,%eax
  108528:	61                   	popa   
  108529:	72 64                	jb     10858f <rodata+0x58f>
  10852b:	20 50 41             	and    %dl,0x41(%eax)
  10852e:	2d 52 49 53 43       	sub    $0x43534952,%eax
  108533:	00 46 75             	add    %al,0x75(%esi)
  108536:	6a 69                	push   $0x69
  108538:	74 73                	je     1085ad <rodata+0x5ad>
  10853a:	75 20                	jne    10855c <rodata+0x55c>
  10853c:	56                   	push   %esi
  10853d:	50                   	push   %eax
  10853e:	50                   	push   %eax
  10853f:	35 30 30 00 49       	xor    $0x49003030,%eax
  108544:	6e                   	outsb  %ds:(%esi),(%dx)
  108545:	74 65                	je     1085ac <rodata+0x5ac>
  108547:	6c                   	insb   (%dx),%es:(%edi)
  108548:	20 38                	and    %bh,(%eax)
  10854a:	30 39                	xor    %bh,(%ecx)
  10854c:	36 30 00             	xor    %al,%ss:(%eax)
  10854f:	50                   	push   %eax
  108550:	6f                   	outsl  %ds:(%esi),(%dx)
  108551:	77 65                	ja     1085b8 <rodata+0x5b8>
  108553:	72 50                	jb     1085a5 <rodata+0x5a5>
  108555:	43                   	inc    %ebx
  108556:	00 50 6f             	add    %dl,0x6f(%eax)
  108559:	77 65                	ja     1085c0 <rodata+0x5c0>
  10855b:	72 50                	jb     1085ad <rodata+0x5ad>
  10855d:	43                   	inc    %ebx
  10855e:	20 36                	and    %dh,(%esi)
  108560:	34 2d                	xor    $0x2d,%al
  108562:	62 69 74             	bound  %ebp,0x74(%ecx)
  108565:	00 49 42             	add    %cl,0x42(%ecx)
  108568:	4d                   	dec    %ebp
  108569:	20 53 79             	and    %dl,0x79(%ebx)
  10856c:	73 74                	jae    1085e2 <rodata+0x5e2>
  10856e:	65                   	gs
  10856f:	6d                   	insl   (%dx),%es:(%edi)
  108570:	2f                   	das    
  108571:	33 39                	xor    (%ecx),%edi
  108573:	30 20                	xor    %ah,(%eax)
  108575:	50                   	push   %eax
  108576:	72 6f                	jb     1085e7 <rodata+0x5e7>
  108578:	63 65 73             	arpl   %sp,0x73(%ebp)
  10857b:	73 6f                	jae    1085ec <rodata+0x5ec>
  10857d:	72 00                	jb     10857f <rodata+0x57f>
  10857f:	49                   	dec    %ecx
  108580:	42                   	inc    %edx
  108581:	4d                   	dec    %ebp
  108582:	20 53 50             	and    %dl,0x50(%ebx)
  108585:	55                   	push   %ebp
  108586:	2f                   	das    
  108587:	53                   	push   %ebx
  108588:	50                   	push   %eax
  108589:	43                   	inc    %ebx
  10858a:	00 4e 45             	add    %cl,0x45(%esi)
  10858d:	43                   	inc    %ebx
  10858e:	20 56 38             	and    %dl,0x38(%esi)
  108591:	30 30                	xor    %dh,(%eax)
  108593:	00 46 75             	add    %al,0x75(%esi)
  108596:	6a 69                	push   $0x69
  108598:	74 73                	je     10860d <rodata+0x60d>
  10859a:	75 20                	jne    1085bc <rodata+0x5bc>
  10859c:	46                   	inc    %esi
  10859d:	52                   	push   %edx
  10859e:	32 30                	xor    (%eax),%dh
  1085a0:	00 54 52 57          	add    %dl,0x57(%edx,%edx,2)
  1085a4:	20 52 48             	and    %dl,0x48(%edx)
  1085a7:	2d 33 32 00 4d       	sub    $0x4d003233,%eax
  1085ac:	6f                   	outsl  %ds:(%esi),(%dx)
  1085ad:	74 6f                	je     10861e <rodata+0x61e>
  1085af:	72 6f                	jb     108620 <rodata+0x620>
  1085b1:	6c                   	insb   (%dx),%es:(%edi)
  1085b2:	61                   	popa   
  1085b3:	20 52 43             	and    %dl,0x43(%edx)
  1085b6:	45                   	inc    %ebp
  1085b7:	00 41 52             	add    %al,0x52(%ecx)
  1085ba:	4d                   	dec    %ebp
  1085bb:	20 33                	and    %dh,(%ebx)
  1085bd:	32 2d 62 69 74 00    	xor    0x746962,%ch
  1085c3:	44                   	inc    %esp
  1085c4:	69 67 69 74 61 6c 20 	imul   $0x206c6174,0x69(%edi),%esp
  1085cb:	41                   	inc    %ecx
  1085cc:	6c                   	insb   (%dx),%es:(%edi)
  1085cd:	70 68                	jo     108637 <rodata+0x637>
  1085cf:	61                   	popa   
  1085d0:	00 48 69             	add    %cl,0x69(%eax)
  1085d3:	74 61                	je     108636 <rodata+0x636>
  1085d5:	63 68 69             	arpl   %bp,0x69(%eax)
  1085d8:	20 53 48             	and    %dl,0x48(%ebx)
  1085db:	00 53 50             	add    %dl,0x50(%ebx)
  1085de:	41                   	inc    %ecx
  1085df:	52                   	push   %edx
  1085e0:	43                   	inc    %ebx
  1085e1:	20 56 65             	and    %dl,0x65(%esi)
  1085e4:	72 73                	jb     108659 <rodata+0x659>
  1085e6:	69 6f 6e 20 39 00 53 	imul   $0x53003920,0x6e(%edi),%ebp
  1085ed:	69 65 6d 65 6e 73 20 	imul   $0x20736e65,0x6d(%ebp),%esp
  1085f4:	54                   	push   %esp
  1085f5:	52                   	push   %edx
  1085f6:	49                   	dec    %ecx
  1085f7:	43                   	inc    %ebx
  1085f8:	4f                   	dec    %edi
  1085f9:	52                   	push   %edx
  1085fa:	45                   	inc    %ebp
  1085fb:	00 41 72             	add    %al,0x72(%ecx)
  1085fe:	67 6f                	outsl  %ds:(%si),(%dx)
  108600:	6e                   	outsb  %ds:(%esi),(%dx)
  108601:	61                   	popa   
  108602:	75 74                	jne    108678 <rodata+0x678>
  108604:	20 52 49             	and    %dl,0x49(%edx)
  108607:	53                   	push   %ebx
  108608:	43                   	inc    %ebx
  108609:	20 43 6f             	and    %al,0x6f(%ebx)
  10860c:	72 65                	jb     108673 <rodata+0x673>
  10860e:	00 48 69             	add    %cl,0x69(%eax)
  108611:	74 61                	je     108674 <rodata+0x674>
  108613:	63 68 69             	arpl   %bp,0x69(%eax)
  108616:	20 48 38             	and    %cl,0x38(%eax)
  108619:	2f                   	das    
  10861a:	33 30                	xor    (%eax),%esi
  10861c:	30 00                	xor    %al,(%eax)
  10861e:	48                   	dec    %eax
  10861f:	69 74 61 63 68 69 20 	imul   $0x48206968,0x63(%ecx,%eiz,2),%esi
  108626:	48 
  108627:	38 2f                	cmp    %ch,(%edi)
  108629:	33 30                	xor    (%eax),%esi
  10862b:	30 68 00             	xor    %ch,0x0(%eax)
  10862e:	48                   	dec    %eax
  10862f:	69 74 61 63 68 69 20 	imul   $0x48206968,0x63(%ecx,%eiz,2),%esi
  108636:	48 
  108637:	38 53 00             	cmp    %dl,0x0(%ebx)
  10863a:	48                   	dec    %eax
  10863b:	69 74 61 63 68 69 20 	imul   $0x48206968,0x63(%ecx,%eiz,2),%esi
  108642:	48 
  108643:	38 2f                	cmp    %ch,(%edi)
  108645:	35 30 30 00 49       	xor    $0x49003030,%eax
  10864a:	6e                   	outsb  %ds:(%esi),(%dx)
  10864b:	74 65                	je     1086b2 <rodata+0x6b2>
  10864d:	6c                   	insb   (%dx),%es:(%edi)
  10864e:	20 49 41             	and    %cl,0x41(%ecx)
  108651:	2d 36 34 00 53       	sub    $0x53003436,%eax
  108656:	74 61                	je     1086b9 <rodata+0x6b9>
  108658:	6e                   	outsb  %ds:(%esi),(%dx)
  108659:	66 6f                	outsw  %ds:(%esi),(%dx)
  10865b:	72 64                	jb     1086c1 <rodata+0x6c1>
  10865d:	20 4d 49             	and    %cl,0x49(%ebp)
  108660:	50                   	push   %eax
  108661:	53                   	push   %ebx
  108662:	2d 58 00 4d 6f       	sub    $0x6f4d0058,%eax
  108667:	74 6f                	je     1086d8 <rodata+0x6d8>
  108669:	72 6f                	jb     1086da <rodata+0x6da>
  10866b:	6c                   	insb   (%dx),%es:(%edi)
  10866c:	61                   	popa   
  10866d:	20 43 6f             	and    %al,0x6f(%ebx)
  108670:	6c                   	insb   (%dx),%es:(%edi)
  108671:	64                   	fs
  108672:	46                   	inc    %esi
  108673:	69 72 65 00 4d 6f 74 	imul   $0x746f4d00,0x65(%edx),%esi
  10867a:	6f                   	outsl  %ds:(%esi),(%dx)
  10867b:	72 6f                	jb     1086ec <rodata+0x6ec>
  10867d:	6c                   	insb   (%dx),%es:(%edi)
  10867e:	61                   	popa   
  10867f:	20 4d 36             	and    %cl,0x36(%ebp)
  108682:	38 48 43             	cmp    %cl,0x43(%eax)
  108685:	31 32                	xor    %esi,(%edx)
  108687:	00 53 69             	add    %dl,0x69(%ebx)
  10868a:	65                   	gs
  10868b:	6d                   	insl   (%dx),%es:(%edi)
  10868c:	65 6e                	outsb  %gs:(%esi),(%dx)
  10868e:	73 20                	jae    1086b0 <rodata+0x6b0>
  108690:	50                   	push   %eax
  108691:	43                   	inc    %ebx
  108692:	50                   	push   %eax
  108693:	00 53 6f             	add    %dl,0x6f(%ebx)
  108696:	6e                   	outsb  %ds:(%esi),(%dx)
  108697:	79 20                	jns    1086b9 <rodata+0x6b9>
  108699:	6e                   	outsb  %ds:(%esi),(%dx)
  10869a:	43                   	inc    %ebx
  10869b:	50                   	push   %eax
  10869c:	55                   	push   %ebp
  10869d:	20 52 49             	and    %dl,0x49(%edx)
  1086a0:	53                   	push   %ebx
  1086a1:	43                   	inc    %ebx
  1086a2:	00 44 65 6e          	add    %al,0x6e(%ebp,%eiz,2)
  1086a6:	73 6f                	jae    108717 <rodata+0x717>
  1086a8:	20 4e 44             	and    %cl,0x44(%esi)
  1086ab:	52                   	push   %edx
  1086ac:	31 00                	xor    %eax,(%eax)
  1086ae:	4d                   	dec    %ebp
  1086af:	6f                   	outsl  %ds:(%esi),(%dx)
  1086b0:	74 6f                	je     108721 <rodata+0x721>
  1086b2:	72 6f                	jb     108723 <rodata+0x723>
  1086b4:	6c                   	insb   (%dx),%es:(%edi)
  1086b5:	61                   	popa   
  1086b6:	20 53 74             	and    %dl,0x74(%ebx)
  1086b9:	61                   	popa   
  1086ba:	72 43                	jb     1086ff <rodata+0x6ff>
  1086bc:	6f                   	outsl  %ds:(%esi),(%dx)
  1086bd:	72 65                	jb     108724 <rodata+0x724>
  1086bf:	00 54 6f 79          	add    %dl,0x79(%edi,%ebp,2)
  1086c3:	6f                   	outsl  %ds:(%esi),(%dx)
  1086c4:	74 61                	je     108727 <rodata+0x727>
  1086c6:	20 4d 45             	and    %cl,0x45(%ebp)
  1086c9:	31 36                	xor    %esi,(%esi)
  1086cb:	00 53 54             	add    %dl,0x54(%ebx)
  1086ce:	4d                   	dec    %ebp
  1086cf:	69 63 72 6f 65 6c 65 	imul   $0x656c656f,0x72(%ebx),%esp
  1086d6:	63 74 72 6f          	arpl   %si,0x6f(%edx,%esi,2)
  1086da:	6e                   	outsb  %ds:(%esi),(%dx)
  1086db:	69 63 73 20 53 54 31 	imul   $0x31545320,0x73(%ebx),%esp
  1086e2:	30 30                	xor    %dh,(%eax)
  1086e4:	00 41 64             	add    %al,0x64(%ecx)
  1086e7:	76 61                	jbe    10874a <rodata+0x74a>
  1086e9:	6e                   	outsb  %ds:(%esi),(%dx)
  1086ea:	63 65 64             	arpl   %sp,0x64(%ebp)
  1086ed:	20 4c 6f 67          	and    %cl,0x67(%edi,%ebp,2)
  1086f1:	69 63 20 43 6f 72 70 	imul   $0x70726f43,0x20(%ebx),%esp
  1086f8:	2e 20 54 69 6e       	and    %dl,%cs:0x6e(%ecx,%ebp,2)
  1086fd:	79 4a                	jns    108749 <rodata+0x749>
  1086ff:	00 41 4d             	add    %al,0x4d(%ecx)
  108702:	44                   	inc    %esp
  108703:	20 78 38             	and    %bh,0x38(%eax)
  108706:	36                   	ss
  108707:	2d 36 34 00 53       	sub    $0x53003436,%eax
  10870c:	6f                   	outsl  %ds:(%esi),(%dx)
  10870d:	6e                   	outsb  %ds:(%esi),(%dx)
  10870e:	79 20                	jns    108730 <rodata+0x730>
  108710:	44                   	inc    %esp
  108711:	53                   	push   %ebx
  108712:	50                   	push   %eax
  108713:	00 53 69             	add    %dl,0x69(%ebx)
  108716:	65                   	gs
  108717:	6d                   	insl   (%dx),%es:(%edi)
  108718:	65 6e                	outsb  %gs:(%esi),(%dx)
  10871a:	73 20                	jae    10873c <rodata+0x73c>
  10871c:	46                   	inc    %esi
  10871d:	58                   	pop    %eax
  10871e:	36 36 00 53 54       	ss add %dl,%ss:0x54(%ebx)
  108723:	4d                   	dec    %ebp
  108724:	69 63 72 6f 65 6c 65 	imul   $0x656c656f,0x72(%ebx),%esp
  10872b:	63 74 72 6f          	arpl   %si,0x6f(%edx,%esi,2)
  10872f:	6e                   	outsb  %ds:(%esi),(%dx)
  108730:	69 63 73 20 53 54 39 	imul   $0x39545320,0x73(%ebx),%esp
  108737:	2b 00                	sub    (%eax),%eax
  108739:	53                   	push   %ebx
  10873a:	54                   	push   %esp
  10873b:	4d                   	dec    %ebp
  10873c:	69 63 72 6f 65 6c 65 	imul   $0x656c656f,0x72(%ebx),%esp
  108743:	63 74 72 6f          	arpl   %si,0x6f(%edx,%esi,2)
  108747:	6e                   	outsb  %ds:(%esi),(%dx)
  108748:	69 63 73 20 53 54 37 	imul   $0x37545320,0x73(%ebx),%esp
  10874f:	00 4d 6f             	add    %cl,0x6f(%ebp)
  108752:	74 6f                	je     1087c3 <rodata+0x7c3>
  108754:	72 6f                	jb     1087c5 <rodata+0x7c5>
  108756:	6c                   	insb   (%dx),%es:(%edi)
  108757:	61                   	popa   
  108758:	20 4d 43             	and    %cl,0x43(%ebp)
  10875b:	36 38 48 43          	cmp    %cl,%ss:0x43(%eax)
  10875f:	31 36                	xor    %esi,(%esi)
  108761:	00 4d 6f             	add    %cl,0x6f(%ebp)
  108764:	74 6f                	je     1087d5 <rodata+0x7d5>
  108766:	72 6f                	jb     1087d7 <rodata+0x7d7>
  108768:	6c                   	insb   (%dx),%es:(%edi)
  108769:	61                   	popa   
  10876a:	20 4d 43             	and    %cl,0x43(%ebp)
  10876d:	36 38 48 43          	cmp    %cl,%ss:0x43(%eax)
  108771:	31 31                	xor    %esi,(%ecx)
  108773:	00 4d 6f             	add    %cl,0x6f(%ebp)
  108776:	74 6f                	je     1087e7 <rodata+0x7e7>
  108778:	72 6f                	jb     1087e9 <rodata+0x7e9>
  10877a:	6c                   	insb   (%dx),%es:(%edi)
  10877b:	61                   	popa   
  10877c:	20 4d 43             	and    %cl,0x43(%ebp)
  10877f:	36 38 48 43          	cmp    %cl,%ss:0x43(%eax)
  108783:	30 38                	xor    %bh,(%eax)
  108785:	00 4d 6f             	add    %cl,0x6f(%ebp)
  108788:	74 6f                	je     1087f9 <rodata+0x7f9>
  10878a:	72 6f                	jb     1087fb <rodata+0x7fb>
  10878c:	6c                   	insb   (%dx),%es:(%edi)
  10878d:	61                   	popa   
  10878e:	20 4d 43             	and    %cl,0x43(%ebp)
  108791:	36 38 48 43          	cmp    %cl,%ss:0x43(%eax)
  108795:	30 35 00 53 69 6c    	xor    %dh,0x6c695300
  10879b:	69 63 6f 6e 20 47 72 	imul   $0x7247206e,0x6f(%ebx),%esp
  1087a2:	61                   	popa   
  1087a3:	70 68                	jo     10880d <rodata+0x80d>
  1087a5:	69 63 73 20 53 56 78 	imul   $0x78565320,0x73(%ebx),%esp
  1087ac:	00 53 54             	add    %dl,0x54(%ebx)
  1087af:	4d                   	dec    %ebp
  1087b0:	69 63 72 6f 65 6c 65 	imul   $0x656c656f,0x72(%ebx),%esp
  1087b7:	63 74 72 6f          	arpl   %si,0x6f(%edx,%esi,2)
  1087bb:	6e                   	outsb  %ds:(%esi),(%dx)
  1087bc:	69 63 73 20 53 54 31 	imul   $0x31545320,0x73(%ebx),%esp
  1087c3:	39 00                	cmp    %eax,(%eax)
  1087c5:	44                   	inc    %esp
  1087c6:	69 67 69 74 61 6c 20 	imul   $0x206c6174,0x69(%edi),%esp
  1087cd:	56                   	push   %esi
  1087ce:	41                   	inc    %ecx
  1087cf:	58                   	pop    %eax
  1087d0:	00 45 6c             	add    %al,0x6c(%ebp)
  1087d3:	65                   	gs
  1087d4:	6d                   	insl   (%dx),%es:(%edi)
  1087d5:	65 6e                	outsb  %gs:(%esi),(%dx)
  1087d7:	74 20                	je     1087f9 <rodata+0x7f9>
  1087d9:	31 34 20             	xor    %esi,(%eax,%eiz,1)
  1087dc:	44                   	inc    %esp
  1087dd:	53                   	push   %ebx
  1087de:	50                   	push   %eax
  1087df:	00 4c 53 49          	add    %cl,0x49(%ebx,%edx,2)
  1087e3:	20 4c 6f 67          	and    %cl,0x67(%edi,%ebp,2)
  1087e7:	69 63 20 44 53 50 00 	imul   $0x505344,0x20(%ebx),%esp
  1087ee:	53                   	push   %ebx
  1087ef:	69 54 65 72 61 20 50 	imul   $0x72502061,0x72(%ebp,%eiz,2),%edx
  1087f6:	72 
  1087f7:	69 73 6d 00 41 74 6d 	imul   $0x6d744100,0x6d(%ebx),%esi
  1087fe:	65                   	gs
  1087ff:	6c                   	insb   (%dx),%es:(%edi)
  108800:	20 41 56             	and    %al,0x56(%ecx)
  108803:	52                   	push   %edx
  108804:	00 46 75             	add    %al,0x75(%esi)
  108807:	6a 69                	push   $0x69
  108809:	74 73                	je     10887e <rodata+0x87e>
  10880b:	75 20                	jne    10882d <rodata+0x82d>
  10880d:	46                   	inc    %esi
  10880e:	52                   	push   %edx
  10880f:	33 30                	xor    (%eax),%esi
  108811:	00 4d 69             	add    %cl,0x69(%ebp)
  108814:	74 73                	je     108889 <rodata+0x889>
  108816:	75 62                	jne    10887a <rodata+0x87a>
  108818:	69 73 68 69 20 44 31 	imul   $0x31442069,0x68(%ebx),%esi
  10881f:	30 56 00             	xor    %dl,0x0(%esi)
  108822:	4d                   	dec    %ebp
  108823:	69 74 73 75 62 69 73 	imul   $0x68736962,0x75(%ebx,%esi,2),%esi
  10882a:	68 
  10882b:	69 20 44 33 30 56    	imul   $0x56303344,(%eax),%esp
  108831:	00 4e 45             	add    %cl,0x45(%esi)
  108834:	43                   	inc    %ebx
  108835:	20 76 38             	and    %dh,0x38(%esi)
  108838:	35 30 00 4d 69       	xor    $0x694d0030,%eax
  10883d:	74 73                	je     1088b2 <rodata+0x8b2>
  10883f:	75 62                	jne    1088a3 <rodata+0x8a3>
  108841:	69 73 68 69 20 4d 33 	imul   $0x334d2069,0x68(%ebx),%esi
  108848:	32 52 00             	xor    0x0(%edx),%dl
  10884b:	4d                   	dec    %ebp
  10884c:	61                   	popa   
  10884d:	74 73                	je     1088c2 <rodata+0x8c2>
  10884f:	75 73                	jne    1088c4 <rodata+0x8c4>
  108851:	68 69 74 61 20       	push   $0x20617469
  108856:	4d                   	dec    %ebp
  108857:	4e                   	dec    %esi
  108858:	31 30                	xor    %esi,(%eax)
  10885a:	33 30                	xor    (%eax),%esi
  10885c:	30 00                	xor    %al,(%eax)
  10885e:	4d                   	dec    %ebp
  10885f:	61                   	popa   
  108860:	74 73                	je     1088d5 <rodata+0x8d5>
  108862:	75 73                	jne    1088d7 <rodata+0x8d7>
  108864:	68 69 74 61 20       	push   $0x20617469
  108869:	4d                   	dec    %ebp
  10886a:	4e                   	dec    %esi
  10886b:	31 30                	xor    %esi,(%eax)
  10886d:	32 30                	xor    (%eax),%dh
  10886f:	30 00                	xor    %al,(%eax)
  108871:	70 69                	jo     1088dc <rodata+0x8dc>
  108873:	63 6f 4a             	arpl   %bp,0x4a(%edi)
  108876:	61                   	popa   
  108877:	76 61                	jbe    1088da <rodata+0x8da>
  108879:	00 4f 70             	add    %cl,0x70(%edi)
  10887c:	65 6e                	outsb  %gs:(%esi),(%dx)
  10887e:	52                   	push   %edx
  10887f:	49                   	dec    %ecx
  108880:	53                   	push   %ebx
  108881:	43                   	inc    %ebx
  108882:	00 41 52             	add    %al,0x52(%ecx)
  108885:	43                   	inc    %ebx
  108886:	20 49 6e             	and    %cl,0x6e(%ecx)
  108889:	74 65                	je     1088f0 <rodata+0x8f0>
  10888b:	72 6e                	jb     1088fb <rodata+0x8fb>
  10888d:	61                   	popa   
  10888e:	74 69                	je     1088f9 <rodata+0x8f9>
  108890:	6f                   	outsl  %ds:(%esi),(%dx)
  108891:	6e                   	outsb  %ds:(%esi),(%dx)
  108892:	61                   	popa   
  108893:	6c                   	insb   (%dx),%es:(%edi)
  108894:	20 41 52             	and    %al,0x52(%ecx)
  108897:	43                   	inc    %ebx
  108898:	6f                   	outsl  %ds:(%esi),(%dx)
  108899:	6d                   	insl   (%dx),%es:(%edi)
  10889a:	70 61                	jo     1088fd <rodata+0x8fd>
  10889c:	63 74 00 54          	arpl   %si,0x54(%eax,%eax,1)
  1088a0:	65 6e                	outsb  %gs:(%esi),(%dx)
  1088a2:	73 69                	jae    10890d <rodata+0x90d>
  1088a4:	6c                   	insb   (%dx),%es:(%edi)
  1088a5:	69 63 61 20 58 74 65 	imul   $0x65745820,0x61(%ebx),%esp
  1088ac:	6e                   	outsb  %ds:(%esi),(%dx)
  1088ad:	73 61                	jae    108910 <rodata+0x910>
  1088af:	00 41 6c             	add    %al,0x6c(%ecx)
  1088b2:	70 68                	jo     10891c <rodata+0x91c>
  1088b4:	61                   	popa   
  1088b5:	6d                   	insl   (%dx),%es:(%edi)
  1088b6:	6f                   	outsl  %ds:(%esi),(%dx)
  1088b7:	73 61                	jae    10891a <rodata+0x91a>
  1088b9:	69 63 20 56 69 64 65 	imul   $0x65646956,0x20(%ebx),%esp
  1088c0:	6f                   	outsl  %ds:(%esi),(%dx)
  1088c1:	43                   	inc    %ebx
  1088c2:	6f                   	outsl  %ds:(%esi),(%dx)
  1088c3:	72 65                	jb     10892a <rodata+0x92a>
  1088c5:	00 54 65 6e          	add    %dl,0x6e(%ebp,%eiz,2)
  1088c9:	6f                   	outsl  %ds:(%esi),(%dx)
  1088ca:	72 20                	jb     1088ec <rodata+0x8ec>
  1088cc:	4e                   	dec    %esi
  1088cd:	65                   	gs
  1088ce:	74 77                	je     108947 <rodata+0x947>
  1088d0:	6f                   	outsl  %ds:(%esi),(%dx)
  1088d1:	72 6b                	jb     10893e <rodata+0x93e>
  1088d3:	20 54 50 43          	and    %dl,0x43(%eax,%edx,2)
  1088d7:	00 54 72 65          	add    %dl,0x65(%edx,%esi,2)
  1088db:	62 69 61             	bound  %ebp,0x61(%ecx)
  1088de:	20 53 4e             	and    %dl,0x4e(%ebx)
  1088e1:	50                   	push   %eax
  1088e2:	20 31                	and    %dh,(%ecx)
  1088e4:	30 30                	xor    %dh,(%eax)
  1088e6:	30 00                	xor    %al,(%eax)
  1088e8:	53                   	push   %ebx
  1088e9:	54                   	push   %esp
  1088ea:	4d                   	dec    %ebp
  1088eb:	69 63 72 6f 65 6c 65 	imul   $0x656c656f,0x72(%ebx),%esp
  1088f2:	63 74 72 6f          	arpl   %si,0x6f(%edx,%esi,2)
  1088f6:	6e                   	outsb  %ds:(%esi),(%dx)
  1088f7:	69 63 73 20 53 54 32 	imul   $0x32545320,0x73(%ebx),%esp
  1088fe:	30 30                	xor    %dh,(%eax)
  108900:	00 55 62             	add    %dl,0x62(%ebp)
  108903:	69 63 6f 6d 20 49 50 	imul   $0x5049206d,0x6f(%ebx),%esp
  10890a:	32 78 78             	xor    0x78(%eax),%bh
  10890d:	78 00                	js     10890f <rodata+0x90f>
  10890f:	4d                   	dec    %ebp
  108910:	41                   	inc    %ecx
  108911:	58                   	pop    %eax
  108912:	00 46 75             	add    %al,0x75(%esi)
  108915:	6a 69                	push   $0x69
  108917:	74 73                	je     10898c <rodata+0x98c>
  108919:	75 20                	jne    10893b <rodata+0x93b>
  10891b:	46                   	inc    %esi
  10891c:	32 4d 43             	xor    0x43(%ebp),%cl
  10891f:	31 36                	xor    %esi,(%esi)
  108921:	00 54 65 78          	add    %dl,0x78(%ebp,%eiz,2)
  108925:	61                   	popa   
  108926:	73 20                	jae    108948 <rodata+0x948>
  108928:	49                   	dec    %ecx
  108929:	6e                   	outsb  %ds:(%esi),(%dx)
  10892a:	73 74                	jae    1089a0 <rodata+0x9a0>
  10892c:	72 75                	jb     1089a3 <rodata+0x9a3>
  10892e:	6d                   	insl   (%dx),%es:(%edi)
  10892f:	65 6e                	outsb  %gs:(%esi),(%dx)
  108931:	74 73                	je     1089a6 <rodata+0x9a6>
  108933:	20 4d 53             	and    %cl,0x53(%ebp)
  108936:	50                   	push   %eax
  108937:	34 33                	xor    $0x33,%al
  108939:	30 00                	xor    %al,(%eax)
  10893b:	41                   	inc    %ecx
  10893c:	6e                   	outsb  %ds:(%esi),(%dx)
  10893d:	61                   	popa   
  10893e:	6c                   	insb   (%dx),%es:(%edi)
  10893f:	6f                   	outsl  %ds:(%esi),(%dx)
  108940:	67 20 44 65          	and    %al,0x65(%si)
  108944:	76 69                	jbe    1089af <rodata+0x9af>
  108946:	63 65 73             	arpl   %sp,0x73(%ebp)
  108949:	20 42 6c             	and    %al,0x6c(%edx)
  10894c:	61                   	popa   
  10894d:	63 6b 66             	arpl   %bp,0x66(%ebx)
  108950:	69 6e 20 44 53 50 00 	imul   $0x505344,0x20(%esi),%ebp
  108957:	53                   	push   %ebx
  108958:	65 69 6b 6f 20 45 70 	imul   $0x73704520,%gs:0x6f(%ebx),%ebp
  10895f:	73 
  108960:	6f                   	outsl  %ds:(%esi),(%dx)
  108961:	6e                   	outsb  %ds:(%esi),(%dx)
  108962:	20 53 31             	and    %dl,0x31(%ebx)
  108965:	43                   	inc    %ebx
  108966:	33 33                	xor    (%ebx),%esi
  108968:	20 46 61             	and    %al,0x61(%esi)
  10896b:	6d                   	insl   (%dx),%es:(%edi)
  10896c:	69 6c 79 00 53 68 61 	imul   $0x72616853,0x0(%ecx,%edi,2),%ebp
  108973:	72 
  108974:	70 00                	jo     108976 <rodata+0x976>
  108976:	41                   	inc    %ecx
  108977:	72 63                	jb     1089dc <rodata+0x9dc>
  108979:	61                   	popa   
  10897a:	20 52 49             	and    %dl,0x49(%edx)
  10897d:	53                   	push   %ebx
  10897e:	43                   	inc    %ebx
  10897f:	00 65 58             	add    %ah,0x58(%ebp)
  108982:	63 65 73             	arpl   %sp,0x73(%ebp)
  108985:	73 20                	jae    1089a7 <rodata+0x9a7>
  108987:	43                   	inc    %ebx
  108988:	50                   	push   %eax
  108989:	55                   	push   %ebp
  10898a:	00 41 6c             	add    %al,0x6c(%ecx)
  10898d:	74 65                	je     1089f4 <rodata+0x9f4>
  10898f:	72 61                	jb     1089f2 <rodata+0x9f2>
  108991:	20 4e 69             	and    %cl,0x69(%esi)
  108994:	6f                   	outsl  %ds:(%esi),(%dx)
  108995:	73 20                	jae    1089b7 <rodata+0x9b7>
  108997:	49                   	dec    %ecx
  108998:	49                   	dec    %ecx
  108999:	00 4d 6f             	add    %cl,0x6f(%ebp)
  10899c:	74 6f                	je     108a0d <rodata+0xa0d>
  10899e:	72 6f                	jb     108a0f <rodata+0xa0f>
  1089a0:	6c                   	insb   (%dx),%es:(%edi)
  1089a1:	61                   	popa   
  1089a2:	74 65                	je     108a09 <rodata+0xa09>
  1089a4:	20 58 47             	and    %bl,0x47(%eax)
  1089a7:	41                   	inc    %ecx
  1089a8:	54                   	push   %esp
  1089a9:	45                   	inc    %ebp
  1089aa:	00 49 6e             	add    %cl,0x6e(%ecx)
  1089ad:	66 69 6e 65 6f 6e    	imul   $0x6e6f,0x65(%esi),%bp
  1089b3:	20 43 31             	and    %al,0x31(%ebx)
  1089b6:	36                   	ss
  1089b7:	78 2f                	js     1089e8 <rodata+0x9e8>
  1089b9:	58                   	pop    %eax
  1089ba:	43                   	inc    %ebx
  1089bb:	31 36                	xor    %esi,(%esi)
  1089bd:	78 00                	js     1089bf <rodata+0x9bf>
  1089bf:	52                   	push   %edx
  1089c0:	65 6e                	outsb  %gs:(%esi),(%dx)
  1089c2:	65                   	gs
  1089c3:	73 61                	jae    108a26 <rodata+0xa26>
  1089c5:	73 20                	jae    1089e7 <rodata+0x9e7>
  1089c7:	4d                   	dec    %ebp
  1089c8:	31 36                	xor    %esi,(%esi)
  1089ca:	43                   	inc    %ebx
  1089cb:	00 52 65             	add    %dl,0x65(%edx)
  1089ce:	6e                   	outsb  %ds:(%esi),(%dx)
  1089cf:	65                   	gs
  1089d0:	73 61                	jae    108a33 <rodata+0xa33>
  1089d2:	73 20                	jae    1089f4 <rodata+0x9f4>
  1089d4:	4d                   	dec    %ebp
  1089d5:	33 32                	xor    (%edx),%esi
  1089d7:	43                   	inc    %ebx
  1089d8:	00 41 6c             	add    %al,0x6c(%ecx)
  1089db:	74 69                	je     108a46 <rodata+0xa46>
  1089dd:	75 6d                	jne    108a4c <rodata+0xa4c>
  1089df:	20 54 53 4b          	and    %dl,0x4b(%ebx,%edx,2)
  1089e3:	33 30                	xor    (%eax),%esi
  1089e5:	30 30                	xor    %dh,(%eax)
  1089e7:	00 46 72             	add    %al,0x72(%esi)
  1089ea:	65                   	gs
  1089eb:	65                   	gs
  1089ec:	73 63                	jae    108a51 <rodata+0xa51>
  1089ee:	61                   	popa   
  1089ef:	6c                   	insb   (%dx),%es:(%edi)
  1089f0:	65 20 52 53          	and    %dl,%gs:0x53(%edx)
  1089f4:	30 38                	xor    %bh,(%eax)
  1089f6:	00 41 6e             	add    %al,0x6e(%ecx)
  1089f9:	61                   	popa   
  1089fa:	6c                   	insb   (%dx),%es:(%edi)
  1089fb:	6f                   	outsl  %ds:(%esi),(%dx)
  1089fc:	67 20 44 65          	and    %al,0x65(%si)
  108a00:	76 69                	jbe    108a6b <rodata+0xa6b>
  108a02:	63 65 73             	arpl   %sp,0x73(%ebp)
  108a05:	20 53 48             	and    %dl,0x48(%ebx)
  108a08:	41                   	inc    %ecx
  108a09:	52                   	push   %edx
  108a0a:	43                   	inc    %ebx
  108a0b:	00 43 79             	add    %al,0x79(%ebx)
  108a0e:	61                   	popa   
  108a0f:	6e                   	outsb  %ds:(%esi),(%dx)
  108a10:	20 54 65 63          	and    %dl,0x63(%ebp,%eiz,2)
  108a14:	68 6e 6f 6c 6f       	push   $0x6f6c6f6e
  108a19:	67 79 20             	addr16 jns 108a3c <rodata+0xa3c>
  108a1c:	65                   	gs
  108a1d:	43                   	inc    %ebx
  108a1e:	4f                   	dec    %edi
  108a1f:	47                   	inc    %edi
  108a20:	32 00                	xor    (%eax),%al
  108a22:	53                   	push   %ebx
  108a23:	75 6e                	jne    108a93 <rodata+0xa93>
  108a25:	70 6c                	jo     108a93 <rodata+0xa93>
  108a27:	75 73                	jne    108a9c <rodata+0xa9c>
  108a29:	20 53 2b             	and    %dl,0x2b(%ebx)
  108a2c:	63 6f 72             	arpl   %bp,0x72(%edi)
  108a2f:	65                   	gs
  108a30:	37                   	aaa    
  108a31:	20 52 49             	and    %dl,0x49(%edx)
  108a34:	53                   	push   %ebx
  108a35:	43                   	inc    %ebx
  108a36:	00 4e 65             	add    %cl,0x65(%esi)
  108a39:	77 20                	ja     108a5b <rodata+0xa5b>
  108a3b:	4a                   	dec    %edx
  108a3c:	61                   	popa   
  108a3d:	70 61                	jo     108aa0 <rodata+0xaa0>
  108a3f:	6e                   	outsb  %ds:(%esi),(%dx)
  108a40:	20 52 61             	and    %dl,0x61(%edx)
  108a43:	64 69 6f 20 44 53 50 	imul   $0x20505344,%fs:0x20(%edi),%ebp
  108a4a:	20 
  108a4b:	32 34 2d 62 69 74 00 	xor    0x746962(,%ebp,1),%dh
  108a52:	42                   	inc    %edx
  108a53:	72 6f                	jb     108ac4 <rodata+0xac4>
  108a55:	61                   	popa   
  108a56:	64 63 6f 6d          	arpl   %bp,%fs:0x6d(%edi)
  108a5a:	20 56 69             	and    %dl,0x69(%esi)
  108a5d:	64 65 6f             	fs outsl %fs:%gs:(%esi),(%dx)
  108a60:	43                   	inc    %ebx
  108a61:	6f                   	outsl  %ds:(%esi),(%dx)
  108a62:	72 65                	jb     108ac9 <rodata+0xac9>
  108a64:	20 49 49             	and    %cl,0x49(%ecx)
  108a67:	49                   	dec    %ecx
  108a68:	00 52 49             	add    %dl,0x49(%edx)
  108a6b:	53                   	push   %ebx
  108a6c:	43                   	inc    %ebx
  108a6d:	20 66 6f             	and    %ah,0x6f(%esi)
  108a70:	72 20                	jb     108a92 <rodata+0xa92>
  108a72:	4c                   	dec    %esp
  108a73:	61                   	popa   
  108a74:	74 74                	je     108aea <rodata+0xaea>
  108a76:	69 63 65 20 46 50 47 	imul   $0x47504620,0x65(%ebx),%esp
  108a7d:	41                   	inc    %ecx
  108a7e:	00 53 65             	add    %dl,0x65(%ebx)
  108a81:	69 6b 6f 20 45 70 73 	imul   $0x73704520,0x6f(%ebx),%ebp
  108a88:	6f                   	outsl  %ds:(%esi),(%dx)
  108a89:	6e                   	outsb  %ds:(%esi),(%dx)
  108a8a:	20 43 31             	and    %al,0x31(%ebx)
  108a8d:	37                   	aaa    
  108a8e:	00 54 65 78          	add    %dl,0x78(%ebp,%eiz,2)
  108a92:	61                   	popa   
  108a93:	73 20                	jae    108ab5 <rodata+0xab5>
  108a95:	49                   	dec    %ecx
  108a96:	6e                   	outsb  %ds:(%esi),(%dx)
  108a97:	73 74                	jae    108b0d <rodata+0xb0d>
  108a99:	72 75                	jb     108b10 <rodata+0xb10>
  108a9b:	6d                   	insl   (%dx),%es:(%edi)
  108a9c:	65 6e                	outsb  %gs:(%esi),(%dx)
  108a9e:	74 73                	je     108b13 <rodata+0xb13>
  108aa0:	20 54 4d 53          	and    %dl,0x53(%ebp,%ecx,2)
  108aa4:	33 32                	xor    (%edx),%esi
  108aa6:	30 43 36             	xor    %al,0x36(%ebx)
  108aa9:	30 30                	xor    %dh,(%eax)
  108aab:	30 00                	xor    %al,(%eax)
  108aad:	54                   	push   %esp
  108aae:	65                   	gs
  108aaf:	78 61                	js     108b12 <rodata+0xb12>
  108ab1:	73 20                	jae    108ad3 <rodata+0xad3>
  108ab3:	49                   	dec    %ecx
  108ab4:	6e                   	outsb  %ds:(%esi),(%dx)
  108ab5:	73 74                	jae    108b2b <rodata+0xb2b>
  108ab7:	72 75                	jb     108b2e <rodata+0xb2e>
  108ab9:	6d                   	insl   (%dx),%es:(%edi)
  108aba:	65 6e                	outsb  %gs:(%esi),(%dx)
  108abc:	74 73                	je     108b31 <rodata+0xb31>
  108abe:	20 54 4d 53          	and    %dl,0x53(%ebp,%ecx,2)
  108ac2:	33 32                	xor    (%edx),%esi
  108ac4:	30 43 32             	xor    %al,0x32(%ebx)
  108ac7:	30 30                	xor    %dh,(%eax)
  108ac9:	30 00                	xor    %al,(%eax)
  108acb:	54                   	push   %esp
  108acc:	65                   	gs
  108acd:	78 61                	js     108b30 <rodata+0xb30>
  108acf:	73 20                	jae    108af1 <rodata+0xaf1>
  108ad1:	49                   	dec    %ecx
  108ad2:	6e                   	outsb  %ds:(%esi),(%dx)
  108ad3:	73 74                	jae    108b49 <rodata+0xb49>
  108ad5:	72 75                	jb     108b4c <rodata+0xb4c>
  108ad7:	6d                   	insl   (%dx),%es:(%edi)
  108ad8:	65 6e                	outsb  %gs:(%esi),(%dx)
  108ada:	74 73                	je     108b4f <rodata+0xb4f>
  108adc:	20 54 4d 53          	and    %dl,0x53(%ebp,%ecx,2)
  108ae0:	33 32                	xor    (%edx),%esi
  108ae2:	30 43 35             	xor    %al,0x35(%ebx)
  108ae5:	35 30 30 00 43       	xor    $0x43003030,%eax
  108aea:	79 70                	jns    108b5c <rodata+0xb5c>
  108aec:	72 65                	jb     108b53 <rodata+0xb53>
  108aee:	73 73                	jae    108b63 <rodata+0xb63>
  108af0:	20 4d 38             	and    %cl,0x38(%ebp)
  108af3:	43                   	inc    %ebx
  108af4:	00 52 65             	add    %dl,0x65(%edx)
  108af7:	6e                   	outsb  %ds:(%esi),(%dx)
  108af8:	65                   	gs
  108af9:	73 61                	jae    108b5c <rodata+0xb5c>
  108afb:	73 20                	jae    108b1d <rodata+0xb1d>
  108afd:	52                   	push   %edx
  108afe:	33 32                	xor    (%edx),%esi
  108b00:	43                   	inc    %ebx
  108b01:	00 4e 58             	add    %cl,0x58(%esi)
  108b04:	50                   	push   %eax
  108b05:	20 53 65             	and    %dl,0x65(%ebx)
  108b08:	6d                   	insl   (%dx),%es:(%edi)
  108b09:	69 63 6f 6e 64 75 63 	imul   $0x6375646e,0x6f(%ebx),%esp
  108b10:	74 6f                	je     108b81 <rodata+0xb81>
  108b12:	72 73                	jb     108b87 <rodata+0xb87>
  108b14:	20 54 72 69          	and    %dl,0x69(%edx,%esi,2)
  108b18:	4d                   	dec    %ebp
  108b19:	65 64 69 61 00 51 55 	gs imul $0x4c415551,%fs:%gs:0x0(%ecx),%esp
  108b20:	41 4c 
  108b22:	43                   	inc    %ebx
  108b23:	4f                   	dec    %edi
  108b24:	4d                   	dec    %ebp
  108b25:	4d                   	dec    %ebp
  108b26:	20 44 53 50          	and    %al,0x50(%ebx,%edx,2)
  108b2a:	36 00 49 6e          	add    %cl,%ss:0x6e(%ecx)
  108b2e:	74 65                	je     108b95 <rodata+0xb95>
  108b30:	6c                   	insb   (%dx),%es:(%edi)
  108b31:	20 38                	and    %bh,(%eax)
  108b33:	30 35 31 20 61 6e    	xor    %dh,0x6e612031
  108b39:	64 20 76 61          	and    %dh,%fs:0x61(%esi)
  108b3d:	72 69                	jb     108ba8 <rodata+0xba8>
  108b3f:	61                   	popa   
  108b40:	6e                   	outsb  %ds:(%esi),(%dx)
  108b41:	74 73                	je     108bb6 <rodata+0xbb6>
  108b43:	00 41 6e             	add    %al,0x6e(%ecx)
  108b46:	64                   	fs
  108b47:	65                   	gs
  108b48:	73 20                	jae    108b6a <rodata+0xb6a>
  108b4a:	54                   	push   %esp
  108b4b:	65 63 68 6e          	arpl   %bp,%gs:0x6e(%eax)
  108b4f:	6f                   	outsl  %ds:(%esi),(%dx)
  108b50:	6c                   	insb   (%dx),%es:(%edi)
  108b51:	6f                   	outsl  %ds:(%esi),(%dx)
  108b52:	67 79 20             	addr16 jns 108b75 <rodata+0xb75>
  108b55:	52                   	push   %edx
  108b56:	49                   	dec    %ecx
  108b57:	53                   	push   %ebx
  108b58:	43                   	inc    %ebx
  108b59:	00 43 79             	add    %al,0x79(%ebx)
  108b5c:	61                   	popa   
  108b5d:	6e                   	outsb  %ds:(%esi),(%dx)
  108b5e:	20 54 65 63          	and    %dl,0x63(%ebp,%eiz,2)
  108b62:	68 6e 6f 6c 6f       	push   $0x6f6c6f6e
  108b67:	67 79 20             	addr16 jns 108b8a <rodata+0xb8a>
  108b6a:	65                   	gs
  108b6b:	43                   	inc    %ebx
  108b6c:	4f                   	dec    %edi
  108b6d:	47                   	inc    %edi
  108b6e:	31 58 00             	xor    %ebx,0x0(%eax)
  108b71:	4e                   	dec    %esi
  108b72:	65                   	gs
  108b73:	77 20                	ja     108b95 <rodata+0xb95>
  108b75:	4a                   	dec    %edx
  108b76:	61                   	popa   
  108b77:	70 61                	jo     108bda <rodata+0xbda>
  108b79:	6e                   	outsb  %ds:(%esi),(%dx)
  108b7a:	20 52 61             	and    %dl,0x61(%edx)
  108b7d:	64 69 6f 20 44 53 50 	imul   $0x20505344,%fs:0x20(%edi),%ebp
  108b84:	20 
  108b85:	31 36                	xor    %esi,(%esi)
  108b87:	2d 62 69 74 00       	sub    $0x746962,%eax
  108b8c:	52                   	push   %edx
  108b8d:	65 6e                	outsb  %gs:(%esi),(%dx)
  108b8f:	65                   	gs
  108b90:	73 61                	jae    108bf3 <rodata+0xbf3>
  108b92:	73 20                	jae    108bb4 <rodata+0xbb4>
  108b94:	52                   	push   %edx
  108b95:	58                   	pop    %eax
  108b96:	00 4d 43             	add    %cl,0x43(%ebp)
  108b99:	53                   	push   %ebx
  108b9a:	54                   	push   %esp
  108b9b:	20 45 6c             	and    %al,0x6c(%ebp)
  108b9e:	62 72 75             	bound  %esi,0x75(%edx)
  108ba1:	73 00                	jae    108ba3 <rodata+0xba3>
  108ba3:	43                   	inc    %ebx
  108ba4:	79 61                	jns    108c07 <rodata+0xc07>
  108ba6:	6e                   	outsb  %ds:(%esi),(%dx)
  108ba7:	20 54 65 63          	and    %dl,0x63(%ebp,%eiz,2)
  108bab:	68 6e 6f 6c 6f       	push   $0x6f6c6f6e
  108bb0:	67 79 20             	addr16 jns 108bd3 <rodata+0xbd3>
  108bb3:	65                   	gs
  108bb4:	43                   	inc    %ebx
  108bb5:	4f                   	dec    %edi
  108bb6:	47                   	inc    %edi
  108bb7:	31 36                	xor    %esi,(%esi)
  108bb9:	00 49 6e             	add    %cl,0x6e(%ecx)
  108bbc:	74 65                	je     108c23 <rodata+0xc23>
  108bbe:	6c                   	insb   (%dx),%es:(%edi)
  108bbf:	20 4c 31 30          	and    %cl,0x30(%ecx,%esi,1)
  108bc3:	4d                   	dec    %ebp
  108bc4:	00 49 6e             	add    %cl,0x6e(%ecx)
  108bc7:	74 65                	je     108c2e <rodata+0xc2e>
  108bc9:	6c                   	insb   (%dx),%es:(%edi)
  108bca:	20 4b 31             	and    %cl,0x31(%ebx)
  108bcd:	30 4d 00             	xor    %cl,0x0(%ebp)
  108bd0:	41                   	inc    %ecx
  108bd1:	52                   	push   %edx
  108bd2:	4d                   	dec    %ebp
  108bd3:	20 36                	and    %dh,(%esi)
  108bd5:	34 2d                	xor    $0x2d,%al
  108bd7:	62 69 74             	bound  %ebp,0x74(%ecx)
  108bda:	00 41 74             	add    %al,0x74(%ecx)
  108bdd:	6d                   	insl   (%dx),%es:(%edi)
  108bde:	65                   	gs
  108bdf:	6c                   	insb   (%dx),%es:(%edi)
  108be0:	20 43 6f             	and    %al,0x6f(%ebx)
  108be3:	72 70                	jb     108c55 <rodata+0xc55>
  108be5:	6f                   	outsl  %ds:(%esi),(%dx)
  108be6:	72 61                	jb     108c49 <rodata+0xc49>
  108be8:	74 69                	je     108c53 <rodata+0xc53>
  108bea:	6f                   	outsl  %ds:(%esi),(%dx)
  108beb:	6e                   	outsb  %ds:(%esi),(%dx)
  108bec:	20 41 56             	and    %al,0x56(%ecx)
  108bef:	52                   	push   %edx
  108bf0:	20 33                	and    %dh,(%ebx)
  108bf2:	32 2d 62 69 74 00    	xor    0x746962,%ch
  108bf8:	53                   	push   %ebx
  108bf9:	54                   	push   %esp
  108bfa:	4d                   	dec    %ebp
  108bfb:	69 63 72 6f 65 6c 65 	imul   $0x656c656f,0x72(%ebx),%esp
  108c02:	63 74 72 6f          	arpl   %si,0x6f(%edx,%esi,2)
  108c06:	6e                   	outsb  %ds:(%esi),(%dx)
  108c07:	69 63 73 20 53 54 4d 	imul   $0x4d545320,0x73(%ebx),%esp
  108c0e:	38 00                	cmp    %al,(%eax)
  108c10:	54                   	push   %esp
  108c11:	69 6c 65 72 61 20 54 	imul   $0x49542061,0x72(%ebp,%eiz,2),%ebp
  108c18:	49 
  108c19:	4c                   	dec    %esp
  108c1a:	45                   	inc    %ebp
  108c1b:	36                   	ss
  108c1c:	34 00                	xor    $0x0,%al
  108c1e:	54                   	push   %esp
  108c1f:	69 6c 65 72 61 20 54 	imul   $0x49542061,0x72(%ebp,%eiz,2),%ebp
  108c26:	49 
  108c27:	4c                   	dec    %esp
  108c28:	45                   	inc    %ebp
  108c29:	50                   	push   %eax
  108c2a:	72 6f                	jb     108c9b <rodata+0xc9b>
  108c2c:	00 58 69             	add    %bl,0x69(%eax)
  108c2f:	6c                   	insb   (%dx),%es:(%edi)
  108c30:	69 6e 78 20 4d 69 63 	imul   $0x63694d20,0x78(%esi),%ebp
  108c37:	72 6f                	jb     108ca8 <rodata+0xca8>
  108c39:	42                   	inc    %edx
  108c3a:	6c                   	insb   (%dx),%es:(%edi)
  108c3b:	61                   	popa   
  108c3c:	7a 65                	jp     108ca3 <rodata+0xca3>
  108c3e:	20 52 49             	and    %dl,0x49(%edx)
  108c41:	53                   	push   %ebx
  108c42:	43                   	inc    %ebx
  108c43:	00 4e 56             	add    %cl,0x56(%esi)
  108c46:	49                   	dec    %ecx
  108c47:	44                   	inc    %esp
  108c48:	49                   	dec    %ecx
  108c49:	41                   	inc    %ecx
  108c4a:	20 43 55             	and    %al,0x55(%ebx)
  108c4d:	44                   	inc    %esp
  108c4e:	41                   	inc    %ecx
  108c4f:	00 54 69 6c          	add    %dl,0x6c(%ecx,%ebp,2)
  108c53:	65                   	gs
  108c54:	72 61                	jb     108cb7 <rodata+0xcb7>
  108c56:	20 54 49 4c          	and    %dl,0x4c(%ecx,%ecx,2)
  108c5a:	45                   	inc    %ebp
  108c5b:	2d 47 78 00 43       	sub    $0x43007847,%eax
  108c60:	6c                   	insb   (%dx),%es:(%edi)
  108c61:	6f                   	outsl  %ds:(%esi),(%dx)
  108c62:	75 64                	jne    108cc8 <rodata+0xcc8>
  108c64:	53                   	push   %ebx
  108c65:	68 69 65 6c 64       	push   $0x646c6569
  108c6a:	00 53 79             	add    %dl,0x79(%ebx)
  108c6d:	6e                   	outsb  %ds:(%esi),(%dx)
  108c6e:	6f                   	outsl  %ds:(%esi),(%dx)
  108c6f:	70 73                	jo     108ce4 <rodata+0xce4>
  108c71:	79 73                	jns    108ce6 <rodata+0xce6>
  108c73:	20 41 52             	and    %al,0x52(%ecx)
  108c76:	43                   	inc    %ebx
  108c77:	6f                   	outsl  %ds:(%esi),(%dx)
  108c78:	6d                   	insl   (%dx),%es:(%edi)
  108c79:	70 61                	jo     108cdc <rodata+0xcdc>
  108c7b:	63 74 20 56          	arpl   %si,0x56(%eax,%eiz,1)
  108c7f:	32 00                	xor    (%eax),%al
  108c81:	4f                   	dec    %edi
  108c82:	70 65                	jo     108ce9 <rodata+0xce9>
  108c84:	6e                   	outsb  %ds:(%esi),(%dx)
  108c85:	38 20                	cmp    %ah,(%eax)
  108c87:	38 2d 62 69 74 20    	cmp    %ch,0x20746962
  108c8d:	52                   	push   %edx
  108c8e:	49                   	dec    %ecx
  108c8f:	53                   	push   %ebx
  108c90:	43                   	inc    %ebx
  108c91:	00 52 65             	add    %dl,0x65(%edx)
  108c94:	6e                   	outsb  %ds:(%esi),(%dx)
  108c95:	65                   	gs
  108c96:	73 61                	jae    108cf9 <rodata+0xcf9>
  108c98:	73 20                	jae    108cba <rodata+0xcba>
  108c9a:	52                   	push   %edx
  108c9b:	4c                   	dec    %esp
  108c9c:	37                   	aaa    
  108c9d:	38 00                	cmp    %al,(%eax)
  108c9f:	42                   	inc    %edx
  108ca0:	72 6f                	jb     108d11 <rodata+0xd11>
  108ca2:	61                   	popa   
  108ca3:	64 63 6f 6d          	arpl   %bp,%fs:0x6d(%edi)
  108ca7:	20 56 69             	and    %dl,0x69(%esi)
  108caa:	64 65 6f             	fs outsl %fs:%gs:(%esi),(%dx)
  108cad:	43                   	inc    %ebx
  108cae:	6f                   	outsl  %ds:(%esi),(%dx)
  108caf:	72 65                	jb     108d16 <rodata+0xd16>
  108cb1:	20 56 00             	and    %dl,0x0(%esi)
  108cb4:	52                   	push   %edx
  108cb5:	65 6e                	outsb  %gs:(%esi),(%dx)
  108cb7:	65                   	gs
  108cb8:	73 61                	jae    108d1b <rodata+0xd1b>
  108cba:	73 20                	jae    108cdc <rodata+0xcdc>
  108cbc:	37                   	aaa    
  108cbd:	38 4b 4f             	cmp    %cl,0x4f(%ebx)
  108cc0:	52                   	push   %edx
  108cc1:	00 46 72             	add    %al,0x72(%esi)
  108cc4:	65                   	gs
  108cc5:	65                   	gs
  108cc6:	73 63                	jae    108d2b <rodata+0xd2b>
  108cc8:	61                   	popa   
  108cc9:	6c                   	insb   (%dx),%es:(%edi)
  108cca:	65 20 35 36 38 30 30 	and    %dh,%gs:0x30303836
  108cd1:	45                   	inc    %ebp
  108cd2:	58                   	pop    %eax
  108cd3:	20 44 53 43          	and    %al,0x43(%ebx,%edx,2)
  108cd7:	00 42 65             	add    %al,0x65(%edx)
  108cda:	79 6f                	jns    108d4b <rodata+0xd4b>
  108cdc:	6e                   	outsb  %ds:(%esi),(%dx)
  108cdd:	64 20 42 41          	and    %al,%fs:0x41(%edx)
  108ce1:	31 00                	xor    %eax,(%eax)
  108ce3:	42                   	inc    %edx
  108ce4:	65                   	gs
  108ce5:	79 6f                	jns    108d56 <rodata+0xd56>
  108ce7:	6e                   	outsb  %ds:(%esi),(%dx)
  108ce8:	64 20 42 41          	and    %al,%fs:0x41(%edx)
  108cec:	32 00                	xor    (%eax),%al
  108cee:	58                   	pop    %eax
  108cef:	4d                   	dec    %ebp
  108cf0:	4f                   	dec    %edi
  108cf1:	53                   	push   %ebx
  108cf2:	20 78 43             	and    %bh,0x43(%eax)
  108cf5:	4f                   	dec    %edi
  108cf6:	52                   	push   %edx
  108cf7:	45                   	inc    %ebp
  108cf8:	00 4d 69             	add    %cl,0x69(%ebp)
  108cfb:	63 72 6f             	arpl   %si,0x6f(%edx)
  108cfe:	63 68 69             	arpl   %bp,0x69(%eax)
  108d01:	70 20                	jo     108d23 <rodata+0xd23>
  108d03:	38 2d 62 69 74 20    	cmp    %ch,0x20746962
  108d09:	50                   	push   %eax
  108d0a:	49                   	dec    %ecx
  108d0b:	43                   	inc    %ebx
  108d0c:	00 49 6e             	add    %cl,0x6e(%ecx)
  108d0f:	76 61                	jbe    108d72 <rodata+0xd72>
  108d11:	6c                   	insb   (%dx),%es:(%edi)
  108d12:	69 64 20 63 6c 61 73 	imul   $0x7373616c,0x63(%eax,%eiz,1),%esp
  108d19:	73 
  108d1a:	00 52 65             	add    %dl,0x65(%edx)
  108d1d:	6c                   	insb   (%dx),%es:(%edi)
  108d1e:	6f                   	outsl  %ds:(%esi),(%dx)
  108d1f:	63 61 74             	arpl   %sp,0x74(%ecx)
  108d22:	61                   	popa   
  108d23:	62 6c 65 20          	bound  %ebp,0x20(%ebp,%eiz,2)
  108d27:	66 69 6c 65 00 45 78 	imul   $0x7845,0x0(%ebp,%eiz,2),%bp
  108d2e:	65 63 75 74          	arpl   %si,%gs:0x74(%ebp)
  108d32:	61                   	popa   
  108d33:	62 6c 65 20          	bound  %ebp,0x20(%ebp,%eiz,2)
  108d37:	66 69 6c 65 00 53 68 	imul   $0x6853,0x0(%ebp,%eiz,2),%bp
  108d3e:	61                   	popa   
  108d3f:	72 65                	jb     108da6 <rodata+0xda6>
  108d41:	64 20 6f 62          	and    %ch,%fs:0x62(%edi)
  108d45:	6a 65                	push   $0x65
  108d47:	63 74 20 66          	arpl   %si,0x66(%eax,%eiz,1)
  108d4b:	69 6c 65 00 43 6f 72 	imul   $0x65726f43,0x0(%ebp,%eiz,2),%ebp
  108d52:	65 
  108d53:	20 66 69             	and    %ah,0x69(%esi)
  108d56:	6c                   	insb   (%dx),%es:(%edi)
  108d57:	65 00 55 6e          	add    %dl,%gs:0x6e(%ebp)
  108d5b:	72 65                	jb     108dc2 <rodata+0xdc2>
  108d5d:	63 6f 67             	arpl   %bp,0x67(%edi)
  108d60:	6e                   	outsb  %ds:(%esi),(%dx)
  108d61:	69 7a 65 64 20 74 79 	imul   $0x79742064,0x65(%edx),%edi
  108d68:	70 65                	jo     108dcf <rodata+0xdcf>
  108d6a:	00 00                	add    %al,(%eax)
  108d6c:	a3 32 10 00 c7       	mov    %eax,0xc7001032
  108d71:	32 10                	xor    (%eax),%dl
  108d73:	00 a9 32 10 00 af    	add    %ch,-0x50ffefce(%ecx)
  108d79:	32 10                	xor    (%eax),%dl
  108d7b:	00 b5 32 10 00 bb    	add    %dh,-0x44ffefce(%ebp)
  108d81:	32 10                	xor    (%eax),%dl
  108d83:	00 c1                	add    %al,%cl
  108d85:	32 10                	xor    (%eax),%dl
  108d87:	00 e1                	add    %ah,%cl
  108d89:	32 10                	xor    (%eax),%dl
  108d8b:	00 0b                	add    %cl,(%ebx)
  108d8d:	33 10                	xor    (%eax),%edx
  108d8f:	00 e7                	add    %ah,%bh
  108d91:	32 10                	xor    (%eax),%dl
  108d93:	00 05 33 10 00 05    	add    %al,0x5001033
  108d99:	33 10                	xor    (%eax),%edx
  108d9b:	00 05 33 10 00 05    	add    %al,0x5001033
  108da1:	33 10                	xor    (%eax),%edx
  108da3:	00 05 33 10 00 05    	add    %al,0x5001033
  108da9:	33 10                	xor    (%eax),%edx
  108dab:	00 05 33 10 00 ed    	add    %al,0xed001033
  108db1:	32 10                	xor    (%eax),%dl
  108db3:	00 05 33 10 00 f3    	add    %al,0xf3001033
  108db9:	32 10                	xor    (%eax),%dl
  108dbb:	00 f9                	add    %bh,%cl
  108dbd:	32 10                	xor    (%eax),%dl
  108dbf:	00 05 33 10 00 ff    	add    %al,0xff001033
  108dc5:	32 10                	xor    (%eax),%dl
  108dc7:	00 4b 33             	add    %cl,0x33(%ebx)
  108dca:	10 00                	adc    %al,(%eax)
  108dcc:	ff 36                	pushl  (%esi)
  108dce:	10 00                	adc    %al,(%eax)
  108dd0:	51                   	push   %ecx
  108dd1:	33 10                	xor    (%eax),%edx
  108dd3:	00 57 33             	add    %dl,0x33(%edi)
  108dd6:	10 00                	adc    %al,(%eax)
  108dd8:	5d                   	pop    %ebp
  108dd9:	33 10                	xor    (%eax),%edx
  108ddb:	00 63 33             	add    %ah,0x33(%ebx)
  108dde:	10 00                	adc    %al,(%eax)
  108de0:	f9                   	stc    
  108de1:	36 10 00             	adc    %al,%ss:(%eax)
  108de4:	69 33 10 00 6f 33    	imul   $0x336f0010,(%ebx),%esi
  108dea:	10 00                	adc    %al,(%eax)
  108dec:	75 33                	jne    108e21 <rodata+0xe21>
  108dee:	10 00                	adc    %al,(%eax)
  108df0:	7b 33                	jnp    108e25 <rodata+0xe25>
  108df2:	10 00                	adc    %al,(%eax)
  108df4:	f9                   	stc    
  108df5:	36 10 00             	adc    %al,%ss:(%eax)
  108df8:	f9                   	stc    
  108df9:	36 10 00             	adc    %al,%ss:(%eax)
  108dfc:	f9                   	stc    
  108dfd:	36 10 00             	adc    %al,%ss:(%eax)
  108e00:	f9                   	stc    
  108e01:	36 10 00             	adc    %al,%ss:(%eax)
  108e04:	81 33 10 00 f9 36    	xorl   $0x36f90010,(%ebx)
  108e0a:	10 00                	adc    %al,(%eax)
  108e0c:	87 33                	xchg   %esi,(%ebx)
  108e0e:	10 00                	adc    %al,(%eax)
  108e10:	8d 33                	lea    (%ebx),%esi
  108e12:	10 00                	adc    %al,(%eax)
  108e14:	93                   	xchg   %eax,%ebx
  108e15:	33 10                	xor    (%eax),%edx
  108e17:	00 99 33 10 00 9f    	add    %bl,-0x60ffefcd(%ecx)
  108e1d:	33 10                	xor    (%eax),%edx
  108e1f:	00 a5 33 10 00 ab    	add    %ah,-0x54ffefcd(%ebp)
  108e25:	33 10                	xor    (%eax),%edx
  108e27:	00 f9                	add    %bh,%cl
  108e29:	36 10 00             	adc    %al,%ss:(%eax)
  108e2c:	f9                   	stc    
  108e2d:	36 10 00             	adc    %al,%ss:(%eax)
  108e30:	f9                   	stc    
  108e31:	36 10 00             	adc    %al,%ss:(%eax)
  108e34:	f9                   	stc    
  108e35:	36 10 00             	adc    %al,%ss:(%eax)
  108e38:	f9                   	stc    
  108e39:	36 10 00             	adc    %al,%ss:(%eax)
  108e3c:	f9                   	stc    
  108e3d:	36 10 00             	adc    %al,%ss:(%eax)
  108e40:	f9                   	stc    
  108e41:	36 10 00             	adc    %al,%ss:(%eax)
  108e44:	f9                   	stc    
  108e45:	36 10 00             	adc    %al,%ss:(%eax)
  108e48:	f9                   	stc    
  108e49:	36 10 00             	adc    %al,%ss:(%eax)
  108e4c:	f9                   	stc    
  108e4d:	36 10 00             	adc    %al,%ss:(%eax)
  108e50:	f9                   	stc    
  108e51:	36 10 00             	adc    %al,%ss:(%eax)
  108e54:	f9                   	stc    
  108e55:	36 10 00             	adc    %al,%ss:(%eax)
  108e58:	b1 33                	mov    $0x33,%cl
  108e5a:	10 00                	adc    %al,(%eax)
  108e5c:	b7 33                	mov    $0x33,%bh
  108e5e:	10 00                	adc    %al,(%eax)
  108e60:	bd 33 10 00 c3       	mov    $0xc3001033,%ebp
  108e65:	33 10                	xor    (%eax),%edx
  108e67:	00 c9                	add    %cl,%cl
  108e69:	33 10                	xor    (%eax),%edx
  108e6b:	00 cf                	add    %cl,%bh
  108e6d:	33 10                	xor    (%eax),%edx
  108e6f:	00 d5                	add    %dl,%ch
  108e71:	33 10                	xor    (%eax),%edx
  108e73:	00 db                	add    %bl,%bl
  108e75:	33 10                	xor    (%eax),%edx
  108e77:	00 e1                	add    %ah,%cl
  108e79:	33 10                	xor    (%eax),%edx
  108e7b:	00 e7                	add    %ah,%bh
  108e7d:	33 10                	xor    (%eax),%edx
  108e7f:	00 ed                	add    %ch,%ch
  108e81:	33 10                	xor    (%eax),%edx
  108e83:	00 f3                	add    %dh,%bl
  108e85:	33 10                	xor    (%eax),%edx
  108e87:	00 f9                	add    %bh,%cl
  108e89:	33 10                	xor    (%eax),%edx
  108e8b:	00 ff                	add    %bh,%bh
  108e8d:	33 10                	xor    (%eax),%edx
  108e8f:	00 05 34 10 00 0b    	add    %al,0xb001034
  108e95:	34 10                	xor    $0x10,%al
  108e97:	00 11                	add    %dl,(%ecx)
  108e99:	34 10                	xor    $0x10,%al
  108e9b:	00 17                	add    %dl,(%edi)
  108e9d:	34 10                	xor    $0x10,%al
  108e9f:	00 1d 34 10 00 23    	add    %bl,0x23001034
  108ea5:	34 10                	xor    $0x10,%al
  108ea7:	00 29                	add    %ch,(%ecx)
  108ea9:	34 10                	xor    $0x10,%al
  108eab:	00 2f                	add    %ch,(%edi)
  108ead:	34 10                	xor    $0x10,%al
  108eaf:	00 35 34 10 00 3b    	add    %dh,0x3b001034
  108eb5:	34 10                	xor    $0x10,%al
  108eb7:	00 41 34             	add    %al,0x34(%ecx)
  108eba:	10 00                	adc    %al,(%eax)
  108ebc:	47                   	inc    %edi
  108ebd:	34 10                	xor    $0x10,%al
  108ebf:	00 4d 34             	add    %cl,0x34(%ebp)
  108ec2:	10 00                	adc    %al,(%eax)
  108ec4:	53                   	push   %ebx
  108ec5:	34 10                	xor    $0x10,%al
  108ec7:	00 59 34             	add    %bl,0x34(%ecx)
  108eca:	10 00                	adc    %al,(%eax)
  108ecc:	5f                   	pop    %edi
  108ecd:	34 10                	xor    $0x10,%al
  108ecf:	00 65 34             	add    %ah,0x34(%ebp)
  108ed2:	10 00                	adc    %al,(%eax)
  108ed4:	6b 34 10 00          	imul   $0x0,(%eax,%edx,1),%esi
  108ed8:	71 34                	jno    108f0e <rodata+0xf0e>
  108eda:	10 00                	adc    %al,(%eax)
  108edc:	77 34                	ja     108f12 <rodata+0xf12>
  108ede:	10 00                	adc    %al,(%eax)
  108ee0:	7d 34                	jge    108f16 <rodata+0xf16>
  108ee2:	10 00                	adc    %al,(%eax)
  108ee4:	83 34 10 00          	xorl   $0x0,(%eax,%edx,1)
  108ee8:	89 34 10             	mov    %esi,(%eax,%edx,1)
  108eeb:	00 8f 34 10 00 95    	add    %cl,-0x6affefcc(%edi)
  108ef1:	34 10                	xor    $0x10,%al
  108ef3:	00 9b 34 10 00 a1    	add    %bl,-0x5effefcc(%ebx)
  108ef9:	34 10                	xor    $0x10,%al
  108efb:	00 a7 34 10 00 ad    	add    %ah,-0x52ffefcc(%edi)
  108f01:	34 10                	xor    $0x10,%al
  108f03:	00 b3 34 10 00 b9    	add    %dh,-0x46ffefcc(%ebx)
  108f09:	34 10                	xor    $0x10,%al
  108f0b:	00 bf 34 10 00 c5    	add    %bh,-0x3affefcc(%edi)
  108f11:	34 10                	xor    $0x10,%al
  108f13:	00 cb                	add    %cl,%bl
  108f15:	34 10                	xor    $0x10,%al
  108f17:	00 d1                	add    %dl,%cl
  108f19:	34 10                	xor    $0x10,%al
  108f1b:	00 d7                	add    %dl,%bh
  108f1d:	34 10                	xor    $0x10,%al
  108f1f:	00 dd                	add    %bl,%ch
  108f21:	34 10                	xor    $0x10,%al
  108f23:	00 e3                	add    %ah,%bl
  108f25:	34 10                	xor    $0x10,%al
  108f27:	00 e9                	add    %ch,%cl
  108f29:	34 10                	xor    $0x10,%al
  108f2b:	00 ef                	add    %ch,%bh
  108f2d:	34 10                	xor    $0x10,%al
  108f2f:	00 f5                	add    %dh,%ch
  108f31:	34 10                	xor    $0x10,%al
  108f33:	00 fb                	add    %bh,%bl
  108f35:	34 10                	xor    $0x10,%al
  108f37:	00 01                	add    %al,(%ecx)
  108f39:	35 10 00 07 35       	xor    $0x35070010,%eax
  108f3e:	10 00                	adc    %al,(%eax)
  108f40:	0d 35 10 00 13       	or     $0x13001035,%eax
  108f45:	35 10 00 19 35       	xor    $0x35190010,%eax
  108f4a:	10 00                	adc    %al,(%eax)
  108f4c:	1f                   	pop    %ds
  108f4d:	35 10 00 25 35       	xor    $0x35250010,%eax
  108f52:	10 00                	adc    %al,(%eax)
  108f54:	2b 35 10 00 31 35    	sub    0x35310010,%esi
  108f5a:	10 00                	adc    %al,(%eax)
  108f5c:	37                   	aaa    
  108f5d:	35 10 00 3d 35       	xor    $0x353d0010,%eax
  108f62:	10 00                	adc    %al,(%eax)
  108f64:	43                   	inc    %ebx
  108f65:	35 10 00 49 35       	xor    $0x35490010,%eax
  108f6a:	10 00                	adc    %al,(%eax)
  108f6c:	4f                   	dec    %edi
  108f6d:	35 10 00 55 35       	xor    $0x35550010,%eax
  108f72:	10 00                	adc    %al,(%eax)
  108f74:	5b                   	pop    %ebx
  108f75:	35 10 00 61 35       	xor    $0x35610010,%eax
  108f7a:	10 00                	adc    %al,(%eax)
  108f7c:	67 35 10 00 6d 35    	addr16 xor $0x356d0010,%eax
  108f82:	10 00                	adc    %al,(%eax)
  108f84:	73 35                	jae    108fbb <rodata+0xfbb>
  108f86:	10 00                	adc    %al,(%eax)
  108f88:	79 35                	jns    108fbf <rodata+0xfbf>
  108f8a:	10 00                	adc    %al,(%eax)
  108f8c:	7f 35                	jg     108fc3 <rodata+0xfc3>
  108f8e:	10 00                	adc    %al,(%eax)
  108f90:	85 35 10 00 8b 35    	test   %esi,0x358b0010
  108f96:	10 00                	adc    %al,(%eax)
  108f98:	91                   	xchg   %eax,%ecx
  108f99:	35 10 00 97 35       	xor    $0x35970010,%eax
  108f9e:	10 00                	adc    %al,(%eax)
  108fa0:	9d                   	popf   
  108fa1:	35 10 00 a3 35       	xor    $0x35a30010,%eax
  108fa6:	10 00                	adc    %al,(%eax)
  108fa8:	a9 35 10 00 f9       	test   $0xf9001035,%eax
  108fad:	36 10 00             	adc    %al,%ss:(%eax)
  108fb0:	f9                   	stc    
  108fb1:	36 10 00             	adc    %al,%ss:(%eax)
  108fb4:	f9                   	stc    
  108fb5:	36 10 00             	adc    %al,%ss:(%eax)
  108fb8:	f9                   	stc    
  108fb9:	36 10 00             	adc    %al,%ss:(%eax)
  108fbc:	f9                   	stc    
  108fbd:	36 10 00             	adc    %al,%ss:(%eax)
  108fc0:	f9                   	stc    
  108fc1:	36 10 00             	adc    %al,%ss:(%eax)
  108fc4:	f9                   	stc    
  108fc5:	36 10 00             	adc    %al,%ss:(%eax)
  108fc8:	f9                   	stc    
  108fc9:	36 10 00             	adc    %al,%ss:(%eax)
  108fcc:	f9                   	stc    
  108fcd:	36 10 00             	adc    %al,%ss:(%eax)
  108fd0:	f9                   	stc    
  108fd1:	36 10 00             	adc    %al,%ss:(%eax)
  108fd4:	af                   	scas   %es:(%edi),%eax
  108fd5:	35 10 00 b5 35       	xor    $0x35b50010,%eax
  108fda:	10 00                	adc    %al,(%eax)
  108fdc:	bb 35 10 00 c1       	mov    $0xc1001035,%ebx
  108fe1:	35 10 00 c7 35       	xor    $0x35c70010,%eax
  108fe6:	10 00                	adc    %al,(%eax)
  108fe8:	cd 35                	int    $0x35
  108fea:	10 00                	adc    %al,(%eax)
  108fec:	d3                   	(bad)  
  108fed:	35 10 00 d9 35       	xor    $0x35d90010,%eax
  108ff2:	10 00                	adc    %al,(%eax)
  108ff4:	df 35 10 00 e5 35    	fbstp  0x35e50010
  108ffa:	10 00                	adc    %al,(%eax)
  108ffc:	eb 35                	jmp    109033 <rodata+0x1033>
  108ffe:	10 00                	adc    %al,(%eax)
  109000:	f1                   	icebp  
  109001:	35 10 00 f9 36       	xor    $0x36f90010,%eax
  109006:	10 00                	adc    %al,(%eax)
  109008:	f9                   	stc    
  109009:	36 10 00             	adc    %al,%ss:(%eax)
  10900c:	f9                   	stc    
  10900d:	36 10 00             	adc    %al,%ss:(%eax)
  109010:	f9                   	stc    
  109011:	36 10 00             	adc    %al,%ss:(%eax)
  109014:	f9                   	stc    
  109015:	36 10 00             	adc    %al,%ss:(%eax)
  109018:	f9                   	stc    
  109019:	36 10 00             	adc    %al,%ss:(%eax)
  10901c:	f9                   	stc    
  10901d:	36 10 00             	adc    %al,%ss:(%eax)
  109020:	f9                   	stc    
  109021:	36 10 00             	adc    %al,%ss:(%eax)
  109024:	f9                   	stc    
  109025:	36 10 00             	adc    %al,%ss:(%eax)
  109028:	f9                   	stc    
  109029:	36 10 00             	adc    %al,%ss:(%eax)
  10902c:	f9                   	stc    
  10902d:	36 10 00             	adc    %al,%ss:(%eax)
  109030:	f9                   	stc    
  109031:	36 10 00             	adc    %al,%ss:(%eax)
  109034:	f9                   	stc    
  109035:	36 10 00             	adc    %al,%ss:(%eax)
  109038:	f9                   	stc    
  109039:	36 10 00             	adc    %al,%ss:(%eax)
  10903c:	f9                   	stc    
  10903d:	36 10 00             	adc    %al,%ss:(%eax)
  109040:	f9                   	stc    
  109041:	36 10 00             	adc    %al,%ss:(%eax)
  109044:	f9                   	stc    
  109045:	36 10 00             	adc    %al,%ss:(%eax)
  109048:	f7 35 10 00 fd 35    	divl   0x35fd0010
  10904e:	10 00                	adc    %al,(%eax)
  109050:	03 36                	add    (%esi),%esi
  109052:	10 00                	adc    %al,(%eax)
  109054:	09 36                	or     %esi,(%esi)
  109056:	10 00                	adc    %al,(%eax)
  109058:	0f 36                	(bad)  
  10905a:	10 00                	adc    %al,(%eax)
  10905c:	15 36 10 00 1b       	adc    $0x1b001036,%eax
  109061:	36 10 00             	adc    %al,%ss:(%eax)
  109064:	21 36                	and    %esi,(%esi)
  109066:	10 00                	adc    %al,(%eax)
  109068:	27                   	daa    
  109069:	36 10 00             	adc    %al,%ss:(%eax)
  10906c:	2d 36 10 00 33       	sub    $0x33001036,%eax
  109071:	36 10 00             	adc    %al,%ss:(%eax)
  109074:	39 36                	cmp    %esi,(%esi)
  109076:	10 00                	adc    %al,(%eax)
  109078:	3f                   	aas    
  109079:	36 10 00             	adc    %al,%ss:(%eax)
  10907c:	45                   	inc    %ebp
  10907d:	36 10 00             	adc    %al,%ss:(%eax)
  109080:	4b                   	dec    %ebx
  109081:	36 10 00             	adc    %al,%ss:(%eax)
  109084:	51                   	push   %ecx
  109085:	36 10 00             	adc    %al,%ss:(%eax)
  109088:	57                   	push   %edi
  109089:	36 10 00             	adc    %al,%ss:(%eax)
  10908c:	5d                   	pop    %ebp
  10908d:	36 10 00             	adc    %al,%ss:(%eax)
  109090:	63 36                	arpl   %si,(%esi)
  109092:	10 00                	adc    %al,(%eax)
  109094:	69 36 10 00 6f 36    	imul   $0x366f0010,(%esi),%esi
  10909a:	10 00                	adc    %al,(%eax)
  10909c:	75 36                	jne    1090d4 <rodata+0x10d4>
  10909e:	10 00                	adc    %al,(%eax)
  1090a0:	f9                   	stc    
  1090a1:	36 10 00             	adc    %al,%ss:(%eax)
  1090a4:	7b 36                	jnp    1090dc <rodata+0x10dc>
  1090a6:	10 00                	adc    %al,(%eax)
  1090a8:	f9                   	stc    
  1090a9:	36 10 00             	adc    %al,%ss:(%eax)
  1090ac:	81 36 10 00 87 36    	xorl   $0x36870010,(%esi)
  1090b2:	10 00                	adc    %al,(%eax)
  1090b4:	8d 36                	lea    (%esi),%esi
  1090b6:	10 00                	adc    %al,(%eax)
  1090b8:	93                   	xchg   %eax,%ebx
  1090b9:	36 10 00             	adc    %al,%ss:(%eax)
  1090bc:	99                   	cltd   
  1090bd:	36 10 00             	adc    %al,%ss:(%eax)
  1090c0:	9f                   	lahf   
  1090c1:	36 10 00             	adc    %al,%ss:(%eax)
  1090c4:	a5                   	movsl  %ds:(%esi),%es:(%edi)
  1090c5:	36 10 00             	adc    %al,%ss:(%eax)
  1090c8:	ab                   	stos   %eax,%es:(%edi)
  1090c9:	36 10 00             	adc    %al,%ss:(%eax)
  1090cc:	b1 36                	mov    $0x36,%cl
  1090ce:	10 00                	adc    %al,(%eax)
  1090d0:	b7 36                	mov    $0x36,%bh
  1090d2:	10 00                	adc    %al,(%eax)
  1090d4:	bd 36 10 00 c3       	mov    $0xc3001036,%ebp
  1090d9:	36 10 00             	adc    %al,%ss:(%eax)
  1090dc:	c9                   	leave  
  1090dd:	36 10 00             	adc    %al,%ss:(%eax)
  1090e0:	cf                   	iret   
  1090e1:	36 10 00             	adc    %al,%ss:(%eax)
  1090e4:	d5 36                	aad    $0x36
  1090e6:	10 00                	adc    %al,(%eax)
  1090e8:	db 36                	(bad)  (%esi)
  1090ea:	10 00                	adc    %al,(%eax)
  1090ec:	e1 36                	loope  109124 <rodata+0x1124>
  1090ee:	10 00                	adc    %al,(%eax)
  1090f0:	e7 36                	out    %eax,$0x36
  1090f2:	10 00                	adc    %al,(%eax)
  1090f4:	ed                   	in     (%dx),%eax
  1090f5:	36 10 00             	adc    %al,%ss:(%eax)
  1090f8:	f3 36 10 00          	repz adc %al,%ss:(%eax)
  1090fc:	45                   	inc    %ebp
  1090fd:	6e                   	outsb  %ds:(%esi),(%dx)
  1090fe:	68 61 6e 63 65       	push   $0x65636e61
  109103:	64 20 69 6e          	and    %ch,%fs:0x6e(%ecx)
  109107:	73 74                	jae    10917d <rodata+0x117d>
  109109:	72 75                	jb     109180 <rodata+0x1180>
  10910b:	63 74 69 6f          	arpl   %si,0x6f(%ecx,%ebp,2)
  10910f:	6e                   	outsb  %ds:(%esi),(%dx)
  109110:	20 73 65             	and    %dh,0x65(%ebx)
  109113:	74 20                	je     109135 <rodata+0x1135>
  109115:	53                   	push   %ebx
  109116:	50                   	push   %eax
  109117:	41                   	inc    %ecx
  109118:	52                   	push   %edx
  109119:	43                   	inc    %ebx
  10911a:	00 00                	add    %al,(%eax)
  10911c:	46                   	inc    %esi
  10911d:	75 6a                	jne    109189 <rodata+0x1189>
  10911f:	69 74 73 75 20 4d 4d 	imul   $0x414d4d20,0x75(%ebx,%esi,2),%esi
  109126:	41 
  109127:	20 4d 75             	and    %cl,0x75(%ebp)
  10912a:	6c                   	insb   (%dx),%es:(%edi)
  10912b:	74 69                	je     109196 <rodata+0x1196>
  10912d:	6d                   	insl   (%dx),%es:(%edi)
  10912e:	65 64 69 61 20 41 63 	gs imul $0x65636341,%fs:%gs:0x20(%ecx),%esp
  109135:	63 65 
  109137:	6c                   	insb   (%dx),%es:(%edi)
  109138:	65                   	gs
  109139:	72 61                	jb     10919c <rodata+0x119c>
  10913b:	74 6f                	je     1091ac <rodata+0x11ac>
  10913d:	72 00                	jb     10913f <rodata+0x113f>
  10913f:	00 44 69 67          	add    %al,0x67(%ecx,%ebp,2)
  109143:	69 74 61 6c 20 45 71 	imul   $0x75714520,0x6c(%ecx,%eiz,2),%esi
  10914a:	75 
  10914b:	69 70 6d 65 6e 74 20 	imul   $0x20746e65,0x6d(%eax),%esi
  109152:	43                   	inc    %ebx
  109153:	6f                   	outsl  %ds:(%esi),(%dx)
  109154:	72 70                	jb     1091c6 <rodata+0x11c6>
  109156:	2e 20 50 44          	and    %dl,%cs:0x44(%eax)
  10915a:	50                   	push   %eax
  10915b:	2d 31 30 00 00       	sub    $0x3031,%eax
  109160:	44                   	inc    %esp
  109161:	69 67 69 74 61 6c 20 	imul   $0x206c6174,0x69(%edi),%esp
  109168:	45                   	inc    %ebp
  109169:	71 75                	jno    1091e0 <rodata+0x11e0>
  10916b:	69 70 6d 65 6e 74 20 	imul   $0x20746e65,0x6d(%eax),%esi
  109172:	43                   	inc    %ebx
  109173:	6f                   	outsl  %ds:(%esi),(%dx)
  109174:	72 70                	jb     1091e6 <rodata+0x11e6>
  109176:	2e 20 50 44          	and    %dl,%cs:0x44(%eax)
  10917a:	50                   	push   %eax
  10917b:	2d 31 31 00 00       	sub    $0x3131,%eax
  109180:	41                   	inc    %ecx
  109181:	78 69                	js     1091ec <rodata+0x11ec>
  109183:	73 20                	jae    1091a5 <rodata+0x11a5>
  109185:	43                   	inc    %ebx
  109186:	6f                   	outsl  %ds:(%esi),(%dx)
  109187:	6d                   	insl   (%dx),%es:(%edi)
  109188:	6d                   	insl   (%dx),%es:(%edi)
  109189:	75 6e                	jne    1091f9 <rodata+0x11f9>
  10918b:	69 63 61 74 69 6f 6e 	imul   $0x6e6f6974,0x61(%ebx),%esp
  109192:	73 20                	jae    1091b4 <rodata+0x11b4>
  109194:	33 32                	xor    (%edx),%esi
  109196:	2d 62 69 74 20       	sub    $0x20746962,%eax
  10919b:	65                   	gs
  10919c:	6d                   	insl   (%dx),%es:(%edi)
  10919d:	62 65 64             	bound  %esp,0x64(%ebp)
  1091a0:	64 65 64 20 70 72    	fs gs and %dh,%fs:%gs:0x72(%eax)
  1091a6:	6f                   	outsl  %ds:(%esi),(%dx)
  1091a7:	63 65 73             	arpl   %sp,0x73(%ebp)
  1091aa:	73 6f                	jae    10921b <rodata+0x121b>
  1091ac:	72 00                	jb     1091ae <rodata+0x11ae>
  1091ae:	00 00                	add    %al,(%eax)
  1091b0:	49                   	dec    %ecx
  1091b1:	6e                   	outsb  %ds:(%esi),(%dx)
  1091b2:	66 69 6e 65 6f 6e    	imul   $0x6e6f,0x65(%esi),%bp
  1091b8:	20 54 65 63          	and    %dl,0x63(%ebp,%eiz,2)
  1091bc:	68 6e 6f 6c 6f       	push   $0x6f6c6f6e
  1091c1:	67 69 65 73 20 33 32 	imul   $0x2d323320,0x73(%di),%esp
  1091c8:	2d 
  1091c9:	62 69 74             	bound  %ebp,0x74(%ecx)
  1091cc:	20 65 6d             	and    %ah,0x6d(%ebp)
  1091cf:	62 65 64             	bound  %esp,0x64(%ebp)
  1091d2:	64 65 64 20 70 72    	fs gs and %dh,%fs:%gs:0x72(%eax)
  1091d8:	6f                   	outsl  %ds:(%esi),(%dx)
  1091d9:	63 65 73             	arpl   %sp,0x73(%ebp)
  1091dc:	73 6f                	jae    10924d <rodata+0x124d>
  1091de:	72 00                	jb     1091e0 <rodata+0x11e0>
  1091e0:	44                   	inc    %esp
  1091e1:	6f                   	outsl  %ds:(%esi),(%dx)
  1091e2:	6e                   	outsb  %ds:(%esi),(%dx)
  1091e3:	61                   	popa   
  1091e4:	6c                   	insb   (%dx),%es:(%edi)
  1091e5:	64 20 4b 6e          	and    %cl,%fs:0x6e(%ebx)
  1091e9:	75 74                	jne    10925f <rodata+0x125f>
  1091eb:	68 27 73 20 65       	push   $0x65207327
  1091f0:	64                   	fs
  1091f1:	75 63                	jne    109256 <rodata+0x1256>
  1091f3:	61                   	popa   
  1091f4:	74 69                	je     10925f <rodata+0x125f>
  1091f6:	6f                   	outsl  %ds:(%esi),(%dx)
  1091f7:	6e                   	outsb  %ds:(%esi),(%dx)
  1091f8:	61                   	popa   
  1091f9:	6c                   	insb   (%dx),%es:(%edi)
  1091fa:	20 36                	and    %dh,(%esi)
  1091fc:	34 2d                	xor    $0x2d,%al
  1091fe:	62 69 74             	bound  %ebp,0x74(%ecx)
  109201:	20 70 72             	and    %dh,0x72(%eax)
  109204:	6f                   	outsl  %ds:(%esi),(%dx)
  109205:	63 65 73             	arpl   %sp,0x73(%ebp)
  109208:	73 6f                	jae    109279 <rodata+0x1279>
  10920a:	72 00                	jb     10920c <rodata+0x120c>
  10920c:	48                   	dec    %eax
  10920d:	61                   	popa   
  10920e:	72 76                	jb     109286 <rodata+0x1286>
  109210:	61                   	popa   
  109211:	72 64                	jb     109277 <rodata+0x1277>
  109213:	20 55 6e             	and    %dl,0x6e(%ebp)
  109216:	69 76 65 72 73 69 74 	imul   $0x74697372,0x65(%esi),%esi
  10921d:	79 20                	jns    10923f <rodata+0x123f>
  10921f:	6d                   	insl   (%dx),%es:(%edi)
  109220:	61                   	popa   
  109221:	63 68 69             	arpl   %bp,0x69(%eax)
  109224:	6e                   	outsb  %ds:(%esi),(%dx)
  109225:	65                   	gs
  109226:	2d 69 6e 64 65       	sub    $0x65646e69,%eax
  10922b:	70 65                	jo     109292 <rodata+0x1292>
  10922d:	6e                   	outsb  %ds:(%esi),(%dx)
  10922e:	64 65 6e             	fs outsb %fs:%gs:(%esi),(%dx)
  109231:	74 00                	je     109233 <rodata+0x1233>
  109233:	00 54 68 6f          	add    %dl,0x6f(%eax,%ebp,2)
  109237:	6d                   	insl   (%dx),%es:(%edi)
  109238:	70 73                	jo     1092ad <rodata+0x12ad>
  10923a:	6f                   	outsl  %ds:(%esi),(%dx)
  10923b:	6e                   	outsb  %ds:(%esi),(%dx)
  10923c:	20 4d 75             	and    %cl,0x75(%ebp)
  10923f:	6c                   	insb   (%dx),%es:(%edi)
  109240:	74 69                	je     1092ab <rodata+0x12ab>
  109242:	6d                   	insl   (%dx),%es:(%edi)
  109243:	65 64 69 61 20 47 65 	gs imul $0x656e6547,%fs:%gs:0x20(%ecx),%esp
  10924a:	6e 65 
  10924c:	72 61                	jb     1092af <rodata+0x12af>
  10924e:	6c                   	insb   (%dx),%es:(%edi)
  10924f:	20 50 75             	and    %dl,0x75(%eax)
  109252:	72 70                	jb     1092c4 <rodata+0x12c4>
  109254:	6f                   	outsl  %ds:(%esi),(%dx)
  109255:	73 65                	jae    1092bc <rodata+0x12bc>
  109257:	20 50 72             	and    %dl,0x72(%eax)
  10925a:	6f                   	outsl  %ds:(%esi),(%dx)
  10925b:	63 65 73             	arpl   %sp,0x73(%ebp)
  10925e:	73 6f                	jae    1092cf <rodata+0x12cf>
  109260:	72 00                	jb     109262 <rodata+0x1262>
  109262:	00 00                	add    %al,(%eax)
  109264:	4e                   	dec    %esi
  109265:	61                   	popa   
  109266:	74 69                	je     1092d1 <rodata+0x12d1>
  109268:	6f                   	outsl  %ds:(%esi),(%dx)
  109269:	6e                   	outsb  %ds:(%esi),(%dx)
  10926a:	61                   	popa   
  10926b:	6c                   	insb   (%dx),%es:(%edi)
  10926c:	20 53 65             	and    %dl,0x65(%ebx)
  10926f:	6d                   	insl   (%dx),%es:(%edi)
  109270:	69 63 6f 6e 64 75 63 	imul   $0x6375646e,0x6f(%ebx),%esp
  109277:	74 6f                	je     1092e8 <rodata+0x12e8>
  109279:	72 20                	jb     10929b <rodata+0x129b>
  10927b:	33 32                	xor    (%edx),%esi
  10927d:	30 30                	xor    %dh,(%eax)
  10927f:	30 20                	xor    %ah,(%eax)
  109281:	73 65                	jae    1092e8 <rodata+0x12e8>
  109283:	72 69                	jb     1092ee <rodata+0x12ee>
  109285:	65                   	gs
  109286:	73 00                	jae    109288 <rodata+0x1288>
  109288:	4e                   	dec    %esi
  109289:	61                   	popa   
  10928a:	74 69                	je     1092f5 <rodata+0x12f5>
  10928c:	6f                   	outsl  %ds:(%esi),(%dx)
  10928d:	6e                   	outsb  %ds:(%esi),(%dx)
  10928e:	61                   	popa   
  10928f:	6c                   	insb   (%dx),%es:(%edi)
  109290:	20 53 65             	and    %dl,0x65(%ebx)
  109293:	6d                   	insl   (%dx),%es:(%edi)
  109294:	69 63 6f 6e 64 75 63 	imul   $0x6375646e,0x6f(%ebx),%esp
  10929b:	74 6f                	je     10930c <rodata+0x130c>
  10929d:	72 20                	jb     1092bf <rodata+0x12bf>
  10929f:	43                   	inc    %ebx
  1092a0:	6f                   	outsl  %ds:(%esi),(%dx)
  1092a1:	6d                   	insl   (%dx),%es:(%edi)
  1092a2:	70 61                	jo     109305 <rodata+0x1305>
  1092a4:	63 74 52 49          	arpl   %si,0x49(%edx,%edx,2)
  1092a8:	53                   	push   %ebx
  1092a9:	43                   	inc    %ebx
  1092aa:	00 00                	add    %al,(%eax)
  1092ac:	50                   	push   %eax
  1092ad:	4b                   	dec    %ebx
  1092ae:	55                   	push   %ebp
  1092af:	2d 55 6e 69 74       	sub    $0x74696e55,%eax
  1092b4:	79 20                	jns    1092d6 <rodata+0x12d6>
  1092b6:	4c                   	dec    %esp
  1092b7:	74 64                	je     10931d <rodata+0x131d>
  1092b9:	2e 20 61 6e          	and    %ah,%cs:0x6e(%ecx)
  1092bd:	64 20 4d 50          	and    %cl,%fs:0x50(%ebp)
  1092c1:	52                   	push   %edx
  1092c2:	43                   	inc    %ebx
  1092c3:	20 6f 66             	and    %ch,0x66(%edi)
  1092c6:	20 50 65             	and    %dl,0x65(%eax)
  1092c9:	6b 69 6e 67          	imul   $0x67,0x6e(%ecx),%ebp
  1092cd:	20 55 6e             	and    %dl,0x6e(%ebp)
  1092d0:	69 76 65 72 73 69 74 	imul   $0x74697372,0x65(%esi),%esi
  1092d7:	79 20                	jns    1092f9 <rodata+0x12f9>
  1092d9:	6d                   	insl   (%dx),%es:(%edi)
  1092da:	69 63 72 6f 70 72 6f 	imul   $0x6f72706f,0x72(%ebx),%esp
  1092e1:	63 65 73             	arpl   %sp,0x73(%ebp)
  1092e4:	73 6f                	jae    109355 <rodata+0x1355>
  1092e6:	72 20                	jb     109308 <rodata+0x1308>
  1092e8:	73 65                	jae    10934f <rodata+0x134f>
  1092ea:	72 69                	jb     109355 <rodata+0x1355>
  1092ec:	65                   	gs
  1092ed:	73 00                	jae    1092ef <rodata+0x12ef>
  1092ef:	00 49 63             	add    %cl,0x63(%ecx)
  1092f2:	65                   	gs
  1092f3:	72 61                	jb     109356 <rodata+0x1356>
  1092f5:	20 53 65             	and    %dl,0x65(%ebx)
  1092f8:	6d                   	insl   (%dx),%es:(%edi)
  1092f9:	69 63 6f 6e 64 75 63 	imul   $0x6375646e,0x6f(%ebx),%esp
  109300:	74 6f                	je     109371 <rodata+0x1371>
  109302:	72 20                	jb     109324 <rodata+0x1324>
  109304:	49                   	dec    %ecx
  109305:	6e                   	outsb  %ds:(%esi),(%dx)
  109306:	63 2e                	arpl   %bp,(%esi)
  109308:	20 44 65 65          	and    %al,0x65(%ebp,%eiz,2)
  10930c:	70 20                	jo     10932e <rodata+0x132e>
  10930e:	45                   	inc    %ebp
  10930f:	78 65                	js     109376 <rodata+0x1376>
  109311:	63 75 74             	arpl   %si,0x74(%ebp)
  109314:	69 6f 6e 20 50 72 6f 	imul   $0x6f725020,0x6e(%edi),%ebp
  10931b:	63 65 73             	arpl   %sp,0x73(%ebp)
  10931e:	73 6f                	jae    10938f <rodata+0x138f>
  109320:	72 00                	jb     109322 <rodata+0x1322>
  109322:	00 00                	add    %al,(%eax)
  109324:	4e                   	dec    %esi
  109325:	61                   	popa   
  109326:	74 69                	je     109391 <rodata+0x1391>
  109328:	6f                   	outsl  %ds:(%esi),(%dx)
  109329:	6e                   	outsb  %ds:(%esi),(%dx)
  10932a:	61                   	popa   
  10932b:	6c                   	insb   (%dx),%es:(%edi)
  10932c:	20 53 65             	and    %dl,0x65(%ebx)
  10932f:	6d                   	insl   (%dx),%es:(%edi)
  109330:	69 63 6f 6e 64 75 63 	imul   $0x6375646e,0x6f(%ebx),%esp
  109337:	74 6f                	je     1093a8 <rodata+0x13a8>
  109339:	72 20                	jb     10935b <rodata+0x135b>
  10933b:	43                   	inc    %ebx
  10933c:	6f                   	outsl  %ds:(%esi),(%dx)
  10933d:	6d                   	insl   (%dx),%es:(%edi)
  10933e:	70 61                	jo     1093a1 <rodata+0x13a1>
  109340:	63 74 52 49          	arpl   %si,0x49(%edx,%edx,2)
  109344:	53                   	push   %ebx
  109345:	43                   	inc    %ebx
  109346:	20 43 52             	and    %al,0x52(%ebx)
  109349:	58                   	pop    %eax
  10934a:	00 00                	add    %al,(%eax)
  10934c:	4d                   	dec    %ebp
  10934d:	69 63 72 6f 63 68 69 	imul   $0x6968636f,0x72(%ebx),%esp
  109354:	70 20                	jo     109376 <rodata+0x1376>
  109356:	54                   	push   %esp
  109357:	65 63 68 6e          	arpl   %bp,%gs:0x6e(%eax)
  10935b:	6f                   	outsl  %ds:(%esi),(%dx)
  10935c:	6c                   	insb   (%dx),%es:(%edi)
  10935d:	6f                   	outsl  %ds:(%esi),(%dx)
  10935e:	67 79 20             	addr16 jns 109381 <rodata+0x1381>
  109361:	64                   	fs
  109362:	73 50                	jae    1093b4 <rodata+0x13b4>
  109364:	49                   	dec    %ecx
  109365:	43                   	inc    %ebx
  109366:	33 30                	xor    (%eax),%esi
  109368:	46                   	inc    %esi
  109369:	20 44 69 67          	and    %al,0x67(%ecx,%ebp,2)
  10936d:	69 74 61 6c 20 53 69 	imul   $0x67695320,0x6c(%ecx,%eiz,2),%esi
  109374:	67 
  109375:	6e                   	outsb  %ds:(%esi),(%dx)
  109376:	61                   	popa   
  109377:	6c                   	insb   (%dx),%es:(%edi)
  109378:	20 43 6f             	and    %al,0x6f(%ebx)
  10937b:	6e                   	outsb  %ds:(%esi),(%dx)
  10937c:	74 72                	je     1093f0 <rodata+0x13f0>
  10937e:	6f                   	outsl  %ds:(%esi),(%dx)
  10937f:	6c                   	insb   (%dx),%es:(%edi)
  109380:	6c                   	insb   (%dx),%es:(%edi)
  109381:	65                   	gs
  109382:	72 00                	jb     109384 <rodata+0x1384>
  109384:	46                   	inc    %esi
  109385:	72 65                	jb     1093ec <rodata+0x13ec>
  109387:	65                   	gs
  109388:	73 63                	jae    1093ed <rodata+0x13ed>
  10938a:	61                   	popa   
  10938b:	6c                   	insb   (%dx),%es:(%edi)
  10938c:	65 20 43 6f          	and    %al,%gs:0x6f(%ebx)
  109390:	6d                   	insl   (%dx),%es:(%edi)
  109391:	6d                   	insl   (%dx),%es:(%edi)
  109392:	75 6e                	jne    109402 <rodata+0x1402>
  109394:	69 63 61 74 69 6f 6e 	imul   $0x6e6f6974,0x61(%ebx),%esp
  10939b:	20 45 6e             	and    %al,0x6e(%ebp)
  10939e:	67 69 6e 65 20 52 49 	imul   $0x53495220,0x65(%bp),%ebp
  1093a5:	53 
  1093a6:	43                   	inc    %ebx
  1093a7:	00 53 54             	add    %dl,0x54(%ebx)
  1093aa:	4d                   	dec    %ebp
  1093ab:	69 63 72 6f 65 6c 65 	imul   $0x656c656f,0x72(%ebx),%esp
  1093b2:	63 74 72 6f          	arpl   %si,0x6f(%edx,%esi,2)
  1093b6:	6e                   	outsb  %ds:(%esi),(%dx)
  1093b7:	69 63 73 20 36 34 62 	imul   $0x62343620,0x73(%ebx),%esp
  1093be:	69 74 20 56 4c 49 57 	imul   $0x2057494c,0x56(%eax,%eiz,1),%esi
  1093c5:	20 
  1093c6:	44                   	inc    %esp
  1093c7:	53                   	push   %ebx
  1093c8:	50                   	push   %eax
  1093c9:	00 00                	add    %al,(%eax)
  1093cb:	00 53 54             	add    %dl,0x54(%ebx)
  1093ce:	4d                   	dec    %ebp
  1093cf:	69 63 72 6f 65 6c 65 	imul   $0x656c656f,0x72(%ebx),%esp
  1093d6:	63 74 72 6f          	arpl   %si,0x6f(%edx,%esi,2)
  1093da:	6e                   	outsb  %ds:(%esi),(%dx)
  1093db:	69 63 73 20 53 54 78 	imul   $0x78545320,0x73(%ebx),%esp
  1093e2:	50                   	push   %eax
  1093e3:	37                   	aaa    
  1093e4:	78 20                	js     109406 <rodata+0x1406>
  1093e6:	52                   	push   %edx
  1093e7:	49                   	dec    %ecx
  1093e8:	53                   	push   %ebx
  1093e9:	43                   	inc    %ebx
  1093ea:	00 00                	add    %al,(%eax)
  1093ec:	44                   	inc    %esp
  1093ed:	61                   	popa   
  1093ee:	6c                   	insb   (%dx),%es:(%edi)
  1093ef:	6c                   	insb   (%dx),%es:(%edi)
  1093f0:	61                   	popa   
  1093f1:	73 20                	jae    109413 <rodata+0x1413>
  1093f3:	53                   	push   %ebx
  1093f4:	65                   	gs
  1093f5:	6d                   	insl   (%dx),%es:(%edi)
  1093f6:	69 63 6f 6e 64 75 63 	imul   $0x6375646e,0x6f(%ebx),%esp
  1093fd:	74 6f                	je     10946e <rodata+0x146e>
  1093ff:	72 20                	jb     109421 <rodata+0x1421>
  109401:	4d                   	dec    %ebp
  109402:	41                   	inc    %ecx
  109403:	58                   	pop    %eax
  109404:	51                   	push   %ecx
  109405:	33 30                	xor    (%eax),%esi
  109407:	20 43 6f             	and    %al,0x6f(%ebx)
  10940a:	72 65                	jb     109471 <rodata+0x1471>
  10940c:	00 00                	add    %al,(%eax)
  10940e:	00 00                	add    %al,(%eax)
  109410:	4d                   	dec    %ebp
  109411:	32 30                	xor    (%eax),%dh
  109413:	30 30                	xor    %dh,(%eax)
  109415:	20 52 65             	and    %dl,0x65(%edx)
  109418:	63 6f 6e             	arpl   %bp,0x6e(%edi)
  10941b:	66 69 67 75 72 61    	imul   $0x6172,0x75(%edi),%sp
  109421:	62 6c 65 20          	bound  %ebp,0x20(%ebp,%eiz,2)
  109425:	52                   	push   %edx
  109426:	49                   	dec    %ecx
  109427:	53                   	push   %ebx
  109428:	43                   	inc    %ebx
  109429:	20 50 72             	and    %dl,0x72(%eax)
  10942c:	6f                   	outsl  %ds:(%esi),(%dx)
  10942d:	63 65 73             	arpl   %sp,0x73(%ebp)
  109430:	73 6f                	jae    1094a1 <rodata+0x14a1>
  109432:	72 00                	jb     109434 <rodata+0x1434>
  109434:	43                   	inc    %ebx
  109435:	72 61                	jb     109498 <rodata+0x1498>
  109437:	79 20                	jns    109459 <rodata+0x1459>
  109439:	49                   	dec    %ecx
  10943a:	6e                   	outsb  %ds:(%esi),(%dx)
  10943b:	63 2e                	arpl   %bp,(%esi)
  10943d:	20 4e 56             	and    %cl,0x56(%esi)
  109440:	32 20                	xor    (%eax),%ah
  109442:	56                   	push   %esi
  109443:	65 63 74 6f 72       	arpl   %si,%gs:0x72(%edi,%ebp,2)
  109448:	20 41 72             	and    %al,0x72(%ecx)
  10944b:	63 68 69             	arpl   %bp,0x69(%eax)
  10944e:	74 65                	je     1094b5 <rodata+0x14b5>
  109450:	63 74 75 72          	arpl   %si,0x72(%ebp,%esi,2)
  109454:	65 00 00             	add    %al,%gs:(%eax)
  109457:	00 49 6d             	add    %cl,0x6d(%ecx)
  10945a:	61                   	popa   
  10945b:	67 69 6e 61 74 69 6f 	imul   $0x6e6f6974,0x61(%bp),%ebp
  109462:	6e 
  109463:	20 54 65 63          	and    %dl,0x63(%ebp,%eiz,2)
  109467:	68 6e 6f 6c 6f       	push   $0x6f6c6f6e
  10946c:	67 69 65 73 20 4d 45 	imul   $0x54454d20,0x73(%di),%esp
  109473:	54 
  109474:	41                   	inc    %ecx
  109475:	20 50 72             	and    %dl,0x72(%eax)
  109478:	6f                   	outsl  %ds:(%esi),(%dx)
  109479:	63 65 73             	arpl   %sp,0x73(%ebp)
  10947c:	73 6f                	jae    1094ed <rodata+0x14ed>
  10947e:	72 20                	jb     1094a0 <rodata+0x14a0>
  109480:	41                   	inc    %ecx
  109481:	72 63                	jb     1094e6 <rodata+0x14e6>
  109483:	68 69 74 65 63       	push   $0x63657469
  109488:	74 75                	je     1094ff <rodata+0x14ff>
  10948a:	72 65                	jb     1094f1 <rodata+0x14f1>
  10948c:	00 00                	add    %al,(%eax)
  10948e:	00 00                	add    %al,(%eax)
  109490:	4e                   	dec    %esi
  109491:	61                   	popa   
  109492:	74 69                	je     1094fd <rodata+0x14fd>
  109494:	6f                   	outsl  %ds:(%esi),(%dx)
  109495:	6e                   	outsb  %ds:(%esi),(%dx)
  109496:	61                   	popa   
  109497:	6c                   	insb   (%dx),%es:(%edi)
  109498:	20 53 65             	and    %dl,0x65(%ebx)
  10949b:	6d                   	insl   (%dx),%es:(%edi)
  10949c:	69 63 6f 6e 64 75 63 	imul   $0x6375646e,0x6f(%ebx),%esp
  1094a3:	74 6f                	je     109514 <rodata+0x1514>
  1094a5:	72 20                	jb     1094c7 <rodata+0x14c7>
  1094a7:	43                   	inc    %ebx
  1094a8:	6f                   	outsl  %ds:(%esi),(%dx)
  1094a9:	6d                   	insl   (%dx),%es:(%edi)
  1094aa:	70 61                	jo     10950d <rodata+0x150d>
  1094ac:	63 74 52 49          	arpl   %si,0x49(%edx,%edx,2)
  1094b0:	53                   	push   %ebx
  1094b1:	43                   	inc    %ebx
  1094b2:	20 31                	and    %dh,(%ecx)
  1094b4:	36                   	ss
  1094b5:	2d 62 69 74 00       	sub    $0x746962,%eax
  1094ba:	00 00                	add    %al,(%eax)
  1094bc:	46                   	inc    %esi
  1094bd:	72 65                	jb     109524 <rodata+0x1524>
  1094bf:	65                   	gs
  1094c0:	73 63                	jae    109525 <rodata+0x1525>
  1094c2:	61                   	popa   
  1094c3:	6c                   	insb   (%dx),%es:(%edi)
  1094c4:	65 20 45 78          	and    %al,%gs:0x78(%ebp)
  1094c8:	74 65                	je     10952f <rodata+0x152f>
  1094ca:	6e                   	outsb  %ds:(%esi),(%dx)
  1094cb:	64 65 64 20 54 69 6d 	fs gs and %dl,%fs:%gs:0x6d(%ecx,%ebp,2)
  1094d2:	65 20 50 72          	and    %dl,%gs:0x72(%eax)
  1094d6:	6f                   	outsl  %ds:(%esi),(%dx)
  1094d7:	63 65 73             	arpl   %sp,0x73(%ebp)
  1094da:	73 69                	jae    109545 <rodata+0x1545>
  1094dc:	6e                   	outsb  %ds:(%esi),(%dx)
  1094dd:	67 20 55 6e          	and    %dl,0x6e(%di)
  1094e1:	69 74 00 49 6e 66 69 	imul   $0x6e69666e,0x49(%eax,%eax,1),%esi
  1094e8:	6e 
  1094e9:	65 6f                	outsl  %gs:(%esi),(%dx)
  1094eb:	6e                   	outsb  %ds:(%esi),(%dx)
  1094ec:	20 54 65 63          	and    %dl,0x63(%ebp,%eiz,2)
  1094f0:	68 6e 6f 6c 6f       	push   $0x6f6c6f6e
  1094f5:	67 69 65 73 20 53 4c 	imul   $0x454c5320,0x73(%di),%esp
  1094fc:	45 
  1094fd:	39 58 20             	cmp    %ebx,0x20(%eax)
  109500:	43                   	inc    %ebx
  109501:	6f                   	outsl  %ds:(%esi),(%dx)
  109502:	72 65                	jb     109569 <rodata+0x1569>
  109504:	00 00                	add    %al,(%eax)
  109506:	00 00                	add    %al,(%eax)
  109508:	4b                   	dec    %ebx
  109509:	49                   	dec    %ecx
  10950a:	50                   	push   %eax
  10950b:	4f                   	dec    %edi
  10950c:	2d 4b 41 49 53       	sub    $0x5349414b,%eax
  109511:	54                   	push   %esp
  109512:	20 43 6f             	and    %al,0x6f(%ebx)
  109515:	72 65                	jb     10957c <rodata+0x157c>
  109517:	2d 41 20 31 73       	sub    $0x73312041,%eax
  10951c:	74 20                	je     10953e <rodata+0x153e>
  10951e:	47                   	inc    %edi
  10951f:	65 6e                	outsb  %gs:(%esi),(%dx)
  109521:	65                   	gs
  109522:	72 61                	jb     109585 <rodata+0x1585>
  109524:	74 69                	je     10958f <rodata+0x158f>
  109526:	6f                   	outsl  %ds:(%esi),(%dx)
  109527:	6e                   	outsb  %ds:(%esi),(%dx)
  109528:	00 00                	add    %al,(%eax)
  10952a:	00 00                	add    %al,(%eax)
  10952c:	4b                   	dec    %ebx
  10952d:	49                   	dec    %ecx
  10952e:	50                   	push   %eax
  10952f:	4f                   	dec    %edi
  109530:	2d 4b 41 49 53       	sub    $0x5349414b,%eax
  109535:	54                   	push   %esp
  109536:	20 43 6f             	and    %al,0x6f(%ebx)
  109539:	72 65                	jb     1095a0 <rodata+0x15a0>
  10953b:	2d 41 20 32 6e       	sub    $0x6e322041,%eax
  109540:	64 20 47 65          	and    %al,%fs:0x65(%edi)
  109544:	6e                   	outsb  %ds:(%esi),(%dx)
  109545:	65                   	gs
  109546:	72 61                	jb     1095a9 <rodata+0x15a9>
  109548:	74 69                	je     1095b3 <rodata+0x15b3>
  10954a:	6f                   	outsl  %ds:(%esi),(%dx)
  10954b:	6e                   	outsb  %ds:(%esi),(%dx)
  10954c:	00 00                	add    %al,(%eax)
  10954e:	00 00                	add    %al,(%eax)
  109550:	55                   	push   %ebp
  109551:	6e                   	outsb  %ds:(%esi),(%dx)
  109552:	6b 6e 6f 77          	imul   $0x77,0x6f(%esi),%ebp
  109556:	6e                   	outsb  %ds:(%esi),(%dx)
  109557:	2c 20                	sub    $0x20,%al
  109559:	65                   	gs
  10955a:	6d                   	insl   (%dx),%es:(%edi)
  10955b:	70 74                	jo     1095d1 <rodata+0x15d1>
  10955d:	79 2c                	jns    10958b <rodata+0x158b>
  10955f:	20 6f 72             	and    %ch,0x72(%edi)
  109562:	20 72 65             	and    %dh,0x65(%edx)
  109565:	73 65                	jae    1095cc <rodata+0x15cc>
  109567:	72 76                	jb     1095df <rodata+0x15df>
  109569:	65 64 20 74 79 70    	gs and %dh,%fs:%gs:0x70(%ecx,%edi,2)
  10956f:	65 00 66 61          	add    %ah,%gs:0x61(%esi)
  109573:	74 00                	je     109575 <rodata+0x1575>
  109575:	65                   	gs
  109576:	78 74                	js     1095ec <rodata+0x15ec>
  109578:	32 00                	xor    (%eax),%al
  10957a:	6e                   	outsb  %ds:(%esi),(%dx)
  10957b:	66                   	data16
  10957c:	74 73                	je     1095f1 <rodata+0x15f1>
  10957e:	00 61 74             	add    %ah,0x74(%ecx)
  109581:	61                   	popa   
  109582:	70 69                	jo     1095ed <rodata+0x15ed>
  109584:	00 73 61             	add    %dh,0x61(%ebx)
  109587:	74 61                	je     1095ea <rodata+0x15ea>
  109589:	00 75 73             	add    %dh,0x73(%ebp)
  10958c:	62 5f 6d             	bound  %ebx,0x6d(%edi)
  10958f:	61                   	popa   
  109590:	73 73                	jae    109605 <rodata+0x1605>
  109592:	5f                   	pop    %edi
  109593:	73 74                	jae    109609 <rodata+0x1609>
  109595:	6f                   	outsl  %ds:(%esi),(%dx)
  109596:	72 61                	jb     1095f9 <rodata+0x15f9>
  109598:	67 65 00 6e 65       	add    %ch,%gs:0x65(%bp)
  10959d:	74 77                	je     109616 <rodata+0x1616>
  10959f:	6f                   	outsl  %ds:(%esi),(%dx)
  1095a0:	72 6b                	jb     10960d <rodata+0x160d>
  1095a2:	5f                   	pop    %edi
  1095a3:	73 74                	jae    109619 <rodata+0x1619>
  1095a5:	6f                   	outsl  %ds:(%esi),(%dx)
  1095a6:	72 61                	jb     109609 <rodata+0x1609>
  1095a8:	67 65 00 64 65       	add    %ah,%gs:0x65(%si)
  1095ad:	76 00                	jbe    1095af <rodata+0x15af>
  1095af:	00 39                	add    %bh,(%ecx)
  1095b1:	45                   	inc    %ebp
  1095b2:	10 00                	adc    %al,(%eax)
  1095b4:	5d                   	pop    %ebp
  1095b5:	45                   	inc    %ebp
  1095b6:	10 00                	adc    %al,(%eax)
  1095b8:	3f                   	aas    
  1095b9:	45                   	inc    %ebp
  1095ba:	10 00                	adc    %al,(%eax)
  1095bc:	45                   	inc    %ebp
  1095bd:	45                   	inc    %ebp
  1095be:	10 00                	adc    %al,(%eax)
  1095c0:	4b                   	dec    %ebx
  1095c1:	45                   	inc    %ebp
  1095c2:	10 00                	adc    %al,(%eax)
  1095c4:	30 31                	xor    %dh,(%ecx)
  1095c6:	32 33                	xor    (%ebx),%dh
  1095c8:	34 35                	xor    $0x35,%al
  1095ca:	36                   	ss
  1095cb:	37                   	aaa    
  1095cc:	38 39                	cmp    %bh,(%ecx)
  1095ce:	41                   	inc    %ecx
  1095cf:	42                   	inc    %edx
  1095d0:	43                   	inc    %ebx
  1095d1:	44                   	inc    %esp
  1095d2:	45                   	inc    %ebp
  1095d3:	46                   	inc    %esi
  1095d4:	47                   	inc    %edi
  1095d5:	48                   	dec    %eax
  1095d6:	49                   	dec    %ecx
  1095d7:	4a                   	dec    %edx
  1095d8:	4b                   	dec    %ebx
  1095d9:	4c                   	dec    %esp
  1095da:	4d                   	dec    %ebp
  1095db:	4e                   	dec    %esi
  1095dc:	4f                   	dec    %edi
  1095dd:	50                   	push   %eax
  1095de:	51                   	push   %ecx
  1095df:	52                   	push   %edx
  1095e0:	53                   	push   %ebx
  1095e1:	54                   	push   %esp
  1095e2:	55                   	push   %ebp
  1095e3:	56                   	push   %esi
  1095e4:	57                   	push   %edi
  1095e5:	58                   	pop    %eax
  1095e6:	59                   	pop    %ecx
  1095e7:	5a                   	pop    %edx
  1095e8:	00 00                	add    %al,(%eax)
  1095ea:	00 00                	add    %al,(%eax)
  1095ec:	30 31                	xor    %dh,(%ecx)
  1095ee:	32 33                	xor    (%ebx),%dh
  1095f0:	34 35                	xor    $0x35,%al
  1095f2:	36                   	ss
  1095f3:	37                   	aaa    
  1095f4:	38 39                	cmp    %bh,(%ecx)
  1095f6:	61                   	popa   
  1095f7:	62 63 64             	bound  %esp,0x64(%ebx)
  1095fa:	65                   	gs
  1095fb:	66 67 68 69 6a       	addr16 pushw $0x6a69
  109600:	6b 6c 6d 6e 6f       	imul   $0x6f,0x6e(%ebp,%ebp,2),%ebp
  109605:	70 71                	jo     109678 <rodata+0x1678>
  109607:	72 73                	jb     10967c <rodata+0x167c>
  109609:	74 75                	je     109680 <rodata+0x1680>
  10960b:	76 77                	jbe    109684 <rodata+0x1684>
  10960d:	78 79                	js     109688 <rodata+0x1688>
  10960f:	7a 00                	jp     109611 <rodata+0x1611>
  109611:	00 00                	add    %al,(%eax)
  109613:	00 a4 49 10 00 b3 49 	add    %ah,0x49b30010(%ecx,%ecx,2)
  10961a:	10 00                	adc    %al,(%eax)
  10961c:	b3 49                	mov    $0x49,%bl
  10961e:	10 00                	adc    %al,(%eax)
  109620:	a9 49 10 00 b3       	test   $0xb3001049,%eax
  109625:	49                   	dec    %ecx
  109626:	10 00                	adc    %al,(%eax)
  109628:	b3 49                	mov    $0x49,%bl
  10962a:	10 00                	adc    %al,(%eax)
  10962c:	b3 49                	mov    $0x49,%bl
  10962e:	10 00                	adc    %al,(%eax)
  109630:	b3 49                	mov    $0x49,%bl
  109632:	10 00                	adc    %al,(%eax)
  109634:	b3 49                	mov    $0x49,%bl
  109636:	10 00                	adc    %al,(%eax)
  109638:	b3 49                	mov    $0x49,%bl
  10963a:	10 00                	adc    %al,(%eax)
  10963c:	b3 49                	mov    $0x49,%bl
  10963e:	10 00                	adc    %al,(%eax)
  109640:	9f                   	lahf   
  109641:	49                   	dec    %ecx
  109642:	10 00                	adc    %al,(%eax)
  109644:	b3 49                	mov    $0x49,%bl
  109646:	10 00                	adc    %al,(%eax)
  109648:	9a 49 10 00 b3 49 10 	lcall  $0x1049,$0xb3001049
  10964f:	00 b3 49 10 00 ae    	add    %dh,-0x51ffefb7(%ebx)
  109655:	49                   	dec    %ecx
  109656:	10 00                	adc    %al,(%eax)
  109658:	e9 4b 10 00 80       	jmp    8010a6a8 <MULTIBOOT_HEADER_MAGIC+0x6462f6a6>
  10965d:	4c                   	dec    %esp
  10965e:	10 00                	adc    %al,(%eax)
  109660:	80 4c 10 00 80       	orb    $0x80,0x0(%eax,%edx,1)
  109665:	4c                   	dec    %esp
  109666:	10 00                	adc    %al,(%eax)
  109668:	80 4c 10 00 80       	orb    $0x80,0x0(%eax,%edx,1)
  10966d:	4c                   	dec    %esp
  10966e:	10 00                	adc    %al,(%eax)
  109670:	80 4c 10 00 80       	orb    $0x80,0x0(%eax,%edx,1)
  109675:	4c                   	dec    %esp
  109676:	10 00                	adc    %al,(%eax)
  109678:	80 4c 10 00 80       	orb    $0x80,0x0(%eax,%edx,1)
  10967d:	4c                   	dec    %esp
  10967e:	10 00                	adc    %al,(%eax)
  109680:	45                   	inc    %ebp
  109681:	4c                   	dec    %esp
  109682:	10 00                	adc    %al,(%eax)
  109684:	76 4a                	jbe    1096d0 <rodata+0x16d0>
  109686:	10 00                	adc    %al,(%eax)
  109688:	17                   	pop    %ss
  109689:	4c                   	dec    %esp
  10968a:	10 00                	adc    %al,(%eax)
  10968c:	80 4c 10 00 80       	orb    $0x80,0x0(%eax,%edx,1)
  109691:	4c                   	dec    %esp
  109692:	10 00                	adc    %al,(%eax)
  109694:	80 4c 10 00 80       	orb    $0x80,0x0(%eax,%edx,1)
  109699:	4c                   	dec    %esp
  10969a:	10 00                	adc    %al,(%eax)
  10969c:	17                   	pop    %ss
  10969d:	4c                   	dec    %esp
  10969e:	10 00                	adc    %al,(%eax)
  1096a0:	80 4c 10 00 80       	orb    $0x80,0x0(%eax,%edx,1)
  1096a5:	4c                   	dec    %esp
  1096a6:	10 00                	adc    %al,(%eax)
  1096a8:	80 4c 10 00 80       	orb    $0x80,0x0(%eax,%edx,1)
  1096ad:	4c                   	dec    %esp
  1096ae:	10 00                	adc    %al,(%eax)
  1096b0:	70 4c                	jo     1096fe <rodata+0x16fe>
  1096b2:	10 00                	adc    %al,(%eax)
  1096b4:	78 4b                	js     109701 <rodata+0x1701>
  1096b6:	10 00                	adc    %al,(%eax)
  1096b8:	a6                   	cmpsb  %es:(%edi),%ds:(%esi)
  1096b9:	4b                   	dec    %ebx
  1096ba:	10 00                	adc    %al,(%eax)
  1096bc:	80 4c 10 00 80       	orb    $0x80,0x0(%eax,%edx,1)
  1096c1:	4c                   	dec    %esp
  1096c2:	10 00                	adc    %al,(%eax)
  1096c4:	db 4a 10             	fisttpl 0x10(%edx)
  1096c7:	00 80 4c 10 00 1a    	add    %al,0x1a00104c(%eax)
  1096cd:	4c                   	dec    %esp
  1096ce:	10 00                	adc    %al,(%eax)
  1096d0:	80 4c 10 00 80       	orb    $0x80,0x0(%eax,%edx,1)
  1096d5:	4c                   	dec    %esp
  1096d6:	10 00                	adc    %al,(%eax)
  1096d8:	e6 4b                	out    %al,$0x4b
  1096da:	10 00                	adc    %al,(%eax)
  1096dc:	4d                   	dec    %ebp
  1096dd:	61                   	popa   
  1096de:	78 69                	js     109749 <rodata+0x1749>
  1096e0:	6d                   	insl   (%dx),%es:(%edi)
  1096e1:	75 6d                	jne    109750 <rodata+0x1750>
  1096e3:	20 6e 75             	and    %ch,0x75(%esi)
  1096e6:	6d                   	insl   (%dx),%es:(%edi)
  1096e7:	62 65 72             	bound  %esp,0x72(%ebp)
  1096ea:	20 6f 66             	and    %ch,0x66(%edi)
  1096ed:	20 70 72             	and    %dh,0x72(%eax)
  1096f0:	6f                   	outsl  %ds:(%esi),(%dx)
  1096f1:	63 65 73             	arpl   %sp,0x73(%ebp)
  1096f4:	73 65                	jae    10975b <rodata+0x175b>
  1096f6:	73 20                	jae    109718 <rodata+0x1718>
  1096f8:	65                   	gs
  1096f9:	78 63                	js     10975e <rodata+0x175e>
  1096fb:	65 65 64 65 64 2e 20 	gs gs fs gs fs and %dl,%cs:%fs:%gs:0x65(%eax,%ebp,2)
  109702:	54 68 65 
  109705:	20 70 72             	and    %dh,0x72(%eax)
  109708:	6f                   	outsl  %ds:(%esi),(%dx)
  109709:	63 65 73             	arpl   %sp,0x73(%ebp)
  10970c:	73 20                	jae    10972e <rodata+0x172e>
  10970e:	63 61 6e             	arpl   %sp,0x6e(%ecx)
  109711:	6e                   	outsb  %ds:(%esi),(%dx)
  109712:	6f                   	outsl  %ds:(%esi),(%dx)
  109713:	74 20                	je     109735 <rodata+0x1735>
  109715:	62 65 20             	bound  %esp,0x20(%ebp)
  109718:	63 72 65             	arpl   %si,0x65(%edx)
  10971b:	61                   	popa   
  10971c:	74 65                	je     109783 <rodata+0x1783>
  10971e:	64 2e 0a 00          	fs or  %cs:%fs:(%eax),%al
  109722:	00 00                	add    %al,(%eax)
  109724:	50                   	push   %eax
  109725:	72 6f                	jb     109796 <rodata+0x1796>
  109727:	63 65 73             	arpl   %sp,0x73(%ebp)
  10972a:	73 3a                	jae    109766 <rodata+0x1766>
  10972c:	20 25 30 38 58 2c    	and    %ah,0x2c583830
  109732:	20 74 68 72          	and    %dh,0x72(%eax,%ebp,2)
  109736:	65                   	gs
  109737:	61                   	popa   
  109738:	64                   	fs
  109739:	73 3a                	jae    109775 <rodata+0x1775>
  10973b:	20 25 30 38 58 2c    	and    %ah,0x2c583830
  109741:	20 74 68 72          	and    %dh,0x72(%eax,%ebp,2)
  109745:	65                   	gs
  109746:	61                   	popa   
  109747:	64 3a 20             	cmp    %fs:(%eax),%ah
  10974a:	25 30 38 58 2e       	and    $0x2e583830,%eax
  10974f:	0a 00                	or     (%eax),%al
  109751:	00 00                	add    %al,(%eax)
  109753:	00 50 49             	add    %dl,0x49(%eax)
  109756:	44                   	inc    %esp
  109757:	30 54 68 72          	xor    %dl,0x72(%eax,%ebp,2)
  10975b:	65                   	gs
  10975c:	61                   	popa   
  10975d:	64                   	fs
  10975e:	73 3a                	jae    10979a <rodata+0x179a>
  109760:	20 25 30 38 58 2c    	and    %ah,0x2c583830
  109766:	20 74 68 72          	and    %dh,0x72(%eax,%ebp,2)
  10976a:	65                   	gs
  10976b:	61                   	popa   
  10976c:	64 3a 20             	cmp    %fs:(%eax),%ah
  10976f:	25 30 38 58 0a       	and    $0xa583830,%eax
  109774:	00 00                	add    %al,(%eax)
  109776:	00 00                	add    %al,(%eax)
  109778:	54                   	push   %esp
  109779:	65                   	gs
  10977a:	73 74                	jae    1097f0 <rodata+0x17f0>
  10977c:	20 50 72             	and    %dl,0x72(%eax)
  10977f:	6f                   	outsl  %ds:(%esi),(%dx)
  109780:	63 65 73             	arpl   %sp,0x73(%ebp)
  109783:	73 20                	jae    1097a5 <rodata+0x17a5>
  109785:	33 0a                	xor    (%edx),%ecx
  109787:	00 54 65 73          	add    %dl,0x73(%ebp,%eiz,2)
  10978b:	74 20                	je     1097ad <rodata+0x17ad>
  10978d:	50                   	push   %eax
  10978e:	72 6f                	jb     1097ff <rodata+0x17ff>
  109790:	63 65 73             	arpl   %sp,0x73(%ebp)
  109793:	73 20                	jae    1097b5 <rodata+0x17b5>
  109795:	32 0a                	xor    (%edx),%cl
  109797:	00 54 65 73          	add    %dl,0x73(%ebp,%eiz,2)
  10979b:	74 20                	je     1097bd <rodata+0x17bd>
  10979d:	50                   	push   %eax
  10979e:	72 6f                	jb     10980f <rodata+0x180f>
  1097a0:	63 65 73             	arpl   %sp,0x73(%ebp)
  1097a3:	73 0a                	jae    1097af <rodata+0x17af>
  1097a5:	00 4b 65             	add    %cl,0x65(%ebx)
  1097a8:	72 6e                	jb     109818 <rodata+0x1818>
  1097aa:	65                   	gs
  1097ab:	6c                   	insb   (%dx),%es:(%edi)
  1097ac:	20 50 72             	and    %dl,0x72(%eax)
  1097af:	6f                   	outsl  %ds:(%esi),(%dx)
  1097b0:	63 65 73             	arpl   %sp,0x73(%ebp)
  1097b3:	73 0a                	jae    1097bf <rodata+0x17bf>
  1097b5:	00 50 72             	add    %dl,0x72(%eax)
  1097b8:	6f                   	outsl  %ds:(%esi),(%dx)
  1097b9:	63 65 73             	arpl   %sp,0x73(%ebp)
  1097bc:	73 3a                	jae    1097f8 <rodata+0x17f8>
  1097be:	20 30                	and    %dh,(%eax)
  1097c0:	78 25                	js     1097e7 <rodata+0x17e7>
  1097c2:	30 38                	xor    %bh,(%eax)
  1097c4:	78 0a                	js     1097d0 <rodata+0x17d0>
  1097c6:	00 54 68 72          	add    %dl,0x72(%eax,%ebp,2)
  1097ca:	65                   	gs
  1097cb:	61                   	popa   
  1097cc:	64 3a 20             	cmp    %fs:(%eax),%ah
  1097cf:	30 78 25             	xor    %bh,0x25(%eax)
  1097d2:	30 38                	xor    %bh,(%eax)
  1097d4:	78 0a                	js     1097e0 <rodata+0x17e0>
  1097d6:	00 54 68 72          	add    %dl,0x72(%eax,%ebp,2)
  1097da:	65                   	gs
  1097db:	61                   	popa   
  1097dc:	64 20 43 6f          	and    %al,%fs:0x6f(%ebx)
  1097e0:	6e                   	outsb  %ds:(%esi),(%dx)
  1097e1:	74 65                	je     109848 <rodata+0x1848>
  1097e3:	78 74                	js     109859 <rodata+0x1859>
  1097e5:	3a 20                	cmp    (%eax),%ah
  1097e7:	30 78 25             	xor    %bh,0x25(%eax)
  1097ea:	30 38                	xor    %bh,(%eax)
  1097ec:	78 0a                	js     1097f8 <rodata+0x17f8>
  1097ee:	00 50 49             	add    %dl,0x49(%eax)
  1097f1:	44                   	inc    %esp
  1097f2:	3a 20                	cmp    (%eax),%ah
  1097f4:	25 64 2c 20 54       	and    $0x54202c64,%eax
  1097f9:	49                   	dec    %ecx
  1097fa:	44                   	inc    %esp
  1097fb:	3a 25 64 0a 00 4b    	cmp    0x4b000a64,%ah
  109801:	65                   	gs
  109802:	72 6e                	jb     109872 <rodata+0x1872>
  109804:	65                   	gs
  109805:	6c                   	insb   (%dx),%es:(%edi)
  109806:	20 50 72             	and    %dl,0x72(%eax)
  109809:	6f                   	outsl  %ds:(%esi),(%dx)
  10980a:	63 65 73             	arpl   %sp,0x73(%ebp)
  10980d:	73 00                	jae    10980f <rodata+0x180f>
  10980f:	54                   	push   %esp
  109810:	65                   	gs
  109811:	73 74                	jae    109887 <rodata+0x1887>
  109813:	20 50 72             	and    %dl,0x72(%eax)
  109816:	6f                   	outsl  %ds:(%esi),(%dx)
  109817:	63 65 73             	arpl   %sp,0x73(%ebp)
  10981a:	73 00                	jae    10981c <rodata+0x181c>
  10981c:	54                   	push   %esp
  10981d:	65                   	gs
  10981e:	73 74                	jae    109894 <rodata+0x1894>
  109820:	20 50 72             	and    %dl,0x72(%eax)
  109823:	6f                   	outsl  %ds:(%esi),(%dx)
  109824:	63 65 73             	arpl   %sp,0x73(%ebp)
  109827:	73 20                	jae    109849 <rodata+0x1849>
  109829:	32 00                	xor    (%eax),%al
  10982b:	54                   	push   %esp
  10982c:	65                   	gs
  10982d:	73 74                	jae    1098a3 <rodata+0x18a3>
  10982f:	20 50 72             	and    %dl,0x72(%eax)
  109832:	6f                   	outsl  %ds:(%esi),(%dx)
  109833:	63 65 73             	arpl   %sp,0x73(%ebp)
  109836:	73 20                	jae    109858 <rodata+0x1858>
  109838:	33 00                	xor    (%eax),%eax
  10983a:	2f                   	das    
  10983b:	00 73 74             	add    %dh,0x74(%ebx)
  10983e:	64 69 6e 00 73 74 64 	imul   $0x6f647473,%fs:0x0(%esi),%ebp
  109845:	6f 
  109846:	75 74                	jne    1098bc <rodata+0x18bc>
  109848:	00 73 74             	add    %dh,0x74(%ebx)
  10984b:	64                   	fs
  10984c:	65                   	gs
  10984d:	72 72                	jb     1098c1 <rodata+0x18c1>
  10984f:	00 a2 6d 10 00 ba    	add    %ah,-0x45ffef93(%edx)
  109855:	6d                   	insl   (%dx),%es:(%edi)
  109856:	10 00                	adc    %al,(%eax)
  109858:	ba 6d 10 00 ba       	mov    $0xba00106d,%edx
  10985d:	6d                   	insl   (%dx),%es:(%edi)
  10985e:	10 00                	adc    %al,(%eax)
  109860:	ba 6d 10 00 ba       	mov    $0xba00106d,%edx
  109865:	6d                   	insl   (%dx),%es:(%edi)
  109866:	10 00                	adc    %al,(%eax)
  109868:	ba 6d 10 00 ba       	mov    $0xba00106d,%edx
  10986d:	6d                   	insl   (%dx),%es:(%edi)
  10986e:	10 00                	adc    %al,(%eax)
  109870:	ba 6d 10 00 ba       	mov    $0xba00106d,%edx
  109875:	6d                   	insl   (%dx),%es:(%edi)
  109876:	10 00                	adc    %al,(%eax)
  109878:	ba 6d 10 00 ba       	mov    $0xba00106d,%edx
  10987d:	6d                   	insl   (%dx),%es:(%edi)
  10987e:	10 00                	adc    %al,(%eax)
  109880:	ba 6d 10 00 59       	mov    $0x5900106d,%edx
  109885:	6d                   	insl   (%dx),%es:(%edi)
  109886:	10 00                	adc    %al,(%eax)
  109888:	ba 6d 10 00 ba       	mov    $0xba00106d,%edx
  10988d:	6d                   	insl   (%dx),%es:(%edi)
  10988e:	10 00                	adc    %al,(%eax)
  109890:	ba 6d 10 00 ba       	mov    $0xba00106d,%edx
  109895:	6d                   	insl   (%dx),%es:(%edi)
  109896:	10 00                	adc    %al,(%eax)
  109898:	ba 6d 10 00 ba       	mov    $0xba00106d,%edx
  10989d:	6d                   	insl   (%dx),%es:(%edi)
  10989e:	10 00                	adc    %al,(%eax)
  1098a0:	ba 6d 10 00 ba       	mov    $0xba00106d,%edx
  1098a5:	6d                   	insl   (%dx),%es:(%edi)
  1098a6:	10 00                	adc    %al,(%eax)
  1098a8:	ba 6d 10 00 ba       	mov    $0xba00106d,%edx
  1098ad:	6d                   	insl   (%dx),%es:(%edi)
  1098ae:	10 00                	adc    %al,(%eax)
  1098b0:	ba 6d 10 00 68       	mov    $0x6800106d,%edx
  1098b5:	6d                   	insl   (%dx),%es:(%edi)
  1098b6:	10 00                	adc    %al,(%eax)
  1098b8:	ba 6d 10 00 ae       	mov    $0xae00106d,%edx
  1098bd:	6d                   	insl   (%dx),%es:(%edi)
  1098be:	10 00                	adc    %al,(%eax)
  1098c0:	ba 6d 10 00 77       	mov    $0x7700106d,%edx
  1098c5:	6d                   	insl   (%dx),%es:(%edi)
  1098c6:	10 00                	adc    %al,(%eax)

Disassembly of section .data:

0010a000 <data>:
  10a000:	01 81 10 00 12 81    	add    %eax,-0x7eedfff0(%ecx)
  10a006:	10 00                	adc    %al,(%eax)
  10a008:	18 81 10 00 2f 81    	sbb    %al,-0x7ed0fff0(%ecx)
  10a00e:	10 00                	adc    %al,(%eax)
  10a010:	3a 81 10 00 51 81    	cmp    -0x7eaefff0(%ecx),%al
  10a016:	10 00                	adc    %al,(%eax)
  10a018:	5f                   	pop    %edi
  10a019:	81 10 00 6e 81 10    	adcl   $0x10816e00,(%eax)
  10a01f:	00 7d 81             	add    %bh,-0x7f(%ebp)
  10a022:	10 00                	adc    %al,(%eax)
  10a024:	8a 81 10 00 a6 81    	mov    -0x7e59fff0(%ecx),%al
  10a02a:	10 00                	adc    %al,(%eax)
  10a02c:	ae                   	scas   %es:(%edi),%al
  10a02d:	81 10 00 c2 81 10    	adcl   $0x1081c200,(%eax)
  10a033:	00 ce                	add    %cl,%dh
  10a035:	81 10 00 e7 81 10    	adcl   $0x1081e700,(%eax)
  10a03b:	00 f2                	add    %dh,%dl
  10a03d:	81 10 00 04 82 10    	adcl   $0x10820400,(%eax)
  10a043:	00 16                	add    %dl,(%esi)
  10a045:	82                   	(bad)  
  10a046:	10 00                	adc    %al,(%eax)
  10a048:	26                   	es
  10a049:	82                   	(bad)  
  10a04a:	10 00                	adc    %al,(%eax)
  10a04c:	34 82                	xor    $0x82,%al
  10a04e:	10 00                	adc    %al,(%eax)
  10a050:	34 82                	xor    $0x82,%al
  10a052:	10 00                	adc    %al,(%eax)
  10a054:	34 82                	xor    $0x82,%al
  10a056:	10 00                	adc    %al,(%eax)
  10a058:	34 82                	xor    $0x82,%al
  10a05a:	10 00                	adc    %al,(%eax)
  10a05c:	34 82                	xor    $0x82,%al
  10a05e:	10 00                	adc    %al,(%eax)
  10a060:	34 82                	xor    $0x82,%al
  10a062:	10 00                	adc    %al,(%eax)
  10a064:	34 82                	xor    $0x82,%al
  10a066:	10 00                	adc    %al,(%eax)
  10a068:	34 82                	xor    $0x82,%al
  10a06a:	10 00                	adc    %al,(%eax)
  10a06c:	34 82                	xor    $0x82,%al
  10a06e:	10 00                	adc    %al,(%eax)
  10a070:	34 82                	xor    $0x82,%al
  10a072:	10 00                	adc    %al,(%eax)
  10a074:	34 82                	xor    $0x82,%al
  10a076:	10 00                	adc    %al,(%eax)
  10a078:	34 82                	xor    $0x82,%al
  10a07a:	10 00                	adc    %al,(%eax)
  10a07c:	34 82                	xor    $0x82,%al
  10a07e:	10 00                	adc    %al,(%eax)

0010a080 <num_syscalls>:
  10a080:	c8 00 00 00          	enter  $0x0,$0x0

0010a084 <placement_address>:
  10a084:	dc b3 11 00 00 10    	fdivl  0x10000011(%ebx)

0010a088 <max_processes>:
  10a088:	00 10                	add    %dl,(%eax)
	...

0010a08c <max_threads>:
  10a08c:	00 00                	add    %al,(%eax)
  10a08e:	01 00                	add    %eax,(%eax)

0010a090 <attrib>:
  10a090:	0f 00 00             	sldt   (%eax)
	...

0010a0a0 <kbdus_shift>:
  10a0a0:	00 1b                	add    %bl,(%ebx)
  10a0a2:	21 40 23             	and    %eax,0x23(%eax)
  10a0a5:	24 25                	and    $0x25,%al
  10a0a7:	5e                   	pop    %esi
  10a0a8:	26 2a 28             	sub    %es:(%eax),%ch
  10a0ab:	29 5f 2b             	sub    %ebx,0x2b(%edi)
  10a0ae:	08 09                	or     %cl,(%ecx)
  10a0b0:	51                   	push   %ecx
  10a0b1:	57                   	push   %edi
  10a0b2:	45                   	inc    %ebp
  10a0b3:	52                   	push   %edx
  10a0b4:	54                   	push   %esp
  10a0b5:	59                   	pop    %ecx
  10a0b6:	55                   	push   %ebp
  10a0b7:	49                   	dec    %ecx
  10a0b8:	4f                   	dec    %edi
  10a0b9:	50                   	push   %eax
  10a0ba:	7b 7d                	jnp    10a139 <kbdus+0x19>
  10a0bc:	0a 00                	or     (%eax),%al
  10a0be:	41                   	inc    %ecx
  10a0bf:	53                   	push   %ebx
  10a0c0:	44                   	inc    %esp
  10a0c1:	46                   	inc    %esi
  10a0c2:	47                   	inc    %edi
  10a0c3:	48                   	dec    %eax
  10a0c4:	4a                   	dec    %edx
  10a0c5:	4b                   	dec    %ebx
  10a0c6:	4c                   	dec    %esp
  10a0c7:	3a 22                	cmp    (%edx),%ah
  10a0c9:	7e 00                	jle    10a0cb <kbdus_shift+0x2b>
  10a0cb:	7c 5a                	jl     10a127 <kbdus+0x7>
  10a0cd:	58                   	pop    %eax
  10a0ce:	43                   	inc    %ebx
  10a0cf:	56                   	push   %esi
  10a0d0:	42                   	inc    %edx
  10a0d1:	4e                   	dec    %esi
  10a0d2:	4d                   	dec    %ebp
  10a0d3:	3c 3e                	cmp    $0x3e,%al
  10a0d5:	3f                   	aas    
  10a0d6:	00 2a                	add    %ch,(%edx)
  10a0d8:	00 20                	add    %ah,(%eax)
	...
  10a0ea:	2d 00 00 00 2b       	sub    $0x2b000000,%eax
	...

0010a120 <kbdus>:
  10a120:	00 1b                	add    %bl,(%ebx)
  10a122:	31 32                	xor    %esi,(%edx)
  10a124:	33 34 35 36 37 38 39 	xor    0x39383736(,%esi,1),%esi
  10a12b:	30 2d 3d 08 09 71    	xor    %ch,0x7109083d
  10a131:	77 65                	ja     10a198 <kbdus+0x78>
  10a133:	72 74                	jb     10a1a9 <bss+0x9>
  10a135:	79 75                	jns    10a1ac <bss+0xc>
  10a137:	69 6f 70 5b 5d 0a 13 	imul   $0x130a5d5b,0x70(%edi),%ebp
  10a13e:	61                   	popa   
  10a13f:	73 64                	jae    10a1a5 <bss+0x5>
  10a141:	66 67 68 6a 6b       	addr16 pushw $0x6b6a
  10a146:	6c                   	insb   (%dx),%es:(%edi)
  10a147:	3b 27                	cmp    (%edi),%esp
  10a149:	60                   	pusha  
  10a14a:	14 5c                	adc    $0x5c,%al
  10a14c:	7a 78                	jp     10a1c6 <bss+0x26>
  10a14e:	63 76 62             	arpl   %si,0x62(%esi)
  10a151:	6e                   	outsb  %ds:(%esi),(%dx)
  10a152:	6d                   	insl   (%dx),%es:(%edi)
  10a153:	2c 2e                	sub    $0x2e,%al
  10a155:	2f                   	das    
  10a156:	14 2a                	adc    $0x2a,%al
  10a158:	0e                   	push   %cs
  10a159:	20 0f                	and    %cl,(%edi)
	...
  10a163:	00 00                	add    %al,(%eax)
  10a165:	10 11                	adc    %dl,(%ecx)
  10a167:	00 00                	add    %al,(%eax)
  10a169:	00 2d 00 00 00 2b    	add    %ch,0x2b000000
	...

Disassembly of section .bss:

0010a1a0 <bss>:
	...

0011a1a0 <current_pic>:
	...

0011a1c0 <irqs>:
	...

0011a220 <isrs>:
	...

0011a2a0 <pit_ticks>:
	...

0011a2c0 <syscalls>:
	...

0011a5e0 <current_timer>:
  11a5e0:	00 00                	add    %al,(%eax)
	...

0011a5e4 <current_directory>:
  11a5e4:	00 00                	add    %al,(%eax)
	...

0011a5e8 <kernel_directory>:
  11a5e8:	00 00                	add    %al,(%eax)
	...

0011a5ec <kheap>:
	...

0011a600 <buf.1163>:
	...

0011aa00 <num_processes>:
  11aa00:	00 00                	add    %al,(%eax)
	...

0011aa04 <current_pid>:
  11aa04:	00 00                	add    %al,(%eax)
	...

0011aa08 <ring>:
	...

0011aa09 <mode_flags>:
  11aa09:	00 00                	add    %al,(%eax)
	...

0011aa0c <num_threads>:
  11aa0c:	00 00                	add    %al,(%eax)
	...

0011aa10 <current_tid>:
  11aa10:	00 00                	add    %al,(%eax)
	...

0011aa14 <csr_y>:
  11aa14:	00 00                	add    %al,(%eax)
	...

0011aa18 <csr_x>:
	...

0011aa20 <fn>:
	...

0011aa50 <function>:
  11aa50:	00 00                	add    %al,(%eax)
	...

0011aa54 <alt>:
  11aa54:	00 00                	add    %al,(%eax)
	...

0011aa58 <caps_lock>:
  11aa58:	00 00                	add    %al,(%eax)
	...

0011aa5c <shift>:
  11aa5c:	00 00                	add    %al,(%eax)
	...

0011aa60 <mouse_y>:
	...

0011aa61 <mouse_x>:
	...

0011aa62 <mouse_cycle>:
	...

0011aa80 <gp>:
	...

0011aaa0 <gdt>:
	...

0011aae0 <tss_entry>:
	...

0011ab60 <idtp>:
	...

0011ab80 <idt>:
	...

0011b380 <ioapic_base>:
  11b380:	00 00                	add    %al,(%eax)
	...

0011b384 <lapic_base>:
  11b384:	00 00                	add    %al,(%eax)
	...

0011b388 <lapic_timer_ticks>:
  11b388:	00 00                	add    %al,(%eax)
	...

0011b38c <lapic_timer_frequency>:
  11b38c:	00 00                	add    %al,(%eax)
	...

0011b390 <pit_frequency>:
  11b390:	00 00                	add    %al,(%eax)
	...

0011b394 <pmm_pages>:
  11b394:	00 00                	add    %al,(%eax)
	...

0011b398 <num_pmm_pages>:
  11b398:	00 00                	add    %al,(%eax)
	...

0011b39c <initrd>:
  11b39c:	00 00                	add    %al,(%eax)
	...

0011b3a0 <processes>:
  11b3a0:	00 00                	add    %al,(%eax)
	...

0011b3a4 <num_mutexes>:
  11b3a4:	00 00                	add    %al,(%eax)
	...

0011b3a8 <semaphores>:
  11b3a8:	00 00                	add    %al,(%eax)
	...

0011b3ac <num_semaphores>:
  11b3ac:	00 00                	add    %al,(%eax)
	...

0011b3b0 <mutexes>:
  11b3b0:	00 00                	add    %al,(%eax)
	...

0011b3b4 <threads>:
  11b3b4:	00 00                	add    %al,(%eax)
	...

0011b3b8 <stdout>:
  11b3b8:	00 00                	add    %al,(%eax)
	...

0011b3bc <stdin>:
  11b3bc:	00 00                	add    %al,(%eax)
	...

0011b3c0 <stderr>:
  11b3c0:	00 00                	add    %al,(%eax)
	...

0011b3c4 <fs_dev>:
  11b3c4:	00 00                	add    %al,(%eax)
	...

0011b3c8 <first_mount_pair>:
  11b3c8:	00 00                	add    %al,(%eax)
	...

0011b3cc <fs_root>:
  11b3cc:	00 00                	add    %al,(%eax)
	...

0011b3d0 <textmemptr>:
  11b3d0:	00 00                	add    %al,(%eax)
	...

0011b3d4 <control>:
  11b3d4:	00 00                	add    %al,(%eax)
	...

0011b3d8 <key_char>:
	...

0011b3d9 <mouse_byte>:
  11b3d9:	00 00                	add    %al,(%eax)
	...

Disassembly of section .comment:

00000000 <.comment>:
   0:	00 54 68 65          	add    %dl,0x65(%eax,%ebp,2)
   4:	20 4e 65             	and    %cl,0x65(%esi)
   7:	74 77                	je     80 <MULTIBOOT_HEADER_FLAGS+0x7d>
   9:	69 64 65 20 41 73 73 	imul   $0x65737341,0x20(%ebp,%eiz,2),%esp
  10:	65 
  11:	6d                   	insl   (%dx),%es:(%edi)
  12:	62 6c 65 72          	bound  %ebp,0x72(%ebp,%eiz,2)
  16:	20 30                	and    %dh,(%eax)
  18:	2e 39 38             	cmp    %edi,%cs:(%eax)
  1b:	2e                   	cs
  1c:	34 30                	xor    $0x30,%al
  1e:	20 28                	and    %ch,(%eax)
  20:	41                   	inc    %ecx
  21:	70 70                	jo     93 <MULTIBOOT_HEADER_FLAGS+0x90>
  23:	6c                   	insb   (%dx),%es:(%edi)
  24:	65 20 43 6f          	and    %al,%gs:0x6f(%ebx)
  28:	6d                   	insl   (%dx),%es:(%edi)
  29:	70 75                	jo     a0 <MULTIBOOT_HEADER_FLAGS+0x9d>
  2b:	74 65                	je     92 <MULTIBOOT_HEADER_FLAGS+0x8f>
  2d:	72 2c                	jb     5b <MULTIBOOT_HEADER_FLAGS+0x58>
  2f:	20 49 6e             	and    %cl,0x6e(%ecx)
  32:	63 2e                	arpl   %bp,(%esi)
  34:	20 62 75             	and    %ah,0x75(%edx)
  37:	69 6c 64 20 31 31 29 	imul   $0x293131,0x20(%esp,%eiz,2),%ebp
  3e:	00 
  3f:	00 54 68 65          	add    %dl,0x65(%eax,%ebp,2)
  43:	20 4e 65             	and    %cl,0x65(%esi)
  46:	74 77                	je     bf <MULTIBOOT_HEADER_FLAGS+0xbc>
  48:	69 64 65 20 41 73 73 	imul   $0x65737341,0x20(%ebp,%eiz,2),%esp
  4f:	65 
  50:	6d                   	insl   (%dx),%es:(%edi)
  51:	62 6c 65 72          	bound  %ebp,0x72(%ebp,%eiz,2)
  55:	20 30                	and    %dh,(%eax)
  57:	2e 39 38             	cmp    %edi,%cs:(%eax)
  5a:	2e                   	cs
  5b:	34 30                	xor    $0x30,%al
  5d:	20 28                	and    %ch,(%eax)
  5f:	41                   	inc    %ecx
  60:	70 70                	jo     d2 <MULTIBOOT_HEADER_FLAGS+0xcf>
  62:	6c                   	insb   (%dx),%es:(%edi)
  63:	65 20 43 6f          	and    %al,%gs:0x6f(%ebx)
  67:	6d                   	insl   (%dx),%es:(%edi)
  68:	70 75                	jo     df <MULTIBOOT_HEADER_FLAGS+0xdc>
  6a:	74 65                	je     d1 <MULTIBOOT_HEADER_FLAGS+0xce>
  6c:	72 2c                	jb     9a <MULTIBOOT_HEADER_FLAGS+0x97>
  6e:	20 49 6e             	and    %cl,0x6e(%ecx)
  71:	63 2e                	arpl   %bp,(%esi)
  73:	20 62 75             	and    %ah,0x75(%edx)
  76:	69 6c 64 20 31 31 29 	imul   $0x293131,0x20(%esp,%eiz,2),%ebp
  7d:	00 
  7e:	00 54 68 65          	add    %dl,0x65(%eax,%ebp,2)
  82:	20 4e 65             	and    %cl,0x65(%esi)
  85:	74 77                	je     fe <MULTIBOOT_HEADER_FLAGS+0xfb>
  87:	69 64 65 20 41 73 73 	imul   $0x65737341,0x20(%ebp,%eiz,2),%esp
  8e:	65 
  8f:	6d                   	insl   (%dx),%es:(%edi)
  90:	62 6c 65 72          	bound  %ebp,0x72(%ebp,%eiz,2)
  94:	20 30                	and    %dh,(%eax)
  96:	2e 39 38             	cmp    %edi,%cs:(%eax)
  99:	2e                   	cs
  9a:	34 30                	xor    $0x30,%al
  9c:	20 28                	and    %ch,(%eax)
  9e:	41                   	inc    %ecx
  9f:	70 70                	jo     111 <MULTIBOOT_HEADER_FLAGS+0x10e>
  a1:	6c                   	insb   (%dx),%es:(%edi)
  a2:	65 20 43 6f          	and    %al,%gs:0x6f(%ebx)
  a6:	6d                   	insl   (%dx),%es:(%edi)
  a7:	70 75                	jo     11e <MULTIBOOT_HEADER_FLAGS+0x11b>
  a9:	74 65                	je     110 <MULTIBOOT_HEADER_FLAGS+0x10d>
  ab:	72 2c                	jb     d9 <MULTIBOOT_HEADER_FLAGS+0xd6>
  ad:	20 49 6e             	and    %cl,0x6e(%ecx)
  b0:	63 2e                	arpl   %bp,(%esi)
  b2:	20 62 75             	and    %ah,0x75(%edx)
  b5:	69 6c 64 20 31 31 29 	imul   $0x293131,0x20(%esp,%eiz,2),%ebp
  bc:	00 
  bd:	00 54 68 65          	add    %dl,0x65(%eax,%ebp,2)
  c1:	20 4e 65             	and    %cl,0x65(%esi)
  c4:	74 77                	je     13d <MULTIBOOT_HEADER_FLAGS+0x13a>
  c6:	69 64 65 20 41 73 73 	imul   $0x65737341,0x20(%ebp,%eiz,2),%esp
  cd:	65 
  ce:	6d                   	insl   (%dx),%es:(%edi)
  cf:	62 6c 65 72          	bound  %ebp,0x72(%ebp,%eiz,2)
  d3:	20 30                	and    %dh,(%eax)
  d5:	2e 39 38             	cmp    %edi,%cs:(%eax)
  d8:	2e                   	cs
  d9:	34 30                	xor    $0x30,%al
  db:	20 28                	and    %ch,(%eax)
  dd:	41                   	inc    %ecx
  de:	70 70                	jo     150 <MULTIBOOT_HEADER_FLAGS+0x14d>
  e0:	6c                   	insb   (%dx),%es:(%edi)
  e1:	65 20 43 6f          	and    %al,%gs:0x6f(%ebx)
  e5:	6d                   	insl   (%dx),%es:(%edi)
  e6:	70 75                	jo     15d <MULTIBOOT_HEADER_FLAGS+0x15a>
  e8:	74 65                	je     14f <MULTIBOOT_HEADER_FLAGS+0x14c>
  ea:	72 2c                	jb     118 <MULTIBOOT_HEADER_FLAGS+0x115>
  ec:	20 49 6e             	and    %cl,0x6e(%ecx)
  ef:	63 2e                	arpl   %bp,(%esi)
  f1:	20 62 75             	and    %ah,0x75(%edx)
  f4:	69 6c 64 20 31 31 29 	imul   $0x293131,0x20(%esp,%eiz,2),%ebp
  fb:	00 
  fc:	47                   	inc    %edi
  fd:	43                   	inc    %ebx
  fe:	43                   	inc    %ebx
  ff:	3a 20                	cmp    (%eax),%ah
 101:	28 47 4e             	sub    %al,0x4e(%edi)
 104:	55                   	push   %ebp
 105:	29 20                	sub    %esp,(%eax)
 107:	34 2e                	xor    $0x2e,%al
 109:	37                   	aaa    
 10a:	2e 32 00             	xor    %cs:(%eax),%al
