
build/stage3.elf:     file format elf32-i386


Disassembly of section .text:

00008000 <code>:
    8000:	ea 05 80 00 00 66 bc 	ljmp   $0xbc66,$0x8005

00008005 <start>:
    8005:	66 bc 00 80          	mov    $0x8000,%sp
	...

0000800b <start.setup_data>:
    800b:	88 16                	mov    %dl,(%esi)
    800d:	68 06 66 a3 6c       	push   $0x6ca36606
    8012:	06                   	push   %es

00008013 <do_e820>:
    8013:	31 ed                	xor    %ebp,%ebp
    8015:	bf 00 08 66 89       	mov    $0x89660800,%edi
    801a:	3e                   	ds
    801b:	60                   	pusha  
    801c:	06                   	push   %es
    801d:	66 31 db             	xor    %bx,%bx
    8020:	66 ba 50 41          	mov    $0x4150,%dx
    8024:	4d                   	dec    %ebp
    8025:	53                   	push   %ebx
    8026:	66 b8 20 e8          	mov    $0xe820,%ax
    802a:	00 00                	add    %al,(%eax)
    802c:	26 66 c7 45 14 01 00 	movw   $0x1,%es:0x14(%ebp)
    8033:	00 00                	add    %al,(%eax)
    8035:	66 b9 18 00          	mov    $0x18,%cx
    8039:	00 00                	add    %al,(%eax)
    803b:	cd 15                	int    $0x15
    803d:	72 5c                	jb     809b <do_e820.failed>
    803f:	66 ba 50 41          	mov    $0x4150,%dx
    8043:	4d                   	dec    %ebp
    8044:	53                   	push   %ebx
    8045:	66 39 d0             	cmp    %dx,%ax
    8048:	75 51                	jne    809b <do_e820.failed>
    804a:	66 85 db             	test   %bx,%bx
    804d:	74 4c                	je     809b <do_e820.failed>
    804f:	eb 1f                	jmp    8070 <do_e820.jmpin>

00008051 <do_e820.e820lp>:
    8051:	66 b8 20 e8          	mov    $0xe820,%ax
    8055:	00 00                	add    %al,(%eax)
    8057:	26 66 c7 45 14 01 00 	movw   $0x1,%es:0x14(%ebp)
    805e:	00 00                	add    %al,(%eax)
    8060:	66 b9 18 00          	mov    $0x18,%cx
    8064:	00 00                	add    %al,(%eax)
    8066:	cd 15                	int    $0x15
    8068:	72 29                	jb     8093 <do_e820.e820f>
    806a:	66 ba 50 41          	mov    $0x4150,%dx
    806e:	4d                   	dec    %ebp
    806f:	53                   	push   %ebx

00008070 <do_e820.jmpin>:
    8070:	e3 1c                	jecxz  808e <do_e820.skipent>
    8072:	80 f9 14             	cmp    $0x14,%cl
    8075:	76 07                	jbe    807e <do_e820.notext>
    8077:	26 f6 45 14 01       	testb  $0x1,%es:0x14(%ebp)
    807c:	74 10                	je     808e <do_e820.skipent>

0000807e <do_e820.notext>:
    807e:	26 66 8b 4d 08       	mov    %es:0x8(%ebp),%cx
    8083:	26 66 0b 4d 0c       	or     %es:0xc(%ebp),%cx
    8088:	74 04                	je     808e <do_e820.skipent>
    808a:	45                   	inc    %ebp
    808b:	83 c7 18             	add    $0x18,%edi

0000808e <do_e820.skipent>:
    808e:	66 85 db             	test   %bx,%bx
    8091:	75 be                	jne    8051 <do_e820.e820lp>

00008093 <do_e820.e820f>:
    8093:	66 89 2e             	mov    %bp,(%esi)
    8096:	64                   	fs
    8097:	06                   	push   %es
    8098:	f8                   	clc    
    8099:	eb 06                	jmp    80a1 <a20_enabled>

0000809b <do_e820.failed>:
    809b:	b8 78 e7 e9 e1       	mov    $0xe1e9e778,%eax
    80a0:	01 e8                	add    %ebp,%eax

000080a1 <a20_enabled>:
    80a1:	e8 7d 00 66 83       	call   83668123 <end+0x8365912f>
    80a6:	f8                   	clc    
    80a7:	01 0f                	add    %ecx,(%edi)
    80a9:	84 9c 00 b8 01 24 cd 	test   %bl,-0x32dbfe48(%eax,%eax,1)

000080ac <a20_bios>:
    80ac:	b8 01 24 cd 15       	mov    $0x15cd2401,%eax
    80b1:	72 0b                	jb     80be <a20_kbc>
    80b3:	e8 6b 00 66 83       	call   83668123 <end+0x8365912f>
    80b8:	f8                   	clc    
    80b9:	01 0f                	add    %ecx,(%edi)
    80bb:	84 8a 00 e8 3e 00    	test   %cl,0x3ee800(%edx)

000080be <a20_kbc>:
    80be:	e8 3e 00 b0 ad       	call   adb08101 <end+0xadaf910d>
    80c3:	e6 64                	out    %al,$0x64
    80c5:	e8 37 00 b0 d0       	call   d0b08101 <end+0xd0af910d>
    80ca:	e6 64                	out    %al,$0x64
    80cc:	e8 29 00 e4 60       	call   60e480fa <end+0x60e39106>
    80d1:	66 50                	push   %ax
    80d3:	e8 29 00 b0 d1       	call   d1b08101 <end+0xd1af910d>
    80d8:	e6 64                	out    %al,$0x64
    80da:	e8 22 00 66 58       	call   58668101 <end+0x5865910d>
    80df:	0c 02                	or     $0x2,%al
    80e1:	e6 60                	out    %al,$0x60
    80e3:	e8 19 00 b0 ae       	call   aeb08101 <end+0xaeaf910d>
    80e8:	e6 64                	out    %al,$0x64
    80ea:	e8 12 00 e8 31       	call   31e88101 <end+0x31e7910d>
    80ef:	00 66 83             	add    %ah,-0x7d(%esi)
    80f2:	f8                   	clc    
    80f3:	01 74 52 eb          	add    %esi,-0x15(%edx,%edx,2)
    80f7:	0e                   	push   %cs

000080f8 <a20_kbc.wait_read>:
    80f8:	e4 64                	in     $0x64,%al
    80fa:	a8 01                	test   $0x1,%al
    80fc:	74 fa                	je     80f8 <a20_kbc.wait_read>
    80fe:	c3                   	ret    

000080ff <a20_kbc.wait_write>:
    80ff:	e4 64                	in     $0x64,%al
    8101:	a8 02                	test   $0x2,%al
    8103:	75 fa                	jne    80ff <a20_kbc.wait_write>
    8105:	c3                   	ret    

00008106 <a20_fast>:
    8106:	e4 92                	in     $0x92,%al
    8108:	a8 02                	test   $0x2,%al
    810a:	75 06                	jne    8112 <a20_fast.after>
    810c:	0c 02                	or     $0x2,%al
    810e:	24 fe                	and    $0xfe,%al
    8110:	e6 92                	out    %al,$0x92

00008112 <a20_fast.after>:
    8112:	e8 0c 00 66 83       	call   83668123 <end+0x8365912f>
    8117:	f8                   	clc    
    8118:	01 74 2d b8          	add    %esi,-0x48(%ebp,%ebp,1)
    811c:	91                   	xchg   %eax,%ecx
    811d:	e7 e9                	out    %eax,$0xe9
    811f:	61                   	popa   
    8120:	01 31                	add    %esi,(%ecx)

00008121 <a20_check>:
    8121:	31 c0                	xor    %eax,%eax
    8123:	f7 d0                	not    %eax
    8125:	8e c0                	mov    %eax,%es
    8127:	26 8b 1e             	mov    %es:(%esi),%ebx
    812a:	0e                   	push   %cs
    812b:	7e 89                	jle    80b6 <a20_bios+0xa>
    812d:	d8 40 a3             	fadds  -0x5d(%eax)
    8130:	fe                   	(bad)  
    8131:	7d 26                	jge    8159 <real_to_pm+0x11>
    8133:	a1 0e 7e 39 d8       	mov    0xd8397e0e,%eax
    8138:	74 07                	je     8141 <a20_check.enabled>
    813a:	66 b8 00 00          	mov    $0x0,%ax
    813e:	00 00                	add    %al,(%eax)
    8140:	c3                   	ret    

00008141 <a20_check.enabled>:
    8141:	66 b8 01 00          	mov    $0x1,%ax
    8145:	00 00                	add    %al,(%eax)
    8147:	c3                   	ret    

00008148 <real_to_pm>:
    8148:	66 b8 00 00          	mov    $0x0,%ax
    814c:	00 00                	add    %al,(%eax)
    814e:	67 c7 80 00 06 00 00 	movl   $0x0,0x600(%bx,%si)
    8155:	00 00 
    8157:	67 c7 80 02 06 00 00 	movl   $0x0,0x602(%bx,%si)
    815e:	00 00 
    8160:	67 c6 80 04 06 00    	movb   $0x0,0x604(%bx,%si)
    8166:	00 00                	add    %al,(%eax)
    8168:	67 c6 80 05 06 00    	movb   $0x0,0x605(%bx,%si)
    816e:	00 00                	add    %al,(%eax)
    8170:	67 c6 80 06 06 00    	movb   $0x0,0x606(%bx,%si)
    8176:	00 00                	add    %al,(%eax)
    8178:	67 c6 80 07 06 00    	movb   $0x0,0x607(%bx,%si)
    817e:	00 00                	add    %al,(%eax)
    8180:	66 b8 08 00          	mov    $0x8,%ax
    8184:	00 00                	add    %al,(%eax)
    8186:	67 c7 80 00 06 00 00 	movl   $0xffff0000,0x600(%bx,%si)
    818d:	ff ff 
    818f:	67 c7 80 02 06 00 00 	movl   $0x0,0x602(%bx,%si)
    8196:	00 00 
    8198:	67 c6 80 04 06 00    	movb   $0x0,0x604(%bx,%si)
    819e:	00 00                	add    %al,(%eax)
    81a0:	67 c6 80 05 06 00    	movb   $0x0,0x605(%bx,%si)
    81a6:	00 9a 67 c6 80 06    	add    %bl,0x680c667(%edx)
    81ac:	06                   	push   %es
    81ad:	00 00                	add    %al,(%eax)
    81af:	cf                   	iret   
    81b0:	67 c6 80 07 06 00    	movb   $0x0,0x607(%bx,%si)
    81b6:	00 00                	add    %al,(%eax)
    81b8:	66 b8 10 00          	mov    $0x10,%ax
    81bc:	00 00                	add    %al,(%eax)
    81be:	67 c7 80 00 06 00 00 	movl   $0xffff0000,0x600(%bx,%si)
    81c5:	ff ff 
    81c7:	67 c7 80 02 06 00 00 	movl   $0x0,0x602(%bx,%si)
    81ce:	00 00 
    81d0:	67 c6 80 04 06 00    	movb   $0x0,0x604(%bx,%si)
    81d6:	00 00                	add    %al,(%eax)
    81d8:	67 c6 80 05 06 00    	movb   $0x0,0x605(%bx,%si)
    81de:	00 92 67 c6 80 06    	add    %dl,0x680c667(%edx)
    81e4:	06                   	push   %es
    81e5:	00 00                	add    %al,(%eax)
    81e7:	cf                   	iret   
    81e8:	67 c6 80 07 06 00    	movb   $0x0,0x607(%bx,%si)
    81ee:	00 00                	add    %al,(%eax)
    81f0:	66 b8 18 00          	mov    $0x18,%ax
    81f4:	00 00                	add    %al,(%eax)
    81f6:	67 c7 80 00 06 00 00 	movl   $0xffff0000,0x600(%bx,%si)
    81fd:	ff ff 
    81ff:	67 c7 80 02 06 00 00 	movl   $0x0,0x602(%bx,%si)
    8206:	00 00 
    8208:	67 c6 80 04 06 00    	movb   $0x0,0x604(%bx,%si)
    820e:	00 00                	add    %al,(%eax)
    8210:	67 c6 80 05 06 00    	movb   $0x0,0x605(%bx,%si)
    8216:	00 9a 67 c6 80 06    	add    %bl,0x680c667(%edx)
    821c:	06                   	push   %es
    821d:	00 00                	add    %al,(%eax)
    821f:	0f 67 c6             	packuswb %mm6,%mm0
    8222:	80 07 06             	addb   $0x6,(%edi)
    8225:	00 00                	add    %al,(%eax)
    8227:	00 66 b8             	add    %ah,-0x48(%esi)
    822a:	20 00                	and    %al,(%eax)
    822c:	00 00                	add    %al,(%eax)
    822e:	67 c7 80 00 06 00 00 	movl   $0xffff0000,0x600(%bx,%si)
    8235:	ff ff 
    8237:	67 c7 80 02 06 00 00 	movl   $0x0,0x602(%bx,%si)
    823e:	00 00 
    8240:	67 c6 80 04 06 00    	movb   $0x0,0x604(%bx,%si)
    8246:	00 00                	add    %al,(%eax)
    8248:	67 c6 80 05 06 00    	movb   $0x0,0x605(%bx,%si)
    824e:	00 92 67 c6 80 06    	add    %dl,0x680c667(%edx)
    8254:	06                   	push   %es
    8255:	00 00                	add    %al,(%eax)
    8257:	0f 67 c6             	packuswb %mm6,%mm0
    825a:	80 07 06             	addb   $0x6,(%edi)
    825d:	00 00                	add    %al,(%eax)
    825f:	00 c7                	add    %al,%bh
    8261:	06                   	push   %es
    8262:	28 06                	sub    %al,(%esi)
    8264:	27                   	daa    
    8265:	00 66 c7             	add    %ah,-0x39(%esi)
    8268:	06                   	push   %es
    8269:	2a 06                	sub    (%esi),%al
    826b:	00 06                	add    %al,(%esi)
    826d:	00 00                	add    %al,(%eax)
    826f:	0f 01 16             	lgdtl  (%esi)
    8272:	28 06                	sub    %al,(%esi)
    8274:	fa                   	cli    
    8275:	0f 20 c0             	mov    %cr0,%eax
    8278:	0c 01                	or     $0x1,%al
    827a:	0f 22 c0             	mov    %eax,%cr0
    827d:	ea 97 82 08 00 89 c5 	ljmp   $0xc589,$0x88297

00008282 <error>:
    8282:	89 c5                	mov    %eax,%ebp
    8284:	b0 01                	mov    $0x1,%al
    8286:	b4 13                	mov    $0x13,%ah
    8288:	b7 00                	mov    $0x0,%bh
    828a:	b3 04                	mov    $0x4,%bl
    828c:	b9 19 00 b6 00       	mov    $0xb60019,%ecx
    8291:	b2 00                	mov    $0x0,%dl
    8293:	cd 10                	int    $0x10
    8295:	eb fe                	jmp    8295 <error+0x13>

00008297 <pm_entry>:
    8297:	66 b8 10 00          	mov    $0x10,%ax
    829b:	8e d8                	mov    %eax,%ds
    829d:	8e c0                	mov    %eax,%es
    829f:	8e e0                	mov    %eax,%fs
    82a1:	8e e8                	mov    %eax,%gs
    82a3:	8e d0                	mov    %eax,%ss
    82a5:	b8 60 06 00 00       	mov    $0x660,%eax
    82aa:	50                   	push   %eax
    82ab:	e8 d0 24 00 00       	call   a780 <bal_main>

000082b0 <acpi_find_table>:
    82b0:	55                   	push   %ebp
    82b1:	57                   	push   %edi
    82b2:	56                   	push   %esi
    82b3:	53                   	push   %ebx
    82b4:	83 ec 5c             	sub    $0x5c,%esp
    82b7:	31 d2                	xor    %edx,%edx
    82b9:	8b 44 24 70          	mov    0x70(%esp),%eax
    82bd:	89 54 24 08          	mov    %edx,0x8(%esp)
    82c1:	89 44 24 04          	mov    %eax,0x4(%esp)
    82c5:	c7 04 24 94 ef 00 00 	movl   $0xef94,(%esp)
    82cc:	89 44 24 48          	mov    %eax,0x48(%esp)
    82d0:	89 54 24 4c          	mov    %edx,0x4c(%esp)
    82d4:	e8 15 47 00 00       	call   c9ee <map_get>
    82d9:	85 c0                	test   %eax,%eax
    82db:	74 13                	je     82f0 <acpi_find_table+0x40>
    82dd:	83 c4 5c             	add    $0x5c,%esp
    82e0:	5b                   	pop    %ebx
    82e1:	5e                   	pop    %esi
    82e2:	5f                   	pop    %edi
    82e3:	5d                   	pop    %ebp
    82e4:	c3                   	ret    
    82e5:	8d 74 26 00          	lea    0x0(%esi,%eiz,1),%esi
    82e9:	8d bc 27 00 00 00 00 	lea    0x0(%edi,%eiz,1),%edi
    82f0:	80 3d 9c ef 00 00 00 	cmpb   $0x0,0xef9c
    82f7:	0f 84 4e 01 00 00    	je     844b <acpi_find_table+0x19b>
    82fd:	8b 1d a0 ef 00 00    	mov    0xefa0,%ebx
    8303:	8b 43 04             	mov    0x4(%ebx),%eax
    8306:	83 e8 24             	sub    $0x24,%eax
    8309:	c1 e8 03             	shr    $0x3,%eax
    830c:	89 44 24 44          	mov    %eax,0x44(%esp)
    8310:	0f 84 5c 02 00 00    	je     8572 <acpi_find_table+0x2c2>
    8316:	8b 2d 30 ef 00 00    	mov    0xef30,%ebp
    831c:	c7 44 24 40 00 00 00 	movl   $0x0,0x40(%esp)
    8323:	00 
    8324:	89 da                	mov    %ebx,%edx
    8326:	8d 76 00             	lea    0x0(%esi),%esi
    8329:	8d bc 27 00 00 00 00 	lea    0x0(%edi,%eiz,1),%edi
    8330:	8b 44 24 40          	mov    0x40(%esp),%eax
    8334:	83 c0 04             	add    $0x4,%eax
    8337:	8b 5c c2 04          	mov    0x4(%edx,%eax,8),%ebx
    833b:	8b 74 c2 08          	mov    0x8(%edx,%eax,8),%esi
    833f:	89 74 24 08          	mov    %esi,0x8(%esp)
    8343:	89 2c 24             	mov    %ebp,(%esp)
    8346:	c7 44 24 0c 06 00 00 	movl   $0x6,0xc(%esp)
    834d:	00 
    834e:	89 5c 24 04          	mov    %ebx,0x4(%esp)
    8352:	e8 79 2e 00 00       	call   b1d0 <map_page>
    8357:	89 d8                	mov    %ebx,%eax
    8359:	25 ff 0f 00 00       	and    $0xfff,%eax
    835e:	89 6c 24 20          	mov    %ebp,0x20(%esp)
    8362:	89 44 24 28          	mov    %eax,0x28(%esp)
    8366:	c7 44 24 2c 00 00 00 	movl   $0x0,0x2c(%esp)
    836d:	00 
    836e:	8b 44 24 28          	mov    0x28(%esp),%eax
    8372:	8b 54 24 2c          	mov    0x2c(%esp),%edx
    8376:	01 44 24 20          	add    %eax,0x20(%esp)
    837a:	c7 44 24 24 00 00 00 	movl   $0x0,0x24(%esp)
    8381:	00 
    8382:	11 54 24 24          	adc    %edx,0x24(%esp)
    8386:	8b 44 24 20          	mov    0x20(%esp),%eax
    838a:	89 da                	mov    %ebx,%edx
    838c:	b9 00 10 00 00       	mov    $0x1000,%ecx
    8391:	81 e2 ff 0f 00 00    	and    $0xfff,%edx
    8397:	89 44 24 30          	mov    %eax,0x30(%esp)
    839b:	29 d1                	sub    %edx,%ecx
    839d:	8b 40 04             	mov    0x4(%eax),%eax
    83a0:	81 c5 00 10 00 00    	add    $0x1000,%ebp
    83a6:	39 c1                	cmp    %eax,%ecx
    83a8:	73 69                	jae    8413 <acpi_find_table+0x163>
    83aa:	81 e3 00 f0 ff ff    	and    $0xfffff000,%ebx
    83b0:	89 74 24 3c          	mov    %esi,0x3c(%esp)
    83b4:	89 5c 24 38          	mov    %ebx,0x38(%esp)
    83b8:	8b 7c 24 3c          	mov    0x3c(%esp),%edi
    83bc:	8b 74 24 38          	mov    0x38(%esp),%esi
    83c0:	81 c6 00 10 00 00    	add    $0x1000,%esi
    83c6:	83 d7 00             	adc    $0x0,%edi
    83c9:	29 c8                	sub    %ecx,%eax
    83cb:	89 44 24 1c          	mov    %eax,0x1c(%esp)
    83cf:	74 42                	je     8413 <acpi_find_table+0x163>
    83d1:	31 db                	xor    %ebx,%ebx
    83d3:	8d b6 00 00 00 00    	lea    0x0(%esi),%esi
    83d9:	8d bc 27 00 00 00 00 	lea    0x0(%edi,%eiz,1),%edi
    83e0:	89 74 24 04          	mov    %esi,0x4(%esp)
    83e4:	89 7c 24 08          	mov    %edi,0x8(%esp)
    83e8:	89 2c 24             	mov    %ebp,(%esp)
    83eb:	c7 44 24 0c 02 00 00 	movl   $0x2,0xc(%esp)
    83f2:	00 
    83f3:	e8 d8 2d 00 00       	call   b1d0 <map_page>
    83f8:	81 c5 00 10 00 00    	add    $0x1000,%ebp
    83fe:	81 c6 00 10 00 00    	add    $0x1000,%esi
    8404:	83 d7 00             	adc    $0x0,%edi
    8407:	81 c3 00 10 00 00    	add    $0x1000,%ebx
    840d:	39 5c 24 1c          	cmp    %ebx,0x1c(%esp)
    8411:	77 cd                	ja     83e0 <acpi_find_table+0x130>
    8413:	8b 44 24 30          	mov    0x30(%esp),%eax
    8417:	8b 7c 24 70          	mov    0x70(%esp),%edi
    841b:	89 2d 30 ef 00 00    	mov    %ebp,0xef30
    8421:	39 38                	cmp    %edi,(%eax)
    8423:	0f 84 9e 01 00 00    	je     85c7 <acpi_find_table+0x317>
    8429:	8b 54 24 40          	mov    0x40(%esp),%edx
    842d:	8b 44 24 44          	mov    0x44(%esp),%eax
    8431:	42                   	inc    %edx
    8432:	89 54 24 40          	mov    %edx,0x40(%esp)
    8436:	39 44 24 40          	cmp    %eax,0x40(%esp)
    843a:	0f 84 32 01 00 00    	je     8572 <acpi_find_table+0x2c2>
    8440:	8b 15 a0 ef 00 00    	mov    0xefa0,%edx
    8446:	e9 e5 fe ff ff       	jmp    8330 <acpi_find_table+0x80>
    844b:	a1 a4 ef 00 00       	mov    0xefa4,%eax
    8450:	8b 78 04             	mov    0x4(%eax),%edi
    8453:	8d 57 dc             	lea    -0x24(%edi),%edx
    8456:	c1 ea 02             	shr    $0x2,%edx
    8459:	89 54 24 38          	mov    %edx,0x38(%esp)
    845d:	0f 84 0f 01 00 00    	je     8572 <acpi_find_table+0x2c2>
    8463:	8b 15 30 ef 00 00    	mov    0xef30,%edx
    8469:	c7 44 24 40 00 00 00 	movl   $0x0,0x40(%esp)
    8470:	00 
    8471:	89 d5                	mov    %edx,%ebp
    8473:	8d b6 00 00 00 00    	lea    0x0(%esi),%esi
    8479:	8d bc 27 00 00 00 00 	lea    0x0(%edi,%eiz,1),%edi
    8480:	8b 7c 24 40          	mov    0x40(%esp),%edi
    8484:	8b 5c b8 24          	mov    0x24(%eax,%edi,4),%ebx
    8488:	89 2c 24             	mov    %ebp,(%esp)
    848b:	c7 44 24 0c 06 00 00 	movl   $0x6,0xc(%esp)
    8492:	00 
    8493:	89 5c 24 04          	mov    %ebx,0x4(%esp)
    8497:	c7 44 24 08 00 00 00 	movl   $0x0,0x8(%esp)
    849e:	00 
    849f:	bf 00 10 00 00       	mov    $0x1000,%edi
    84a4:	e8 27 2d 00 00       	call   b1d0 <map_page>
    84a9:	89 d9                	mov    %ebx,%ecx
    84ab:	81 e1 ff 0f 00 00    	and    $0xfff,%ecx
    84b1:	31 d2                	xor    %edx,%edx
    84b3:	89 4c 24 20          	mov    %ecx,0x20(%esp)
    84b7:	c7 44 24 24 00 00 00 	movl   $0x0,0x24(%esp)
    84be:	00 
    84bf:	01 6c 24 20          	add    %ebp,0x20(%esp)
    84c3:	11 54 24 24          	adc    %edx,0x24(%esp)
    84c7:	8b 44 24 20          	mov    0x20(%esp),%eax
    84cb:	29 cf                	sub    %ecx,%edi
    84cd:	89 44 24 28          	mov    %eax,0x28(%esp)
    84d1:	8b 40 04             	mov    0x4(%eax),%eax
    84d4:	81 c5 00 10 00 00    	add    $0x1000,%ebp
    84da:	89 f9                	mov    %edi,%ecx
    84dc:	39 c7                	cmp    %eax,%edi
    84de:	73 63                	jae    8543 <acpi_find_table+0x293>
    84e0:	81 e3 00 f0 ff ff    	and    $0xfffff000,%ebx
    84e6:	c7 44 24 34 00 00 00 	movl   $0x0,0x34(%esp)
    84ed:	00 
    84ee:	89 5c 24 30          	mov    %ebx,0x30(%esp)
    84f2:	8b 7c 24 34          	mov    0x34(%esp),%edi
    84f6:	8b 74 24 30          	mov    0x30(%esp),%esi
    84fa:	81 c6 00 10 00 00    	add    $0x1000,%esi
    8500:	83 d7 00             	adc    $0x0,%edi
    8503:	29 c8                	sub    %ecx,%eax
    8505:	89 44 24 1c          	mov    %eax,0x1c(%esp)
    8509:	74 38                	je     8543 <acpi_find_table+0x293>
    850b:	31 db                	xor    %ebx,%ebx
    850d:	8d 76 00             	lea    0x0(%esi),%esi
    8510:	89 74 24 04          	mov    %esi,0x4(%esp)
    8514:	89 7c 24 08          	mov    %edi,0x8(%esp)
    8518:	89 2c 24             	mov    %ebp,(%esp)
    851b:	c7 44 24 0c 02 00 00 	movl   $0x2,0xc(%esp)
    8522:	00 
    8523:	e8 a8 2c 00 00       	call   b1d0 <map_page>
    8528:	81 c5 00 10 00 00    	add    $0x1000,%ebp
    852e:	81 c6 00 10 00 00    	add    $0x1000,%esi
    8534:	83 d7 00             	adc    $0x0,%edi
    8537:	81 c3 00 10 00 00    	add    $0x1000,%ebx
    853d:	39 5c 24 1c          	cmp    %ebx,0x1c(%esp)
    8541:	77 cd                	ja     8510 <acpi_find_table+0x260>
    8543:	8b 44 24 28          	mov    0x28(%esp),%eax
    8547:	8b 7c 24 70          	mov    0x70(%esp),%edi
    854b:	89 2d 30 ef 00 00    	mov    %ebp,0xef30
    8551:	39 38                	cmp    %edi,(%eax)
    8553:	74 27                	je     857c <acpi_find_table+0x2cc>
    8555:	8b 44 24 40          	mov    0x40(%esp),%eax
    8559:	40                   	inc    %eax
    855a:	89 44 24 40          	mov    %eax,0x40(%esp)
    855e:	8b 44 24 38          	mov    0x38(%esp),%eax
    8562:	39 44 24 40          	cmp    %eax,0x40(%esp)
    8566:	74 0a                	je     8572 <acpi_find_table+0x2c2>
    8568:	a1 a4 ef 00 00       	mov    0xefa4,%eax
    856d:	e9 0e ff ff ff       	jmp    8480 <acpi_find_table+0x1d0>
    8572:	83 c4 5c             	add    $0x5c,%esp
    8575:	31 c0                	xor    %eax,%eax
    8577:	5b                   	pop    %ebx
    8578:	5e                   	pop    %esi
    8579:	5f                   	pop    %edi
    857a:	5d                   	pop    %ebp
    857b:	c3                   	ret    
    857c:	8b 50 04             	mov    0x4(%eax),%edx
    857f:	85 d2                	test   %edx,%edx
    8581:	74 19                	je     859c <acpi_find_table+0x2ec>
    8583:	31 c9                	xor    %ecx,%ecx
    8585:	31 c0                	xor    %eax,%eax
    8587:	8b 5c 24 20          	mov    0x20(%esp),%ebx
    858b:	90                   	nop
    858c:	8d 74 26 00          	lea    0x0(%esi,%eiz,1),%esi
    8590:	02 0c 18             	add    (%eax,%ebx,1),%cl
    8593:	40                   	inc    %eax
    8594:	39 d0                	cmp    %edx,%eax
    8596:	75 f8                	jne    8590 <acpi_find_table+0x2e0>
    8598:	84 c9                	test   %cl,%cl
    859a:	75 b9                	jne    8555 <acpi_find_table+0x2a5>
    859c:	8b 74 24 28          	mov    0x28(%esp),%esi
    85a0:	8b 7c 24 48          	mov    0x48(%esp),%edi
    85a4:	8b 6c 24 4c          	mov    0x4c(%esp),%ebp
    85a8:	89 74 24 0c          	mov    %esi,0xc(%esp)
    85ac:	89 7c 24 04          	mov    %edi,0x4(%esp)
    85b0:	89 6c 24 08          	mov    %ebp,0x8(%esp)
    85b4:	c7 04 24 94 ef 00 00 	movl   $0xef94,(%esp)
    85bb:	e8 7d 43 00 00       	call   c93d <map_append>
    85c0:	89 f0                	mov    %esi,%eax
    85c2:	e9 16 fd ff ff       	jmp    82dd <acpi_find_table+0x2d>
    85c7:	8b 50 04             	mov    0x4(%eax),%edx
    85ca:	85 d2                	test   %edx,%edx
    85cc:	74 22                	je     85f0 <acpi_find_table+0x340>
    85ce:	31 c9                	xor    %ecx,%ecx
    85d0:	31 c0                	xor    %eax,%eax
    85d2:	8b 5c 24 20          	mov    0x20(%esp),%ebx
    85d6:	8d 76 00             	lea    0x0(%esi),%esi
    85d9:	8d bc 27 00 00 00 00 	lea    0x0(%edi,%eiz,1),%edi
    85e0:	02 0c 18             	add    (%eax,%ebx,1),%cl
    85e3:	40                   	inc    %eax
    85e4:	39 d0                	cmp    %edx,%eax
    85e6:	75 f8                	jne    85e0 <acpi_find_table+0x330>
    85e8:	84 c9                	test   %cl,%cl
    85ea:	0f 85 39 fe ff ff    	jne    8429 <acpi_find_table+0x179>
    85f0:	8b 74 24 30          	mov    0x30(%esp),%esi
    85f4:	eb aa                	jmp    85a0 <acpi_find_table+0x2f0>
    85f6:	8d 76 00             	lea    0x0(%esi),%esi
    85f9:	8d bc 27 00 00 00 00 	lea    0x0(%edi,%eiz,1),%edi

00008600 <acpi_init>:
    8600:	55                   	push   %ebp
    8601:	b9 00 fc 09 00       	mov    $0x9fc00,%ecx
    8606:	89 e5                	mov    %esp,%ebp
    8608:	57                   	push   %edi
    8609:	56                   	push   %esi
    860a:	53                   	push   %ebx
    860b:	83 ec 3c             	sub    $0x3c,%esp
    860e:	eb 0f                	jmp    861f <acpi_init+0x1f>
    8610:	83 c1 10             	add    $0x10,%ecx
    8613:	81 f9 00 00 0a 00    	cmp    $0xa0000,%ecx
    8619:	0f 84 06 03 00 00    	je     8925 <acpi_init+0x325>
    861f:	8b 51 04             	mov    0x4(%ecx),%edx
    8622:	8b 01                	mov    (%ecx),%eax
    8624:	81 f2 50 54 52 20    	xor    $0x20525450,%edx
    862a:	35 52 53 44 20       	xor    $0x20445352,%eax
    862f:	89 ce                	mov    %ecx,%esi
    8631:	09 c2                	or     %eax,%edx
    8633:	75 db                	jne    8610 <acpi_init+0x10>
    8635:	8d 59 14             	lea    0x14(%ecx),%ebx
    8638:	89 c8                	mov    %ecx,%eax
    863a:	31 d2                	xor    %edx,%edx
    863c:	8d 74 26 00          	lea    0x0(%esi,%eiz,1),%esi
    8640:	02 10                	add    (%eax),%dl
    8642:	40                   	inc    %eax
    8643:	39 d8                	cmp    %ebx,%eax
    8645:	75 f9                	jne    8640 <acpi_init+0x40>
    8647:	84 d2                	test   %dl,%dl
    8649:	75 c5                	jne    8610 <acpi_init+0x10>
    864b:	80 79 0f 01          	cmpb   $0x1,0xf(%ecx)
    864f:	0f 86 5b 01 00 00    	jbe    87b0 <acpi_init+0x1b0>
    8655:	31 c0                	xor    %eax,%eax
    8657:	89 f6                	mov    %esi,%esi
    8659:	8d bc 27 00 00 00 00 	lea    0x0(%edi,%eiz,1),%edi
    8660:	02 14 01             	add    (%ecx,%eax,1),%dl
    8663:	40                   	inc    %eax
    8664:	83 f8 24             	cmp    $0x24,%eax
    8667:	75 f7                	jne    8660 <acpi_init+0x60>
    8669:	84 d2                	test   %dl,%dl
    866b:	0f 85 3f 01 00 00    	jne    87b0 <acpi_init+0x1b0>
    8671:	8b 45 08             	mov    0x8(%ebp),%eax
    8674:	c6 05 9c ef 00 00 01 	movb   $0x1,0xef9c
    867b:	89 70 3c             	mov    %esi,0x3c(%eax)
    867e:	8b 46 1c             	mov    0x1c(%esi),%eax
    8681:	8b 5e 18             	mov    0x18(%esi),%ebx
    8684:	8b 3d 30 ef 00 00    	mov    0xef30,%edi
    868a:	89 44 24 08          	mov    %eax,0x8(%esp)
    868e:	89 3c 24             	mov    %edi,(%esp)
    8691:	c7 44 24 0c 06 00 00 	movl   $0x6,0xc(%esp)
    8698:	00 
    8699:	89 5c 24 04          	mov    %ebx,0x4(%esp)
    869d:	89 45 d8             	mov    %eax,-0x28(%ebp)
    86a0:	e8 2b 2b 00 00       	call   b1d0 <map_page>
    86a5:	89 d9                	mov    %ebx,%ecx
    86a7:	81 e1 ff 0f 00 00    	and    $0xfff,%ecx
    86ad:	89 7d d0             	mov    %edi,-0x30(%ebp)
    86b0:	31 d2                	xor    %edx,%edx
    86b2:	01 4d d0             	add    %ecx,-0x30(%ebp)
    86b5:	c7 45 d4 00 00 00 00 	movl   $0x0,-0x2c(%ebp)
    86bc:	8b 45 d0             	mov    -0x30(%ebp),%eax
    86bf:	11 55 d4             	adc    %edx,-0x2c(%ebp)
    86c2:	89 c2                	mov    %eax,%edx
    86c4:	89 45 cc             	mov    %eax,-0x34(%ebp)
    86c7:	89 c8                	mov    %ecx,%eax
    86c9:	b9 00 10 00 00       	mov    $0x1000,%ecx
    86ce:	81 c7 00 10 00 00    	add    $0x1000,%edi
    86d4:	29 c1                	sub    %eax,%ecx
    86d6:	8b 42 04             	mov    0x4(%edx),%eax
    86d9:	89 45 dc             	mov    %eax,-0x24(%ebp)
    86dc:	39 c1                	cmp    %eax,%ecx
    86de:	73 6f                	jae    874f <acpi_init+0x14f>
    86e0:	81 e3 00 f0 ff ff    	and    $0xfffff000,%ebx
    86e6:	8b 55 d8             	mov    -0x28(%ebp),%edx
    86e9:	89 d8                	mov    %ebx,%eax
    86eb:	8b 5d dc             	mov    -0x24(%ebp),%ebx
    86ee:	05 00 10 00 00       	add    $0x1000,%eax
    86f3:	83 d2 00             	adc    $0x0,%edx
    86f6:	29 cb                	sub    %ecx,%ebx
    86f8:	89 5d d8             	mov    %ebx,-0x28(%ebp)
    86fb:	74 52                	je     874f <acpi_init+0x14f>
    86fd:	31 db                	xor    %ebx,%ebx
    86ff:	89 75 c8             	mov    %esi,-0x38(%ebp)
    8702:	89 5d dc             	mov    %ebx,-0x24(%ebp)
    8705:	89 c6                	mov    %eax,%esi
    8707:	89 fb                	mov    %edi,%ebx
    8709:	89 d7                	mov    %edx,%edi
    870b:	90                   	nop
    870c:	8d 74 26 00          	lea    0x0(%esi,%eiz,1),%esi
    8710:	89 74 24 04          	mov    %esi,0x4(%esp)
    8714:	89 7c 24 08          	mov    %edi,0x8(%esp)
    8718:	89 1c 24             	mov    %ebx,(%esp)
    871b:	c7 44 24 0c 02 00 00 	movl   $0x2,0xc(%esp)
    8722:	00 
    8723:	e8 a8 2a 00 00       	call   b1d0 <map_page>
    8728:	81 c3 00 10 00 00    	add    $0x1000,%ebx
    872e:	8b 45 dc             	mov    -0x24(%ebp),%eax
    8731:	81 c6 00 10 00 00    	add    $0x1000,%esi
    8737:	83 d7 00             	adc    $0x0,%edi
    873a:	05 00 10 00 00       	add    $0x1000,%eax
    873f:	89 45 dc             	mov    %eax,-0x24(%ebp)
    8742:	8b 45 dc             	mov    -0x24(%ebp),%eax
    8745:	39 45 d8             	cmp    %eax,-0x28(%ebp)
    8748:	77 c6                	ja     8710 <acpi_init+0x110>
    874a:	8b 75 c8             	mov    -0x38(%ebp),%esi
    874d:	89 df                	mov    %ebx,%edi
    874f:	8b 45 cc             	mov    -0x34(%ebp),%eax
    8752:	89 3d 30 ef 00 00    	mov    %edi,0xef30
    8758:	a3 a0 ef 00 00       	mov    %eax,0xefa0
    875d:	81 38 58 53 44 54    	cmpl   $0x54445358,(%eax)
    8763:	0f 85 25 02 00 00    	jne    898e <acpi_init+0x38e>
    8769:	8b 48 04             	mov    0x4(%eax),%ecx
    876c:	85 c9                	test   %ecx,%ecx
    876e:	74 20                	je     8790 <acpi_init+0x190>
    8770:	31 d2                	xor    %edx,%edx
    8772:	31 c0                	xor    %eax,%eax
    8774:	8b 5d d0             	mov    -0x30(%ebp),%ebx
    8777:	89 f6                	mov    %esi,%esi
    8779:	8d bc 27 00 00 00 00 	lea    0x0(%edi,%eiz,1),%edi
    8780:	02 14 18             	add    (%eax,%ebx,1),%dl
    8783:	40                   	inc    %eax
    8784:	39 c8                	cmp    %ecx,%eax
    8786:	75 f8                	jne    8780 <acpi_init+0x180>
    8788:	84 d2                	test   %dl,%dl
    878a:	0f 85 fe 01 00 00    	jne    898e <acpi_init+0x38e>
    8790:	8b 7d 08             	mov    0x8(%ebp),%edi
    8793:	8b 46 18             	mov    0x18(%esi),%eax
    8796:	8b 56 1c             	mov    0x1c(%esi),%edx
    8799:	89 57 48             	mov    %edx,0x48(%edi)
    879c:	89 47 44             	mov    %eax,0x44(%edi)
    879f:	c7 47 40 00 00 00 00 	movl   $0x0,0x40(%edi)
    87a6:	e9 4c 01 00 00       	jmp    88f7 <acpi_init+0x2f7>
    87ab:	90                   	nop
    87ac:	8d 74 26 00          	lea    0x0(%esi,%eiz,1),%esi
    87b0:	8b 7d 08             	mov    0x8(%ebp),%edi
    87b3:	a0 9c ef 00 00       	mov    0xef9c,%al
    87b8:	84 c0                	test   %al,%al
    87ba:	89 77 3c             	mov    %esi,0x3c(%edi)
    87bd:	0f 85 5b 01 00 00    	jne    891e <acpi_init+0x31e>
    87c3:	8b 46 10             	mov    0x10(%esi),%eax
    87c6:	8b 3d 30 ef 00 00    	mov    0xef30,%edi
    87cc:	89 c3                	mov    %eax,%ebx
    87ce:	89 44 24 04          	mov    %eax,0x4(%esp)
    87d2:	89 3c 24             	mov    %edi,(%esp)
    87d5:	c7 44 24 0c 06 00 00 	movl   $0x6,0xc(%esp)
    87dc:	00 
    87dd:	c7 44 24 08 00 00 00 	movl   $0x0,0x8(%esp)
    87e4:	00 
    87e5:	89 45 dc             	mov    %eax,-0x24(%ebp)
    87e8:	e8 e3 29 00 00       	call   b1d0 <map_page>
    87ed:	89 d9                	mov    %ebx,%ecx
    87ef:	81 e1 ff 0f 00 00    	and    $0xfff,%ecx
    87f5:	31 d2                	xor    %edx,%edx
    87f7:	89 4d d0             	mov    %ecx,-0x30(%ebp)
    87fa:	c7 45 d4 00 00 00 00 	movl   $0x0,-0x2c(%ebp)
    8801:	01 7d d0             	add    %edi,-0x30(%ebp)
    8804:	bb 00 10 00 00       	mov    $0x1000,%ebx
    8809:	11 55 d4             	adc    %edx,-0x2c(%ebp)
    880c:	8b 45 d0             	mov    -0x30(%ebp),%eax
    880f:	89 45 cc             	mov    %eax,-0x34(%ebp)
    8812:	29 cb                	sub    %ecx,%ebx
    8814:	8b 40 04             	mov    0x4(%eax),%eax
    8817:	81 c7 00 10 00 00    	add    $0x1000,%edi
    881d:	89 45 d8             	mov    %eax,-0x28(%ebp)
    8820:	39 c3                	cmp    %eax,%ebx
    8822:	73 78                	jae    889c <acpi_init+0x29c>
    8824:	8b 4d dc             	mov    -0x24(%ebp),%ecx
    8827:	31 d2                	xor    %edx,%edx
    8829:	81 e1 00 f0 ff ff    	and    $0xfffff000,%ecx
    882f:	89 c8                	mov    %ecx,%eax
    8831:	8b 4d d8             	mov    -0x28(%ebp),%ecx
    8834:	05 00 10 00 00       	add    $0x1000,%eax
    8839:	83 d2 00             	adc    $0x0,%edx
    883c:	29 d9                	sub    %ebx,%ecx
    883e:	89 4d d8             	mov    %ecx,-0x28(%ebp)
    8841:	74 59                	je     889c <acpi_init+0x29c>
    8843:	89 d1                	mov    %edx,%ecx
    8845:	89 c2                	mov    %eax,%edx
    8847:	89 75 c8             	mov    %esi,-0x38(%ebp)
    884a:	89 f8                	mov    %edi,%eax
    884c:	31 db                	xor    %ebx,%ebx
    884e:	89 d6                	mov    %edx,%esi
    8850:	89 cf                	mov    %ecx,%edi
    8852:	8d b4 26 00 00 00 00 	lea    0x0(%esi,%eiz,1),%esi
    8859:	8d bc 27 00 00 00 00 	lea    0x0(%edi,%eiz,1),%edi
    8860:	89 74 24 04          	mov    %esi,0x4(%esp)
    8864:	89 7c 24 08          	mov    %edi,0x8(%esp)
    8868:	89 04 24             	mov    %eax,(%esp)
    886b:	c7 44 24 0c 02 00 00 	movl   $0x2,0xc(%esp)
    8872:	00 
    8873:	89 45 dc             	mov    %eax,-0x24(%ebp)
    8876:	e8 55 29 00 00       	call   b1d0 <map_page>
    887b:	8b 45 dc             	mov    -0x24(%ebp),%eax
    887e:	05 00 10 00 00       	add    $0x1000,%eax
    8883:	81 c6 00 10 00 00    	add    $0x1000,%esi
    8889:	83 d7 00             	adc    $0x0,%edi
    888c:	81 c3 00 10 00 00    	add    $0x1000,%ebx
    8892:	39 5d d8             	cmp    %ebx,-0x28(%ebp)
    8895:	77 c9                	ja     8860 <acpi_init+0x260>
    8897:	8b 75 c8             	mov    -0x38(%ebp),%esi
    889a:	89 c7                	mov    %eax,%edi
    889c:	8b 45 cc             	mov    -0x34(%ebp),%eax
    889f:	89 3d 30 ef 00 00    	mov    %edi,0xef30
    88a5:	a3 a4 ef 00 00       	mov    %eax,0xefa4
    88aa:	81 38 52 53 44 54    	cmpl   $0x54445352,(%eax)
    88b0:	0f 85 f8 00 00 00    	jne    89ae <acpi_init+0x3ae>
    88b6:	8b 48 04             	mov    0x4(%eax),%ecx
    88b9:	85 c9                	test   %ecx,%ecx
    88bb:	74 23                	je     88e0 <acpi_init+0x2e0>
    88bd:	31 d2                	xor    %edx,%edx
    88bf:	31 c0                	xor    %eax,%eax
    88c1:	8b 5d d0             	mov    -0x30(%ebp),%ebx
    88c4:	8d b6 00 00 00 00    	lea    0x0(%esi),%esi
    88ca:	8d bf 00 00 00 00    	lea    0x0(%edi),%edi
    88d0:	02 14 18             	add    (%eax,%ebx,1),%dl
    88d3:	40                   	inc    %eax
    88d4:	39 c8                	cmp    %ecx,%eax
    88d6:	75 f8                	jne    88d0 <acpi_init+0x2d0>
    88d8:	84 d2                	test   %dl,%dl
    88da:	0f 85 ce 00 00 00    	jne    89ae <acpi_init+0x3ae>
    88e0:	8b 7d 08             	mov    0x8(%ebp),%edi
    88e3:	8b 46 10             	mov    0x10(%esi),%eax
    88e6:	89 47 40             	mov    %eax,0x40(%edi)
    88e9:	c7 47 44 00 00 00 00 	movl   $0x0,0x44(%edi)
    88f0:	c7 47 48 00 00 00 00 	movl   $0x0,0x48(%edi)
    88f7:	8d 45 e0             	lea    -0x20(%ebp),%eax
    88fa:	89 04 24             	mov    %eax,(%esp)
    88fd:	e8 0a 40 00 00       	call   c90c <map_create>
    8902:	8b 45 e0             	mov    -0x20(%ebp),%eax
    8905:	8b 55 e4             	mov    -0x1c(%ebp),%edx
    8908:	a3 94 ef 00 00       	mov    %eax,0xef94
    890d:	51                   	push   %ecx
    890e:	89 15 98 ef 00 00    	mov    %edx,0xef98
    8914:	31 c0                	xor    %eax,%eax
    8916:	8d 65 f4             	lea    -0xc(%ebp),%esp
    8919:	5b                   	pop    %ebx
    891a:	5e                   	pop    %esi
    891b:	5f                   	pop    %edi
    891c:	5d                   	pop    %ebp
    891d:	c3                   	ret    
    891e:	31 f6                	xor    %esi,%esi
    8920:	e9 59 fd ff ff       	jmp    867e <acpi_init+0x7e>
    8925:	b9 00 00 0e 00       	mov    $0xe0000,%ecx
    892a:	eb 13                	jmp    893f <acpi_init+0x33f>
    892c:	8d 74 26 00          	lea    0x0(%esi,%eiz,1),%esi
    8930:	83 c1 10             	add    $0x10,%ecx
    8933:	81 f9 00 00 10 00    	cmp    $0x100000,%ecx
    8939:	0f 84 8f 00 00 00    	je     89ce <acpi_init+0x3ce>
    893f:	8b 51 04             	mov    0x4(%ecx),%edx
    8942:	8b 01                	mov    (%ecx),%eax
    8944:	81 f2 50 54 52 20    	xor    $0x20525450,%edx
    894a:	35 52 53 44 20       	xor    $0x20445352,%eax
    894f:	89 ce                	mov    %ecx,%esi
    8951:	09 c2                	or     %eax,%edx
    8953:	75 db                	jne    8930 <acpi_init+0x330>
    8955:	8d 59 14             	lea    0x14(%ecx),%ebx
    8958:	89 c8                	mov    %ecx,%eax
    895a:	31 d2                	xor    %edx,%edx
    895c:	8d 74 26 00          	lea    0x0(%esi,%eiz,1),%esi
    8960:	02 10                	add    (%eax),%dl
    8962:	40                   	inc    %eax
    8963:	39 d8                	cmp    %ebx,%eax
    8965:	75 f9                	jne    8960 <acpi_init+0x360>
    8967:	84 d2                	test   %dl,%dl
    8969:	75 c5                	jne    8930 <acpi_init+0x330>
    896b:	80 79 0f 01          	cmpb   $0x1,0xf(%ecx)
    896f:	0f 86 3b fe ff ff    	jbe    87b0 <acpi_init+0x1b0>
    8975:	31 d2                	xor    %edx,%edx
    8977:	31 c0                	xor    %eax,%eax
    8979:	8d b4 26 00 00 00 00 	lea    0x0(%esi,%eiz,1),%esi
    8980:	02 14 01             	add    (%ecx,%eax,1),%dl
    8983:	40                   	inc    %eax
    8984:	83 f8 24             	cmp    $0x24,%eax
    8987:	75 f7                	jne    8980 <acpi_init+0x380>
    8989:	e9 db fc ff ff       	jmp    8669 <acpi_init+0x69>
    898e:	8b 45 08             	mov    0x8(%ebp),%eax
    8991:	c7 40 40 00 00 00 00 	movl   $0x0,0x40(%eax)
    8998:	c7 40 44 00 00 00 00 	movl   $0x0,0x44(%eax)
    899f:	c7 40 48 00 00 00 00 	movl   $0x0,0x48(%eax)
    89a6:	83 c8 ff             	or     $0xffffffff,%eax
    89a9:	e9 68 ff ff ff       	jmp    8916 <acpi_init+0x316>
    89ae:	8b 45 08             	mov    0x8(%ebp),%eax
    89b1:	c7 40 44 00 00 00 00 	movl   $0x0,0x44(%eax)
    89b8:	c7 40 48 00 00 00 00 	movl   $0x0,0x48(%eax)
    89bf:	c7 40 40 00 00 00 00 	movl   $0x0,0x40(%eax)
    89c6:	83 c8 ff             	or     $0xffffffff,%eax
    89c9:	e9 48 ff ff ff       	jmp    8916 <acpi_init+0x316>
    89ce:	83 c8 ff             	or     $0xffffffff,%eax
    89d1:	e9 40 ff ff ff       	jmp    8916 <acpi_init+0x316>
    89d6:	66 90                	xchg   %ax,%ax
    89d8:	66 90                	xchg   %ax,%ax
    89da:	66 90                	xchg   %ax,%ax
    89dc:	66 90                	xchg   %ax,%ax
    89de:	66 90                	xchg   %ax,%ax

000089e0 <memory_numa_domains_detect>:
    89e0:	55                   	push   %ebp
    89e1:	89 e5                	mov    %esp,%ebp
    89e3:	53                   	push   %ebx
    89e4:	83 ec 34             	sub    $0x34,%esp
    89e7:	c7 04 24 53 52 41 54 	movl   $0x54415253,(%esp)
    89ee:	e8 bd f8 ff ff       	call   82b0 <acpi_find_table>
    89f3:	85 c0                	test   %eax,%eax
    89f5:	74 09                	je     8a00 <memory_numa_domains_detect+0x20>
    89f7:	8b 5d fc             	mov    -0x4(%ebp),%ebx
    89fa:	c9                   	leave  
    89fb:	c3                   	ret    
    89fc:	8d 74 26 00          	lea    0x0(%esi,%eiz,1),%esi
    8a00:	8b 45 08             	mov    0x8(%ebp),%eax
    8a03:	8d 5d dc             	lea    -0x24(%ebp),%ebx
    8a06:	8b 00                	mov    (%eax),%eax
    8a08:	89 1c 24             	mov    %ebx,(%esp)
    8a0b:	89 44 24 04          	mov    %eax,0x4(%esp)
    8a0f:	e8 9b 3e 00 00       	call   c8af <list_head>
    8a14:	50                   	push   %eax
    8a15:	89 1c 24             	mov    %ebx,(%esp)
    8a18:	ff 55 ec             	call   *-0x14(%ebp)
    8a1b:	85 c0                	test   %eax,%eax
    8a1d:	74 d8                	je     89f7 <memory_numa_domains_detect+0x17>
    8a1f:	90                   	nop
    8a20:	c7 40 14 00 00 00 00 	movl   $0x0,0x14(%eax)
    8a27:	89 1c 24             	mov    %ebx,(%esp)
    8a2a:	ff 55 e8             	call   *-0x18(%ebp)
    8a2d:	85 c0                	test   %eax,%eax
    8a2f:	75 ef                	jne    8a20 <memory_numa_domains_detect+0x40>
    8a31:	eb c4                	jmp    89f7 <memory_numa_domains_detect+0x17>
    8a33:	66 90                	xchg   %ax,%ax
    8a35:	66 90                	xchg   %ax,%ax
    8a37:	66 90                	xchg   %ax,%ax
    8a39:	66 90                	xchg   %ax,%ax
    8a3b:	66 90                	xchg   %ax,%ax
    8a3d:	66 90                	xchg   %ax,%ax
    8a3f:	90                   	nop

00008a40 <per_cpu_numa_area_alloc>:
    8a40:	55                   	push   %ebp
    8a41:	89 e5                	mov    %esp,%ebp
    8a43:	57                   	push   %edi
    8a44:	56                   	push   %esi
    8a45:	53                   	push   %ebx
    8a46:	83 ec 4c             	sub    $0x4c,%esp
    8a49:	8b 45 08             	mov    0x8(%ebp),%eax
    8a4c:	8b 75 0c             	mov    0xc(%ebp),%esi
    8a4f:	89 70 18             	mov    %esi,0x18(%eax)
    8a52:	c7 04 24 41 50 49 43 	movl   $0x43495041,(%esp)
    8a59:	e8 52 f8 ff ff       	call   82b0 <acpi_find_table>
    8a5e:	89 45 cc             	mov    %eax,-0x34(%ebp)
    8a61:	85 c0                	test   %eax,%eax
    8a63:	0f 84 68 03 00 00    	je     8dd1 <per_cpu_numa_area_alloc+0x391>
    8a69:	8b 45 cc             	mov    -0x34(%ebp),%eax
    8a6c:	8b 58 28             	mov    0x28(%eax),%ebx
    8a6f:	8b 45 08             	mov    0x8(%ebp),%eax
    8a72:	85 db                	test   %ebx,%ebx
    8a74:	0f 85 26 03 00 00    	jne    8da0 <per_cpu_numa_area_alloc+0x360>
    8a7a:	c6 40 4c 00          	movb   $0x0,0x4c(%eax)
    8a7e:	8b 45 08             	mov    0x8(%ebp),%eax
    8a81:	c7 40 20 00 00 00 00 	movl   $0x0,0x20(%eax)
    8a88:	8b 45 cc             	mov    -0x34(%ebp),%eax
    8a8b:	8d 78 2c             	lea    0x2c(%eax),%edi
    8a8e:	83 78 04 2c          	cmpl   $0x2c,0x4(%eax)
    8a92:	0f 84 9b 00 00 00    	je     8b33 <per_cpu_numa_area_alloc+0xf3>
    8a98:	c7 45 d4 00 00 00 00 	movl   $0x0,-0x2c(%ebp)
    8a9f:	90                   	nop
    8aa0:	80 3f 00             	cmpb   $0x0,(%edi)
    8aa3:	75 6a                	jne    8b0f <per_cpu_numa_area_alloc+0xcf>
    8aa5:	31 db                	xor    %ebx,%ebx
    8aa7:	e8 b4 23 00 00       	call   ae60 <pmm_alloc_page>
    8aac:	c7 44 24 0c 06 00 00 	movl   $0x6,0xc(%esp)
    8ab3:	00 
    8ab4:	89 44 24 04          	mov    %eax,0x4(%esp)
    8ab8:	8d 04 33             	lea    (%ebx,%esi,1),%eax
    8abb:	89 54 24 08          	mov    %edx,0x8(%esp)
    8abf:	89 04 24             	mov    %eax,(%esp)
    8ac2:	81 c3 00 10 00 00    	add    $0x1000,%ebx
    8ac8:	e8 03 27 00 00       	call   b1d0 <map_page>
    8acd:	81 fb 00 30 00 00    	cmp    $0x3000,%ebx
    8ad3:	75 d2                	jne    8aa7 <per_cpu_numa_area_alloc+0x67>
    8ad5:	8b 45 08             	mov    0x8(%ebp),%eax
    8ad8:	81 c6 00 30 00 00    	add    $0x3000,%esi
    8ade:	8b 40 20             	mov    0x20(%eax),%eax
    8ae1:	89 86 00 d0 ff ff    	mov    %eax,-0x3000(%esi)
    8ae7:	31 c0                	xor    %eax,%eax
    8ae9:	8a 47 03             	mov    0x3(%edi),%al
    8aec:	89 86 04 d0 ff ff    	mov    %eax,-0x2ffc(%esi)
    8af2:	8b 47 04             	mov    0x4(%edi),%eax
    8af5:	c7 86 38 d0 ff ff 00 	movl   $0x0,-0x2fc8(%esi)
    8afc:	00 00 00 
    8aff:	89 86 0c d0 ff ff    	mov    %eax,-0x2ff4(%esi)
    8b05:	8b 45 08             	mov    0x8(%ebp),%eax
    8b08:	8b 48 20             	mov    0x20(%eax),%ecx
    8b0b:	41                   	inc    %ecx
    8b0c:	89 48 20             	mov    %ecx,0x20(%eax)
    8b0f:	31 c0                	xor    %eax,%eax
    8b11:	8b 55 d4             	mov    -0x2c(%ebp),%edx
    8b14:	8a 47 01             	mov    0x1(%edi),%al
    8b17:	01 c2                	add    %eax,%edx
    8b19:	01 c7                	add    %eax,%edi
    8b1b:	8b 45 cc             	mov    -0x34(%ebp),%eax
    8b1e:	89 55 d4             	mov    %edx,-0x2c(%ebp)
    8b21:	8b 40 04             	mov    0x4(%eax),%eax
    8b24:	89 45 d0             	mov    %eax,-0x30(%ebp)
    8b27:	83 e8 2c             	sub    $0x2c,%eax
    8b2a:	3b 45 d4             	cmp    -0x2c(%ebp),%eax
    8b2d:	0f 87 6d ff ff ff    	ja     8aa0 <per_cpu_numa_area_alloc+0x60>
    8b33:	8b 45 cc             	mov    -0x34(%ebp),%eax
    8b36:	c7 44 24 0c 16 00 00 	movl   $0x16,0xc(%esp)
    8b3d:	00 
    8b3e:	8b 40 24             	mov    0x24(%eax),%eax
    8b41:	c7 44 24 08 00 00 00 	movl   $0x0,0x8(%esp)
    8b48:	00 
    8b49:	89 44 24 04          	mov    %eax,0x4(%esp)
    8b4d:	89 34 24             	mov    %esi,(%esp)
    8b50:	e8 7b 26 00 00       	call   b1d0 <map_page>
    8b55:	8b 45 08             	mov    0x8(%ebp),%eax
    8b58:	89 70 50             	mov    %esi,0x50(%eax)
    8b5b:	8d 86 00 10 00 00    	lea    0x1000(%esi),%eax
    8b61:	89 45 d0             	mov    %eax,-0x30(%ebp)
    8b64:	8b 45 08             	mov    0x8(%ebp),%eax
    8b67:	8b 4d d0             	mov    -0x30(%ebp),%ecx
    8b6a:	89 48 1c             	mov    %ecx,0x1c(%eax)
    8b6d:	c7 04 24 53 52 41 54 	movl   $0x54415253,(%esp)
    8b74:	e8 37 f7 ff ff       	call   82b0 <acpi_find_table>
    8b79:	89 c7                	mov    %eax,%edi
    8b7b:	85 c0                	test   %eax,%eax
    8b7d:	0f 84 8d 01 00 00    	je     8d10 <per_cpu_numa_area_alloc+0x2d0>
    8b83:	8d 45 e0             	lea    -0x20(%ebp),%eax
    8b86:	89 04 24             	mov    %eax,(%esp)
    8b89:	e8 7e 3d 00 00       	call   c90c <map_create>
    8b8e:	8b 45 08             	mov    0x8(%ebp),%eax
    8b91:	8d 4f 30             	lea    0x30(%edi),%ecx
    8b94:	c7 45 d4 00 00 00 00 	movl   $0x0,-0x2c(%ebp)
    8b9b:	53                   	push   %ebx
    8b9c:	c7 40 24 00 00 00 00 	movl   $0x0,0x24(%eax)
    8ba3:	83 7f 04 30          	cmpl   $0x30,0x4(%edi)
    8ba7:	0f 84 ea 01 00 00    	je     8d97 <per_cpu_numa_area_alloc+0x357>
    8bad:	89 cb                	mov    %ecx,%ebx
    8baf:	89 f9                	mov    %edi,%ecx
    8bb1:	eb 2b                	jmp    8bde <per_cpu_numa_area_alloc+0x19e>
    8bb3:	8d b6 00 00 00 00    	lea    0x0(%esi),%esi
    8bb9:	8d bc 27 00 00 00 00 	lea    0x0(%edi,%eiz,1),%edi
    8bc0:	31 c0                	xor    %eax,%eax
    8bc2:	8b 55 d4             	mov    -0x2c(%ebp),%edx
    8bc5:	8a 43 01             	mov    0x1(%ebx),%al
    8bc8:	01 c2                	add    %eax,%edx
    8bca:	01 c3                	add    %eax,%ebx
    8bcc:	8b 41 04             	mov    0x4(%ecx),%eax
    8bcf:	89 55 d4             	mov    %edx,-0x2c(%ebp)
    8bd2:	83 e8 30             	sub    $0x30,%eax
    8bd5:	3b 45 d4             	cmp    -0x2c(%ebp),%eax
    8bd8:	0f 86 b9 01 00 00    	jbe    8d97 <per_cpu_numa_area_alloc+0x357>
    8bde:	80 3b 00             	cmpb   $0x0,(%ebx)
    8be1:	75 dd                	jne    8bc0 <per_cpu_numa_area_alloc+0x180>
    8be3:	31 c0                	xor    %eax,%eax
    8be5:	31 d2                	xor    %edx,%edx
    8be7:	8a 43 09             	mov    0x9(%ebx),%al
    8bea:	8a 53 0a             	mov    0xa(%ebx),%dl
    8bed:	c1 e2 10             	shl    $0x10,%edx
    8bf0:	89 4d cc             	mov    %ecx,-0x34(%ebp)
    8bf3:	c1 e0 18             	shl    $0x18,%eax
    8bf6:	09 d0                	or     %edx,%eax
    8bf8:	31 d2                	xor    %edx,%edx
    8bfa:	8a 53 02             	mov    0x2(%ebx),%dl
    8bfd:	09 d0                	or     %edx,%eax
    8bff:	31 d2                	xor    %edx,%edx
    8c01:	8a 53 0b             	mov    0xb(%ebx),%dl
    8c04:	c1 e2 08             	shl    $0x8,%edx
    8c07:	09 d0                	or     %edx,%eax
    8c09:	31 d2                	xor    %edx,%edx
    8c0b:	89 45 c0             	mov    %eax,-0x40(%ebp)
    8c0e:	89 44 24 04          	mov    %eax,0x4(%esp)
    8c12:	8d 45 e0             	lea    -0x20(%ebp),%eax
    8c15:	89 54 24 08          	mov    %edx,0x8(%esp)
    8c19:	89 04 24             	mov    %eax,(%esp)
    8c1c:	89 55 c4             	mov    %edx,-0x3c(%ebp)
    8c1f:	e8 ca 3d 00 00       	call   c9ee <map_get>
    8c24:	8b 4d cc             	mov    -0x34(%ebp),%ecx
    8c27:	85 c0                	test   %eax,%eax
    8c29:	0f 85 88 00 00 00    	jne    8cb7 <per_cpu_numa_area_alloc+0x277>
    8c2f:	8b 75 d0             	mov    -0x30(%ebp),%esi
    8c32:	31 ff                	xor    %edi,%edi
    8c34:	e8 27 22 00 00       	call   ae60 <pmm_alloc_page>
    8c39:	89 34 24             	mov    %esi,(%esp)
    8c3c:	89 44 24 04          	mov    %eax,0x4(%esp)
    8c40:	89 54 24 08          	mov    %edx,0x8(%esp)
    8c44:	c7 44 24 0c 06 00 00 	movl   $0x6,0xc(%esp)
    8c4b:	00 
    8c4c:	81 c7 00 10 00 00    	add    $0x1000,%edi
    8c52:	e8 79 25 00 00       	call   b1d0 <map_page>
    8c57:	89 34 24             	mov    %esi,(%esp)
    8c5a:	c7 44 24 08 00 10 00 	movl   $0x1000,0x8(%esp)
    8c61:	00 
    8c62:	c7 44 24 04 00 00 00 	movl   $0x0,0x4(%esp)
    8c69:	00 
    8c6a:	e8 a9 35 00 00       	call   c218 <memset>
    8c6f:	81 c6 00 10 00 00    	add    $0x1000,%esi
    8c75:	81 ff 00 40 00 00    	cmp    $0x4000,%edi
    8c7b:	75 b7                	jne    8c34 <per_cpu_numa_area_alloc+0x1f4>
    8c7d:	8b 45 c0             	mov    -0x40(%ebp),%eax
    8c80:	8b 7d d0             	mov    -0x30(%ebp),%edi
    8c83:	8b 55 c4             	mov    -0x3c(%ebp),%edx
    8c86:	89 44 24 04          	mov    %eax,0x4(%esp)
    8c8a:	8d 45 e0             	lea    -0x20(%ebp),%eax
    8c8d:	89 7c 24 0c          	mov    %edi,0xc(%esp)
    8c91:	89 04 24             	mov    %eax,(%esp)
    8c94:	89 54 24 08          	mov    %edx,0x8(%esp)
    8c98:	e8 a0 3c 00 00       	call   c93d <map_append>
    8c9d:	8b 45 08             	mov    0x8(%ebp),%eax
    8ca0:	8b 48 24             	mov    0x24(%eax),%ecx
    8ca3:	41                   	inc    %ecx
    8ca4:	89 48 24             	mov    %ecx,0x24(%eax)
    8ca7:	89 f9                	mov    %edi,%ecx
    8ca9:	81 c1 00 40 00 00    	add    $0x4000,%ecx
    8caf:	89 f8                	mov    %edi,%eax
    8cb1:	89 4d d0             	mov    %ecx,-0x30(%ebp)
    8cb4:	8b 4d cc             	mov    -0x34(%ebp),%ecx
    8cb7:	8b 7d 08             	mov    0x8(%ebp),%edi
    8cba:	0f b6 73 03          	movzbl 0x3(%ebx),%esi
    8cbe:	8b 57 18             	mov    0x18(%edi),%edx
    8cc1:	81 e6 ff 00 00 00    	and    $0xff,%esi
    8cc7:	39 32                	cmp    %esi,(%edx)
    8cc9:	0f 84 70 01 00 00    	je     8e3f <per_cpu_numa_area_alloc+0x3ff>
    8ccf:	8b 7f 50             	mov    0x50(%edi),%edi
    8cd2:	8d b4 26 00 00 00 00 	lea    0x0(%esi,%eiz,1),%esi
    8cd9:	8d bc 27 00 00 00 00 	lea    0x0(%edi,%eiz,1),%edi
    8ce0:	39 fa                	cmp    %edi,%edx
    8ce2:	0f 83 d8 fe ff ff    	jae    8bc0 <per_cpu_numa_area_alloc+0x180>
    8ce8:	81 c2 00 30 00 00    	add    $0x3000,%edx
    8cee:	39 32                	cmp    %esi,(%edx)
    8cf0:	75 ee                	jne    8ce0 <per_cpu_numa_area_alloc+0x2a0>
    8cf2:	39 fa                	cmp    %edi,%edx
    8cf4:	0f 83 c6 fe ff ff    	jae    8bc0 <per_cpu_numa_area_alloc+0x180>
    8cfa:	89 42 08             	mov    %eax,0x8(%edx)
    8cfd:	e9 be fe ff ff       	jmp    8bc0 <per_cpu_numa_area_alloc+0x180>
    8d02:	8d b4 26 00 00 00 00 	lea    0x0(%esi,%eiz,1),%esi
    8d09:	8d bc 27 00 00 00 00 	lea    0x0(%edi,%eiz,1),%edi
    8d10:	8b 5d d0             	mov    -0x30(%ebp),%ebx
    8d13:	31 f6                	xor    %esi,%esi
    8d15:	e8 46 21 00 00       	call   ae60 <pmm_alloc_page>
    8d1a:	89 1c 24             	mov    %ebx,(%esp)
    8d1d:	89 44 24 04          	mov    %eax,0x4(%esp)
    8d21:	89 54 24 08          	mov    %edx,0x8(%esp)
    8d25:	c7 44 24 0c 06 00 00 	movl   $0x6,0xc(%esp)
    8d2c:	00 
    8d2d:	81 c6 00 10 00 00    	add    $0x1000,%esi
    8d33:	e8 98 24 00 00       	call   b1d0 <map_page>
    8d38:	89 1c 24             	mov    %ebx,(%esp)
    8d3b:	c7 44 24 08 00 10 00 	movl   $0x1000,0x8(%esp)
    8d42:	00 
    8d43:	c7 44 24 04 00 00 00 	movl   $0x0,0x4(%esp)
    8d4a:	00 
    8d4b:	e8 c8 34 00 00       	call   c218 <memset>
    8d50:	81 c3 00 10 00 00    	add    $0x1000,%ebx
    8d56:	81 fe 00 40 00 00    	cmp    $0x4000,%esi
    8d5c:	75 b7                	jne    8d15 <per_cpu_numa_area_alloc+0x2d5>
    8d5e:	8b 45 08             	mov    0x8(%ebp),%eax
    8d61:	8b 4d 08             	mov    0x8(%ebp),%ecx
    8d64:	8b 40 18             	mov    0x18(%eax),%eax
    8d67:	39 41 50             	cmp    %eax,0x50(%ecx)
    8d6a:	76 21                	jbe    8d8d <per_cpu_numa_area_alloc+0x34d>
    8d6c:	8b 55 d0             	mov    -0x30(%ebp),%edx
    8d6f:	8b 4d 08             	mov    0x8(%ebp),%ecx
    8d72:	8d b4 26 00 00 00 00 	lea    0x0(%esi,%eiz,1),%esi
    8d79:	8d bc 27 00 00 00 00 	lea    0x0(%edi,%eiz,1),%edi
    8d80:	89 50 08             	mov    %edx,0x8(%eax)
    8d83:	05 00 30 00 00       	add    $0x3000,%eax
    8d88:	3b 41 50             	cmp    0x50(%ecx),%eax
    8d8b:	72 f3                	jb     8d80 <per_cpu_numa_area_alloc+0x340>
    8d8d:	8b 45 08             	mov    0x8(%ebp),%eax
    8d90:	c7 40 24 01 00 00 00 	movl   $0x1,0x24(%eax)
    8d97:	8d 65 f4             	lea    -0xc(%ebp),%esp
    8d9a:	5b                   	pop    %ebx
    8d9b:	5e                   	pop    %esi
    8d9c:	5f                   	pop    %edi
    8d9d:	5d                   	pop    %ebp
    8d9e:	c3                   	ret    
    8d9f:	90                   	nop
    8da0:	c6 40 4c 01          	movb   $0x1,0x4c(%eax)
    8da4:	c7 44 24 04 ff 00 00 	movl   $0xff,0x4(%esp)
    8dab:	00 
    8dac:	c7 04 24 a1 00 00 00 	movl   $0xa1,(%esp)
    8db3:	e8 fa 3c 00 00       	call   cab2 <outportb>
    8db8:	c7 44 24 04 ff 00 00 	movl   $0xff,0x4(%esp)
    8dbf:	00 
    8dc0:	c7 04 24 21 00 00 00 	movl   $0x21,(%esp)
    8dc7:	e8 e6 3c 00 00       	call   cab2 <outportb>
    8dcc:	e9 ad fc ff ff       	jmp    8a7e <per_cpu_numa_area_alloc+0x3e>
    8dd1:	31 db                	xor    %ebx,%ebx
    8dd3:	e8 88 20 00 00       	call   ae60 <pmm_alloc_page>
    8dd8:	c7 44 24 0c 06 00 00 	movl   $0x6,0xc(%esp)
    8ddf:	00 
    8de0:	89 44 24 04          	mov    %eax,0x4(%esp)
    8de4:	8d 04 33             	lea    (%ebx,%esi,1),%eax
    8de7:	89 54 24 08          	mov    %edx,0x8(%esp)
    8deb:	89 04 24             	mov    %eax,(%esp)
    8dee:	81 c3 00 10 00 00    	add    $0x1000,%ebx
    8df4:	e8 d7 23 00 00       	call   b1d0 <map_page>
    8df9:	81 fb 00 30 00 00    	cmp    $0x3000,%ebx
    8dff:	75 d2                	jne    8dd3 <per_cpu_numa_area_alloc+0x393>
    8e01:	8d 86 00 30 00 00    	lea    0x3000(%esi),%eax
    8e07:	c7 06 00 00 00 00    	movl   $0x0,(%esi)
    8e0d:	89 45 d0             	mov    %eax,-0x30(%ebp)
    8e10:	8b 45 08             	mov    0x8(%ebp),%eax
    8e13:	c7 46 04 00 00 00 00 	movl   $0x0,0x4(%esi)
    8e1a:	c7 46 0c 01 00 00 00 	movl   $0x1,0xc(%esi)
    8e21:	c7 46 38 00 00 00 00 	movl   $0x0,0x38(%esi)
    8e28:	c7 40 20 01 00 00 00 	movl   $0x1,0x20(%eax)
    8e2f:	c6 40 4c 01          	movb   $0x1,0x4c(%eax)
    8e33:	c7 40 50 00 00 00 00 	movl   $0x0,0x50(%eax)
    8e3a:	e9 25 fd ff ff       	jmp    8b64 <per_cpu_numa_area_alloc+0x124>
    8e3f:	8b 7d 08             	mov    0x8(%ebp),%edi
    8e42:	8b 7f 50             	mov    0x50(%edi),%edi
    8e45:	e9 a8 fe ff ff       	jmp    8cf2 <per_cpu_numa_area_alloc+0x2b2>
    8e4a:	66 90                	xchg   %ax,%ax
    8e4c:	66 90                	xchg   %ax,%ax
    8e4e:	66 90                	xchg   %ax,%ax

00008e50 <read_inode>:
    8e50:	55                   	push   %ebp
    8e51:	57                   	push   %edi
    8e52:	56                   	push   %esi
    8e53:	53                   	push   %ebx
    8e54:	83 ec 5c             	sub    $0x5c,%esp
    8e57:	89 c6                	mov    %eax,%esi
    8e59:	8b 58 60             	mov    0x60(%eax),%ebx
    8e5c:	8d 41 ff             	lea    -0x1(%ecx),%eax
    8e5f:	89 54 24 2c          	mov    %edx,0x2c(%esp)
    8e63:	31 d2                	xor    %edx,%edx
    8e65:	89 44 24 24          	mov    %eax,0x24(%esp)
    8e69:	8b 4b 18             	mov    0x18(%ebx),%ecx
    8e6c:	f7 73 28             	divl   0x28(%ebx)
    8e6f:	8b 7e 5c             	mov    0x5c(%esi),%edi
    8e72:	31 d2                	xor    %edx,%edx
    8e74:	c1 e0 05             	shl    $0x5,%eax
    8e77:	f7 f1                	div    %ecx
    8e79:	8b 6f 14             	mov    0x14(%edi),%ebp
    8e7c:	89 44 24 20          	mov    %eax,0x20(%esp)
    8e80:	89 54 24 28          	mov    %edx,0x28(%esp)
    8e84:	89 c8                	mov    %ecx,%eax
    8e86:	31 d2                	xor    %edx,%edx
    8e88:	c7 44 24 14 00 00 00 	movl   $0x0,0x14(%esp)
    8e8f:	00 
    8e90:	f7 f5                	div    %ebp
    8e92:	89 44 24 10          	mov    %eax,0x10(%esp)
    8e96:	8b 54 24 20          	mov    0x20(%esp),%edx
    8e9a:	8b 43 14             	mov    0x14(%ebx),%eax
    8e9d:	c7 44 24 0c 00 00 00 	movl   $0x0,0xc(%esp)
    8ea4:	00 
    8ea5:	8d 44 02 01          	lea    0x1(%edx,%eax,1),%eax
    8ea9:	31 d2                	xor    %edx,%edx
    8eab:	0f af c1             	imul   %ecx,%eax
    8eae:	f7 f5                	div    %ebp
    8eb0:	89 44 24 08          	mov    %eax,0x8(%esp)
    8eb4:	8b 83 ec 00 00 00    	mov    0xec(%ebx),%eax
    8eba:	89 3c 24             	mov    %edi,(%esp)
    8ebd:	89 44 24 04          	mov    %eax,0x4(%esp)
    8ec1:	e8 5a 25 00 00       	call   b420 <blockdev_read>
    8ec6:	89 c1                	mov    %eax,%ecx
    8ec8:	89 d5                	mov    %edx,%ebp
    8eca:	8b 43 18             	mov    0x18(%ebx),%eax
    8ecd:	31 d2                	xor    %edx,%edx
    8ecf:	f7 77 14             	divl   0x14(%edi)
    8ed2:	31 c1                	xor    %eax,%ecx
    8ed4:	09 cd                	or     %ecx,%ebp
    8ed6:	0f 85 e4 00 00 00    	jne    8fc0 <read_inode+0x170>
    8edc:	c7 44 24 08 20 00 00 	movl   $0x20,0x8(%esp)
    8ee3:	00 
    8ee4:	8b 6c 24 28          	mov    0x28(%esp),%ebp
    8ee8:	8b 93 ec 00 00 00    	mov    0xec(%ebx),%edx
    8eee:	8d 44 24 30          	lea    0x30(%esp),%eax
    8ef2:	01 d5                	add    %edx,%ebp
    8ef4:	89 04 24             	mov    %eax,(%esp)
    8ef7:	89 6c 24 04          	mov    %ebp,0x4(%esp)
    8efb:	e8 a0 32 00 00       	call   c1a0 <memcpy>
    8f00:	8b 44 24 24          	mov    0x24(%esp),%eax
    8f04:	31 d2                	xor    %edx,%edx
    8f06:	8b 7b 18             	mov    0x18(%ebx),%edi
    8f09:	f7 73 28             	divl   0x28(%ebx)
    8f0c:	31 c0                	xor    %eax,%eax
    8f0e:	8b 6e 60             	mov    0x60(%esi),%ebp
    8f11:	66 8b 43 58          	mov    0x58(%ebx),%ax
    8f15:	89 7c 24 24          	mov    %edi,0x24(%esp)
    8f19:	0f af c2             	imul   %edx,%eax
    8f1c:	8b 7e 5c             	mov    0x5c(%esi),%edi
    8f1f:	8b 75 18             	mov    0x18(%ebp),%esi
    8f22:	89 44 24 20          	mov    %eax,0x20(%esp)
    8f26:	31 d2                	xor    %edx,%edx
    8f28:	8b 4f 14             	mov    0x14(%edi),%ecx
    8f2b:	89 f0                	mov    %esi,%eax
    8f2d:	f7 f1                	div    %ecx
    8f2f:	89 44 24 10          	mov    %eax,0x10(%esp)
    8f33:	31 d2                	xor    %edx,%edx
    8f35:	8b 44 24 20          	mov    0x20(%esp),%eax
    8f39:	c7 44 24 14 00 00 00 	movl   $0x0,0x14(%esp)
    8f40:	00 
    8f41:	f7 74 24 24          	divl   0x24(%esp)
    8f45:	89 54 24 20          	mov    %edx,0x20(%esp)
    8f49:	8b 54 24 38          	mov    0x38(%esp),%edx
    8f4d:	01 d0                	add    %edx,%eax
    8f4f:	31 d2                	xor    %edx,%edx
    8f51:	0f af c6             	imul   %esi,%eax
    8f54:	f7 f1                	div    %ecx
    8f56:	89 44 24 08          	mov    %eax,0x8(%esp)
    8f5a:	c7 44 24 0c 00 00 00 	movl   $0x0,0xc(%esp)
    8f61:	00 
    8f62:	8b 83 ec 00 00 00    	mov    0xec(%ebx),%eax
    8f68:	89 3c 24             	mov    %edi,(%esp)
    8f6b:	89 44 24 04          	mov    %eax,0x4(%esp)
    8f6f:	e8 ac 24 00 00       	call   b420 <blockdev_read>
    8f74:	89 c1                	mov    %eax,%ecx
    8f76:	89 d6                	mov    %edx,%esi
    8f78:	8b 45 18             	mov    0x18(%ebp),%eax
    8f7b:	31 d2                	xor    %edx,%edx
    8f7d:	f7 77 14             	divl   0x14(%edi)
    8f80:	31 c1                	xor    %eax,%ecx
    8f82:	09 ce                	or     %ecx,%esi
    8f84:	75 3a                	jne    8fc0 <read_inode+0x170>
    8f86:	31 c0                	xor    %eax,%eax
    8f88:	8b 4c 24 20          	mov    0x20(%esp),%ecx
    8f8c:	66 8b 43 58          	mov    0x58(%ebx),%ax
    8f90:	89 44 24 08          	mov    %eax,0x8(%esp)
    8f94:	8b 83 ec 00 00 00    	mov    0xec(%ebx),%eax
    8f9a:	01 c1                	add    %eax,%ecx
    8f9c:	8b 44 24 2c          	mov    0x2c(%esp),%eax
    8fa0:	89 4c 24 04          	mov    %ecx,0x4(%esp)
    8fa4:	89 04 24             	mov    %eax,(%esp)
    8fa7:	e8 f4 31 00 00       	call   c1a0 <memcpy>
    8fac:	83 c4 5c             	add    $0x5c,%esp
    8faf:	31 c0                	xor    %eax,%eax
    8fb1:	5b                   	pop    %ebx
    8fb2:	5e                   	pop    %esi
    8fb3:	5f                   	pop    %edi
    8fb4:	5d                   	pop    %ebp
    8fb5:	c3                   	ret    
    8fb6:	8d 76 00             	lea    0x0(%esi),%esi
    8fb9:	8d bc 27 00 00 00 00 	lea    0x0(%edi,%eiz,1),%edi
    8fc0:	83 c4 5c             	add    $0x5c,%esp
    8fc3:	83 c8 ff             	or     $0xffffffff,%eax
    8fc6:	5b                   	pop    %ebx
    8fc7:	5e                   	pop    %esi
    8fc8:	5f                   	pop    %edi
    8fc9:	5d                   	pop    %ebp
    8fca:	c3                   	ret    
    8fcb:	90                   	nop
    8fcc:	8d 74 26 00          	lea    0x0(%esi,%eiz,1),%esi

00008fd0 <ext2_filesystem_init>:
    8fd0:	55                   	push   %ebp
    8fd1:	89 e5                	mov    %esp,%ebp
    8fd3:	57                   	push   %edi
    8fd4:	56                   	push   %esi
    8fd5:	53                   	push   %ebx
    8fd6:	83 ec 3c             	sub    $0x3c,%esp
    8fd9:	8b 7d 0c             	mov    0xc(%ebp),%edi
    8fdc:	8b 75 08             	mov    0x8(%ebp),%esi
    8fdf:	c7 04 24 00 04 00 00 	movl   $0x400,(%esp)
    8fe6:	e8 35 23 00 00       	call   b320 <malloc>
    8feb:	31 d2                	xor    %edx,%edx
    8fed:	89 c3                	mov    %eax,%ebx
    8fef:	b8 00 04 00 00       	mov    $0x400,%eax
    8ff4:	f7 77 14             	divl   0x14(%edi)
    8ff7:	31 d2                	xor    %edx,%edx
    8ff9:	89 44 24 10          	mov    %eax,0x10(%esp)
    8ffd:	89 54 24 14          	mov    %edx,0x14(%esp)
    9001:	89 44 24 08          	mov    %eax,0x8(%esp)
    9005:	89 54 24 0c          	mov    %edx,0xc(%esp)
    9009:	89 5c 24 04          	mov    %ebx,0x4(%esp)
    900d:	89 3c 24             	mov    %edi,(%esp)
    9010:	e8 0b 24 00 00       	call   b420 <blockdev_read>
    9015:	89 45 d4             	mov    %eax,-0x2c(%ebp)
    9018:	89 d1                	mov    %edx,%ecx
    901a:	b8 00 04 00 00       	mov    $0x400,%eax
    901f:	31 d2                	xor    %edx,%edx
    9021:	f7 77 14             	divl   0x14(%edi)
    9024:	8b 55 d4             	mov    -0x2c(%ebp),%edx
    9027:	31 d0                	xor    %edx,%eax
    9029:	09 c1                	or     %eax,%ecx
    902b:	0f 85 1f 01 00 00    	jne    9150 <ext2_filesystem_init+0x180>
    9031:	66 81 7b 38 53 ef    	cmpw   $0xef53,0x38(%ebx)
    9037:	0f 85 13 01 00 00    	jne    9150 <ext2_filesystem_init+0x180>
    903d:	8b 4b 18             	mov    0x18(%ebx),%ecx
    9040:	b8 00 04 00 00       	mov    $0x400,%eax
    9045:	d3 e0                	shl    %cl,%eax
    9047:	89 c1                	mov    %eax,%ecx
    9049:	89 43 18             	mov    %eax,0x18(%ebx)
    904c:	8b 43 4c             	mov    0x4c(%ebx),%eax
    904f:	85 c0                	test   %eax,%eax
    9051:	75 06                	jne    9059 <ext2_filesystem_init+0x89>
    9053:	66 c7 43 58 80 00    	movw   $0x80,0x58(%ebx)
    9059:	89 0c 24             	mov    %ecx,(%esp)
    905c:	e8 bf 22 00 00       	call   b320 <malloc>
    9061:	89 83 ec 00 00 00    	mov    %eax,0xec(%ebx)
    9067:	31 c0                	xor    %eax,%eax
    9069:	66 8b 43 58          	mov    0x58(%ebx),%ax
    906d:	89 5e 60             	mov    %ebx,0x60(%esi)
    9070:	89 04 24             	mov    %eax,(%esp)
    9073:	e8 a8 22 00 00       	call   b320 <malloc>
    9078:	b9 02 00 00 00       	mov    $0x2,%ecx
    907d:	89 c2                	mov    %eax,%edx
    907f:	89 c3                	mov    %eax,%ebx
    9081:	89 f0                	mov    %esi,%eax
    9083:	e8 c8 fd ff ff       	call   8e50 <read_inode>
    9088:	85 c0                	test   %eax,%eax
    908a:	74 14                	je     90a0 <ext2_filesystem_init+0xd0>
    908c:	8d 65 f4             	lea    -0xc(%ebp),%esp
    908f:	5b                   	pop    %ebx
    9090:	5e                   	pop    %esi
    9091:	5f                   	pop    %edi
    9092:	5d                   	pop    %ebp
    9093:	c3                   	ret    
    9094:	8d b6 00 00 00 00    	lea    0x0(%esi),%esi
    909a:	8d bf 00 00 00 00    	lea    0x0(%edi),%edi
    90a0:	8d 55 e0             	lea    -0x20(%ebp),%edx
    90a3:	c7 46 04 3c ef 00 00 	movl   $0xef3c,0x4(%esi)
    90aa:	89 76 08             	mov    %esi,0x8(%esi)
    90ad:	89 14 24             	mov    %edx,(%esp)
    90b0:	89 45 d4             	mov    %eax,-0x2c(%ebp)
    90b3:	e8 7c 36 00 00       	call   c734 <list_create>
    90b8:	8b 55 e4             	mov    -0x1c(%ebp),%edx
    90bb:	8b 45 e0             	mov    -0x20(%ebp),%eax
    90be:	51                   	push   %ecx
    90bf:	89 56 10             	mov    %edx,0x10(%esi)
    90c2:	8d 55 d8             	lea    -0x28(%ebp),%edx
    90c5:	89 46 0c             	mov    %eax,0xc(%esi)
    90c8:	89 14 24             	mov    %edx,(%esp)
    90cb:	e8 4c 34 00 00       	call   c51c <dict_create>
    90d0:	8b 55 dc             	mov    -0x24(%ebp),%edx
    90d3:	8b 45 d8             	mov    -0x28(%ebp),%eax
    90d6:	57                   	push   %edi
    90d7:	89 56 18             	mov    %edx,0x18(%esi)
    90da:	31 d2                	xor    %edx,%edx
    90dc:	89 46 14             	mov    %eax,0x14(%esi)
    90df:	66 8b 53 1a          	mov    0x1a(%ebx),%dx
    90e3:	8b 43 04             	mov    0x4(%ebx),%eax
    90e6:	89 56 2c             	mov    %edx,0x2c(%esi)
    90e9:	31 d2                	xor    %edx,%edx
    90eb:	66 8b 53 02          	mov    0x2(%ebx),%dx
    90ef:	89 46 20             	mov    %eax,0x20(%esi)
    90f2:	89 56 30             	mov    %edx,0x30(%esi)
    90f5:	8b 43 08             	mov    0x8(%ebx),%eax
    90f8:	31 d2                	xor    %edx,%edx
    90fa:	c7 46 24 00 00 00 00 	movl   $0x0,0x24(%esi)
    9101:	66 8b 53 18          	mov    0x18(%ebx),%dx
    9105:	89 46 38             	mov    %eax,0x38(%esi)
    9108:	8b 43 10             	mov    0x10(%ebx),%eax
    910b:	89 56 34             	mov    %edx,0x34(%esi)
    910e:	89 46 40             	mov    %eax,0x40(%esi)
    9111:	8b 43 0c             	mov    0xc(%ebx),%eax
    9114:	89 46 48             	mov    %eax,0x48(%esi)
    9117:	8b 43 14             	mov    0x14(%ebx),%eax
    911a:	89 46 50             	mov    %eax,0x50(%esi)
    911d:	c7 46 3c 00 00 00 00 	movl   $0x0,0x3c(%esi)
    9124:	c7 46 44 00 00 00 00 	movl   $0x0,0x44(%esi)
    912b:	c7 46 4c 00 00 00 00 	movl   $0x0,0x4c(%esi)
    9132:	c7 46 54 00 00 00 00 	movl   $0x0,0x54(%esi)
    9139:	89 5e 58             	mov    %ebx,0x58(%esi)
    913c:	8b 45 d4             	mov    -0x2c(%ebp),%eax
    913f:	8d 65 f4             	lea    -0xc(%ebp),%esp
    9142:	5b                   	pop    %ebx
    9143:	5e                   	pop    %esi
    9144:	5f                   	pop    %edi
    9145:	5d                   	pop    %ebp
    9146:	c3                   	ret    
    9147:	89 f6                	mov    %esi,%esi
    9149:	8d bc 27 00 00 00 00 	lea    0x0(%edi,%eiz,1),%edi
    9150:	8d 65 f4             	lea    -0xc(%ebp),%esp
    9153:	83 c8 ff             	or     $0xffffffff,%eax
    9156:	5b                   	pop    %ebx
    9157:	5e                   	pop    %esi
    9158:	5f                   	pop    %edi
    9159:	5d                   	pop    %ebp
    915a:	c3                   	ret    
    915b:	90                   	nop
    915c:	8d 74 26 00          	lea    0x0(%esi,%eiz,1),%esi

00009160 <read_block_pointer>:
    9160:	55                   	push   %ebp
    9161:	89 e5                	mov    %esp,%ebp
    9163:	57                   	push   %edi
    9164:	56                   	push   %esi
    9165:	53                   	push   %ebx
    9166:	83 ec 7c             	sub    $0x7c,%esp
    9169:	89 45 e4             	mov    %eax,-0x1c(%ebp)
    916c:	8b 75 10             	mov    0x10(%ebp),%esi
    916f:	8b 40 60             	mov    0x60(%eax),%eax
    9172:	89 55 b4             	mov    %edx,-0x4c(%ebp)
    9175:	89 45 c8             	mov    %eax,-0x38(%ebp)
    9178:	85 f6                	test   %esi,%esi
    917a:	0f 85 00 01 00 00    	jne    9280 <read_block_pointer+0x120>
    9180:	8b 45 0c             	mov    0xc(%ebp),%eax
    9183:	8b 7d c8             	mov    -0x38(%ebp),%edi
    9186:	8b 50 04             	mov    0x4(%eax),%edx
    9189:	8b 5f 18             	mov    0x18(%edi),%ebx
    918c:	8b 00                	mov    (%eax),%eax
    918e:	31 ff                	xor    %edi,%edi
    9190:	89 de                	mov    %ebx,%esi
    9192:	83 fa 00             	cmp    $0x0,%edx
    9195:	0f 87 a5 04 00 00    	ja     9640 <read_block_pointer+0x4e0>
    919b:	39 d8                	cmp    %ebx,%eax
    919d:	0f 83 9d 04 00 00    	jae    9640 <read_block_pointer+0x4e0>
    91a3:	8b 45 08             	mov    0x8(%ebp),%eax
    91a6:	89 45 e0             	mov    %eax,-0x20(%ebp)
    91a9:	39 d8                	cmp    %ebx,%eax
    91ab:	76 03                	jbe    91b0 <read_block_pointer+0x50>
    91ad:	89 5d e0             	mov    %ebx,-0x20(%ebp)
    91b0:	8b 45 e4             	mov    -0x1c(%ebp),%eax
    91b3:	31 d2                	xor    %edx,%edx
    91b5:	8b 70 5c             	mov    0x5c(%eax),%esi
    91b8:	89 d8                	mov    %ebx,%eax
    91ba:	8b 7e 14             	mov    0x14(%esi),%edi
    91bd:	c7 44 24 14 00 00 00 	movl   $0x0,0x14(%esp)
    91c4:	00 
    91c5:	f7 f7                	div    %edi
    91c7:	89 44 24 10          	mov    %eax,0x10(%esp)
    91cb:	89 c8                	mov    %ecx,%eax
    91cd:	0f af c3             	imul   %ebx,%eax
    91d0:	31 d2                	xor    %edx,%edx
    91d2:	c7 44 24 0c 00 00 00 	movl   $0x0,0xc(%esp)
    91d9:	00 
    91da:	f7 f7                	div    %edi
    91dc:	89 44 24 08          	mov    %eax,0x8(%esp)
    91e0:	8b 5d c8             	mov    -0x38(%ebp),%ebx
    91e3:	8b 83 ec 00 00 00    	mov    0xec(%ebx),%eax
    91e9:	89 34 24             	mov    %esi,(%esp)
    91ec:	89 44 24 04          	mov    %eax,0x4(%esp)
    91f0:	e8 2b 22 00 00       	call   b420 <blockdev_read>
    91f5:	89 c1                	mov    %eax,%ecx
    91f7:	89 d7                	mov    %edx,%edi
    91f9:	8b 43 18             	mov    0x18(%ebx),%eax
    91fc:	31 d2                	xor    %edx,%edx
    91fe:	89 45 e4             	mov    %eax,-0x1c(%ebp)
    9201:	f7 76 14             	divl   0x14(%esi)
    9204:	31 c1                	xor    %eax,%ecx
    9206:	09 cf                	or     %ecx,%edi
    9208:	0f 85 39 08 00 00    	jne    9a47 <read_block_pointer+0x8e7>
    920e:	8b 45 0c             	mov    0xc(%ebp),%eax
    9211:	8b 50 04             	mov    0x4(%eax),%edx
    9214:	8b 00                	mov    (%eax),%eax
    9216:	89 d3                	mov    %edx,%ebx
    9218:	09 c3                	or     %eax,%ebx
    921a:	0f 84 d0 07 00 00    	je     99f0 <read_block_pointer+0x890>
    9220:	8b 75 e0             	mov    -0x20(%ebp),%esi
    9223:	31 ff                	xor    %edi,%edi
    9225:	01 c6                	add    %eax,%esi
    9227:	11 d7                	adc    %edx,%edi
    9229:	83 ff 00             	cmp    $0x0,%edi
    922c:	0f 87 5e 04 00 00    	ja     9690 <read_block_pointer+0x530>
    9232:	3b 75 e4             	cmp    -0x1c(%ebp),%esi
    9235:	0f 83 55 04 00 00    	jae    9690 <read_block_pointer+0x530>
    923b:	8b 7d e0             	mov    -0x20(%ebp),%edi
    923e:	89 7c 24 08          	mov    %edi,0x8(%esp)
    9242:	8b 5d c8             	mov    -0x38(%ebp),%ebx
    9245:	8b 93 ec 00 00 00    	mov    0xec(%ebx),%edx
    924b:	01 d0                	add    %edx,%eax
    924d:	89 44 24 04          	mov    %eax,0x4(%esp)
    9251:	8b 45 b4             	mov    -0x4c(%ebp),%eax
    9254:	89 04 24             	mov    %eax,(%esp)
    9257:	e8 44 2f 00 00       	call   c1a0 <memcpy>
    925c:	8b 45 0c             	mov    0xc(%ebp),%eax
    925f:	c7 00 00 00 00 00    	movl   $0x0,(%eax)
    9265:	c7 40 04 00 00 00 00 	movl   $0x0,0x4(%eax)
    926c:	8d 65 f4             	lea    -0xc(%ebp),%esp
    926f:	89 f8                	mov    %edi,%eax
    9271:	5b                   	pop    %ebx
    9272:	5e                   	pop    %esi
    9273:	5f                   	pop    %edi
    9274:	5d                   	pop    %ebp
    9275:	c3                   	ret    
    9276:	8d 76 00             	lea    0x0(%esi),%esi
    9279:	8d bc 27 00 00 00 00 	lea    0x0(%edi,%eiz,1),%edi
    9280:	83 fe 03             	cmp    $0x3,%esi
    9283:	7e 1b                	jle    92a0 <read_block_pointer+0x140>
    9285:	c7 04 24 74 e9 00 00 	movl   $0xe974,(%esp)
    928c:	e8 c2 2e 00 00       	call   c153 <panic>
    9291:	31 c0                	xor    %eax,%eax
    9293:	8d 65 f4             	lea    -0xc(%ebp),%esp
    9296:	5b                   	pop    %ebx
    9297:	5e                   	pop    %esi
    9298:	5f                   	pop    %edi
    9299:	5d                   	pop    %ebp
    929a:	c3                   	ret    
    929b:	90                   	nop
    929c:	8d 74 26 00          	lea    0x0(%esi,%eiz,1),%esi
    92a0:	8b 45 c8             	mov    -0x38(%ebp),%eax
    92a3:	89 4d e0             	mov    %ecx,-0x20(%ebp)
    92a6:	89 65 90             	mov    %esp,-0x70(%ebp)
    92a9:	8b 58 18             	mov    0x18(%eax),%ebx
    92ac:	89 74 24 04          	mov    %esi,0x4(%esp)
    92b0:	89 d8                	mov    %ebx,%eax
    92b2:	c1 e8 02             	shr    $0x2,%eax
    92b5:	89 04 24             	mov    %eax,(%esp)
    92b8:	e8 99 27 00 00       	call   ba56 <pow>
    92bd:	8b 4d e0             	mov    -0x20(%ebp),%ecx
    92c0:	0f af c3             	imul   %ebx,%eax
    92c3:	39 45 08             	cmp    %eax,0x8(%ebp)
    92c6:	0f 83 94 03 00 00    	jae    9660 <read_block_pointer+0x500>
    92cc:	8b 45 c8             	mov    -0x38(%ebp),%eax
    92cf:	8b 7d e4             	mov    -0x1c(%ebp),%edi
    92d2:	8b 40 18             	mov    0x18(%eax),%eax
    92d5:	8b 5f 5c             	mov    0x5c(%edi),%ebx
    92d8:	83 e0 fc             	and    $0xfffffffc,%eax
    92db:	8b 7f 60             	mov    0x60(%edi),%edi
    92de:	83 c0 12             	add    $0x12,%eax
    92e1:	89 7d e0             	mov    %edi,-0x20(%ebp)
    92e4:	83 e0 f0             	and    $0xfffffff0,%eax
    92e7:	8b 57 18             	mov    0x18(%edi),%edx
    92ea:	29 c4                	sub    %eax,%esp
    92ec:	8b 7b 14             	mov    0x14(%ebx),%edi
    92ef:	89 55 dc             	mov    %edx,-0x24(%ebp)
    92f2:	8d 44 24 18          	lea    0x18(%esp),%eax
    92f6:	89 45 a8             	mov    %eax,-0x58(%ebp)
    92f9:	89 d0                	mov    %edx,%eax
    92fb:	31 d2                	xor    %edx,%edx
    92fd:	c7 44 24 14 00 00 00 	movl   $0x0,0x14(%esp)
    9304:	00 
    9305:	f7 f7                	div    %edi
    9307:	89 44 24 10          	mov    %eax,0x10(%esp)
    930b:	8b 55 dc             	mov    -0x24(%ebp),%edx
    930e:	c7 44 24 0c 00 00 00 	movl   $0x0,0xc(%esp)
    9315:	00 
    9316:	0f af d1             	imul   %ecx,%edx
    9319:	89 d0                	mov    %edx,%eax
    931b:	31 d2                	xor    %edx,%edx
    931d:	f7 f7                	div    %edi
    931f:	89 44 24 08          	mov    %eax,0x8(%esp)
    9323:	8b 45 a8             	mov    -0x58(%ebp),%eax
    9326:	89 1c 24             	mov    %ebx,(%esp)
    9329:	89 44 24 04          	mov    %eax,0x4(%esp)
    932d:	e8 ee 20 00 00       	call   b420 <blockdev_read>
    9332:	89 c1                	mov    %eax,%ecx
    9334:	8b 45 e0             	mov    -0x20(%ebp),%eax
    9337:	89 d7                	mov    %edx,%edi
    9339:	31 d2                	xor    %edx,%edx
    933b:	8b 40 18             	mov    0x18(%eax),%eax
    933e:	f7 73 14             	divl   0x14(%ebx)
    9341:	31 c1                	xor    %eax,%ecx
    9343:	09 cf                	or     %ecx,%edi
    9345:	0f 85 dc 06 00 00    	jne    9a27 <read_block_pointer+0x8c7>
    934b:	8b 7d 08             	mov    0x8(%ebp),%edi
    934e:	85 ff                	test   %edi,%edi
    9350:	0f 84 d1 06 00 00    	je     9a27 <read_block_pointer+0x8c7>
    9356:	8b 45 c8             	mov    -0x38(%ebp),%eax
    9359:	8b 78 18             	mov    0x18(%eax),%edi
    935c:	89 f8                	mov    %edi,%eax
    935e:	c1 e8 02             	shr    $0x2,%eax
    9361:	0f 84 c0 06 00 00    	je     9a27 <read_block_pointer+0x8c7>
    9367:	8d 46 ff             	lea    -0x1(%esi),%eax
    936a:	c7 45 d4 00 00 00 00 	movl   $0x0,-0x2c(%ebp)
    9371:	89 45 ac             	mov    %eax,-0x54(%ebp)
    9374:	8b 45 08             	mov    0x8(%ebp),%eax
    9377:	89 45 b0             	mov    %eax,-0x50(%ebp)
    937a:	8d 46 fe             	lea    -0x2(%esi),%eax
    937d:	89 45 c0             	mov    %eax,-0x40(%ebp)
    9380:	8d 46 fd             	lea    -0x3(%esi),%eax
    9383:	89 45 cc             	mov    %eax,-0x34(%ebp)
    9386:	8d 76 00             	lea    0x0(%esi),%esi
    9389:	8d bc 27 00 00 00 00 	lea    0x0(%edi,%eiz,1),%edi
    9390:	8b 45 a8             	mov    -0x58(%ebp),%eax
    9393:	8b 55 d4             	mov    -0x2c(%ebp),%edx
    9396:	8b 75 ac             	mov    -0x54(%ebp),%esi
    9399:	8b 04 90             	mov    (%eax,%edx,4),%eax
    939c:	85 f6                	test   %esi,%esi
    939e:	89 45 e0             	mov    %eax,-0x20(%ebp)
    93a1:	8b 45 e4             	mov    -0x1c(%ebp),%eax
    93a4:	8b 40 60             	mov    0x60(%eax),%eax
    93a7:	89 45 dc             	mov    %eax,-0x24(%ebp)
    93aa:	0f 84 30 03 00 00    	je     96e0 <read_block_pointer+0x580>
    93b0:	8b 45 dc             	mov    -0x24(%ebp),%eax
    93b3:	89 65 94             	mov    %esp,-0x6c(%ebp)
    93b6:	8b 58 18             	mov    0x18(%eax),%ebx
    93b9:	8b 45 ac             	mov    -0x54(%ebp),%eax
    93bc:	89 44 24 04          	mov    %eax,0x4(%esp)
    93c0:	89 d8                	mov    %ebx,%eax
    93c2:	c1 e8 02             	shr    $0x2,%eax
    93c5:	89 04 24             	mov    %eax,(%esp)
    93c8:	e8 89 26 00 00       	call   ba56 <pow>
    93cd:	8b 7d b0             	mov    -0x50(%ebp),%edi
    93d0:	0f af c3             	imul   %ebx,%eax
    93d3:	89 7d 98             	mov    %edi,-0x68(%ebp)
    93d6:	39 f8                	cmp    %edi,%eax
    93d8:	0f 86 62 05 00 00    	jbe    9940 <read_block_pointer+0x7e0>
    93de:	8b 45 dc             	mov    -0x24(%ebp),%eax
    93e1:	8b 7d e4             	mov    -0x1c(%ebp),%edi
    93e4:	31 d2                	xor    %edx,%edx
    93e6:	8b 40 18             	mov    0x18(%eax),%eax
    93e9:	8b 5f 5c             	mov    0x5c(%edi),%ebx
    93ec:	83 e0 fc             	and    $0xfffffffc,%eax
    93ef:	8b 7f 60             	mov    0x60(%edi),%edi
    93f2:	83 c0 12             	add    $0x12,%eax
    93f5:	8b 4b 14             	mov    0x14(%ebx),%ecx
    93f8:	83 e0 f0             	and    $0xfffffff0,%eax
    93fb:	8b 77 18             	mov    0x18(%edi),%esi
    93fe:	29 c4                	sub    %eax,%esp
    9400:	8d 44 24 18          	lea    0x18(%esp),%eax
    9404:	89 45 bc             	mov    %eax,-0x44(%ebp)
    9407:	89 f0                	mov    %esi,%eax
    9409:	f7 f1                	div    %ecx
    940b:	89 44 24 10          	mov    %eax,0x10(%esp)
    940f:	c7 44 24 14 00 00 00 	movl   $0x0,0x14(%esp)
    9416:	00 
    9417:	8b 55 e0             	mov    -0x20(%ebp),%edx
    941a:	c7 44 24 0c 00 00 00 	movl   $0x0,0xc(%esp)
    9421:	00 
    9422:	0f af d6             	imul   %esi,%edx
    9425:	89 d0                	mov    %edx,%eax
    9427:	31 d2                	xor    %edx,%edx
    9429:	f7 f1                	div    %ecx
    942b:	89 44 24 08          	mov    %eax,0x8(%esp)
    942f:	8b 45 bc             	mov    -0x44(%ebp),%eax
    9432:	89 1c 24             	mov    %ebx,(%esp)
    9435:	89 44 24 04          	mov    %eax,0x4(%esp)
    9439:	e8 e2 1f 00 00       	call   b420 <blockdev_read>
    943e:	89 c1                	mov    %eax,%ecx
    9440:	89 d6                	mov    %edx,%esi
    9442:	8b 47 18             	mov    0x18(%edi),%eax
    9445:	31 d2                	xor    %edx,%edx
    9447:	f7 73 14             	divl   0x14(%ebx)
    944a:	31 c1                	xor    %eax,%ecx
    944c:	09 ce                	or     %ecx,%esi
    944e:	0f 85 cc 05 00 00    	jne    9a20 <read_block_pointer+0x8c0>
    9454:	8b 5d 98             	mov    -0x68(%ebp),%ebx
    9457:	85 db                	test   %ebx,%ebx
    9459:	0f 84 c1 05 00 00    	je     9a20 <read_block_pointer+0x8c0>
    945f:	8b 45 dc             	mov    -0x24(%ebp),%eax
    9462:	8b 70 18             	mov    0x18(%eax),%esi
    9465:	89 f0                	mov    %esi,%eax
    9467:	c1 e8 02             	shr    $0x2,%eax
    946a:	0f 84 b0 05 00 00    	je     9a20 <read_block_pointer+0x8c0>
    9470:	8b 45 b4             	mov    -0x4c(%ebp),%eax
    9473:	89 5d c4             	mov    %ebx,-0x3c(%ebp)
    9476:	89 45 b8             	mov    %eax,-0x48(%ebp)
    9479:	c7 45 e0 00 00 00 00 	movl   $0x0,-0x20(%ebp)
    9480:	8b 45 bc             	mov    -0x44(%ebp),%eax
    9483:	8b 55 e0             	mov    -0x20(%ebp),%edx
    9486:	8b 4d c0             	mov    -0x40(%ebp),%ecx
    9489:	8b 04 90             	mov    (%eax,%edx,4),%eax
    948c:	85 c9                	test   %ecx,%ecx
    948e:	89 45 d0             	mov    %eax,-0x30(%ebp)
    9491:	8b 45 e4             	mov    -0x1c(%ebp),%eax
    9494:	8b 78 60             	mov    0x60(%eax),%edi
    9497:	0f 84 03 02 00 00    	je     96a0 <read_block_pointer+0x540>
    949d:	8b 5f 18             	mov    0x18(%edi),%ebx
    94a0:	8b 45 c0             	mov    -0x40(%ebp),%eax
    94a3:	89 65 a0             	mov    %esp,-0x60(%ebp)
    94a6:	89 44 24 04          	mov    %eax,0x4(%esp)
    94aa:	89 d8                	mov    %ebx,%eax
    94ac:	c1 e8 02             	shr    $0x2,%eax
    94af:	89 04 24             	mov    %eax,(%esp)
    94b2:	e8 9f 25 00 00       	call   ba56 <pow>
    94b7:	8b 55 c4             	mov    -0x3c(%ebp),%edx
    94ba:	0f af c3             	imul   %ebx,%eax
    94bd:	89 55 a4             	mov    %edx,-0x5c(%ebp)
    94c0:	39 d0                	cmp    %edx,%eax
    94c2:	0f 86 18 04 00 00    	jbe    98e0 <read_block_pointer+0x780>
    94c8:	8b 47 18             	mov    0x18(%edi),%eax
    94cb:	bb 10 00 00 00       	mov    $0x10,%ebx
    94d0:	83 e0 fc             	and    $0xfffffffc,%eax
    94d3:	31 d2                	xor    %edx,%edx
    94d5:	83 c0 12             	add    $0x12,%eax
    94d8:	f7 f3                	div    %ebx
    94da:	c1 e0 04             	shl    $0x4,%eax
    94dd:	8b 55 e4             	mov    -0x1c(%ebp),%edx
    94e0:	29 c4                	sub    %eax,%esp
    94e2:	8b 72 60             	mov    0x60(%edx),%esi
    94e5:	8b 5a 5c             	mov    0x5c(%edx),%ebx
    94e8:	8d 44 24 18          	lea    0x18(%esp),%eax
    94ec:	8b 56 18             	mov    0x18(%esi),%edx
    94ef:	8b 4b 14             	mov    0x14(%ebx),%ecx
    94f2:	89 45 d8             	mov    %eax,-0x28(%ebp)
    94f5:	89 55 9c             	mov    %edx,-0x64(%ebp)
    94f8:	89 d0                	mov    %edx,%eax
    94fa:	31 d2                	xor    %edx,%edx
    94fc:	f7 f1                	div    %ecx
    94fe:	89 44 24 10          	mov    %eax,0x10(%esp)
    9502:	c7 44 24 14 00 00 00 	movl   $0x0,0x14(%esp)
    9509:	00 
    950a:	8b 45 9c             	mov    -0x64(%ebp),%eax
    950d:	8b 55 d0             	mov    -0x30(%ebp),%edx
    9510:	0f af d0             	imul   %eax,%edx
    9513:	89 d0                	mov    %edx,%eax
    9515:	31 d2                	xor    %edx,%edx
    9517:	f7 f1                	div    %ecx
    9519:	89 44 24 08          	mov    %eax,0x8(%esp)
    951d:	c7 44 24 0c 00 00 00 	movl   $0x0,0xc(%esp)
    9524:	00 
    9525:	8b 45 d8             	mov    -0x28(%ebp),%eax
    9528:	89 1c 24             	mov    %ebx,(%esp)
    952b:	89 44 24 04          	mov    %eax,0x4(%esp)
    952f:	e8 ec 1e 00 00       	call   b420 <blockdev_read>
    9534:	89 c1                	mov    %eax,%ecx
    9536:	89 55 d0             	mov    %edx,-0x30(%ebp)
    9539:	8b 46 18             	mov    0x18(%esi),%eax
    953c:	31 d2                	xor    %edx,%edx
    953e:	f7 73 14             	divl   0x14(%ebx)
    9541:	31 c1                	xor    %eax,%ecx
    9543:	8b 45 d0             	mov    -0x30(%ebp),%eax
    9546:	09 c8                	or     %ecx,%eax
    9548:	0f 85 62 04 00 00    	jne    99b0 <read_block_pointer+0x850>
    954e:	8b 5d a4             	mov    -0x5c(%ebp),%ebx
    9551:	85 db                	test   %ebx,%ebx
    9553:	0f 84 57 04 00 00    	je     99b0 <read_block_pointer+0x850>
    9559:	8b 47 18             	mov    0x18(%edi),%eax
    955c:	c1 e8 02             	shr    $0x2,%eax
    955f:	0f 84 4b 04 00 00    	je     99b0 <read_block_pointer+0x850>
    9565:	8b 45 b8             	mov    -0x48(%ebp),%eax
    9568:	89 7d d0             	mov    %edi,-0x30(%ebp)
    956b:	31 f6                	xor    %esi,%esi
    956d:	89 c7                	mov    %eax,%edi
    956f:	eb 20                	jmp    9591 <read_block_pointer+0x431>
    9571:	eb 0d                	jmp    9580 <read_block_pointer+0x420>
    9573:	90                   	nop
    9574:	90                   	nop
    9575:	90                   	nop
    9576:	90                   	nop
    9577:	90                   	nop
    9578:	90                   	nop
    9579:	90                   	nop
    957a:	90                   	nop
    957b:	90                   	nop
    957c:	90                   	nop
    957d:	90                   	nop
    957e:	90                   	nop
    957f:	90                   	nop
    9580:	8b 45 d0             	mov    -0x30(%ebp),%eax
    9583:	8b 40 18             	mov    0x18(%eax),%eax
    9586:	c1 e8 02             	shr    $0x2,%eax
    9589:	39 c6                	cmp    %eax,%esi
    958b:	0f 83 9f 03 00 00    	jae    9930 <read_block_pointer+0x7d0>
    9591:	8b 45 d8             	mov    -0x28(%ebp),%eax
    9594:	89 fa                	mov    %edi,%edx
    9596:	8b 0c b0             	mov    (%eax,%esi,4),%ecx
    9599:	8b 45 cc             	mov    -0x34(%ebp),%eax
    959c:	89 44 24 08          	mov    %eax,0x8(%esp)
    95a0:	46                   	inc    %esi
    95a1:	8b 45 0c             	mov    0xc(%ebp),%eax
    95a4:	89 1c 24             	mov    %ebx,(%esp)
    95a7:	89 44 24 04          	mov    %eax,0x4(%esp)
    95ab:	8b 45 e4             	mov    -0x1c(%ebp),%eax
    95ae:	e8 ad fb ff ff       	call   9160 <read_block_pointer>
    95b3:	01 c7                	add    %eax,%edi
    95b5:	29 c3                	sub    %eax,%ebx
    95b7:	75 c7                	jne    9580 <read_block_pointer+0x420>
    95b9:	8b 45 a4             	mov    -0x5c(%ebp),%eax
    95bc:	8b 65 a0             	mov    -0x60(%ebp),%esp
    95bf:	8b 5d b8             	mov    -0x48(%ebp),%ebx
    95c2:	8b 75 e0             	mov    -0x20(%ebp),%esi
    95c5:	01 c3                	add    %eax,%ebx
    95c7:	46                   	inc    %esi
    95c8:	29 45 c4             	sub    %eax,-0x3c(%ebp)
    95cb:	89 5d b8             	mov    %ebx,-0x48(%ebp)
    95ce:	89 75 e0             	mov    %esi,-0x20(%ebp)
    95d1:	0f 84 99 03 00 00    	je     9970 <read_block_pointer+0x810>
    95d7:	8b 45 dc             	mov    -0x24(%ebp),%eax
    95da:	8b 70 18             	mov    0x18(%eax),%esi
    95dd:	89 f0                	mov    %esi,%eax
    95df:	c1 e8 02             	shr    $0x2,%eax
    95e2:	39 45 e0             	cmp    %eax,-0x20(%ebp)
    95e5:	0f 82 95 fe ff ff    	jb     9480 <read_block_pointer+0x320>
    95eb:	8b 45 98             	mov    -0x68(%ebp),%eax
    95ee:	8b 4d c4             	mov    -0x3c(%ebp),%ecx
    95f1:	29 c8                	sub    %ecx,%eax
    95f3:	8b 65 94             	mov    -0x6c(%ebp),%esp
    95f6:	8b 7d b4             	mov    -0x4c(%ebp),%edi
    95f9:	8b 55 d4             	mov    -0x2c(%ebp),%edx
    95fc:	01 c7                	add    %eax,%edi
    95fe:	42                   	inc    %edx
    95ff:	29 45 b0             	sub    %eax,-0x50(%ebp)
    9602:	89 7d b4             	mov    %edi,-0x4c(%ebp)
    9605:	89 55 d4             	mov    %edx,-0x2c(%ebp)
    9608:	0f 84 d2 03 00 00    	je     99e0 <read_block_pointer+0x880>
    960e:	8b 45 c8             	mov    -0x38(%ebp),%eax
    9611:	8b 78 18             	mov    0x18(%eax),%edi
    9614:	89 f8                	mov    %edi,%eax
    9616:	c1 e8 02             	shr    $0x2,%eax
    9619:	39 45 d4             	cmp    %eax,-0x2c(%ebp)
    961c:	0f 82 6e fd ff ff    	jb     9390 <read_block_pointer+0x230>
    9622:	8b 45 08             	mov    0x8(%ebp),%eax
    9625:	8b 75 b0             	mov    -0x50(%ebp),%esi
    9628:	29 f0                	sub    %esi,%eax
    962a:	8b 65 90             	mov    -0x70(%ebp),%esp
    962d:	8d 65 f4             	lea    -0xc(%ebp),%esp
    9630:	5b                   	pop    %ebx
    9631:	5e                   	pop    %esi
    9632:	5f                   	pop    %edi
    9633:	5d                   	pop    %ebp
    9634:	c3                   	ret    
    9635:	8d 74 26 00          	lea    0x0(%esi,%eiz,1),%esi
    9639:	8d bc 27 00 00 00 00 	lea    0x0(%edi,%eiz,1),%edi
    9640:	29 f0                	sub    %esi,%eax
    9642:	8b 5d 0c             	mov    0xc(%ebp),%ebx
    9645:	19 fa                	sbb    %edi,%edx
    9647:	89 03                	mov    %eax,(%ebx)
    9649:	89 53 04             	mov    %edx,0x4(%ebx)
    964c:	8d 65 f4             	lea    -0xc(%ebp),%esp
    964f:	31 c0                	xor    %eax,%eax
    9651:	5b                   	pop    %ebx
    9652:	5e                   	pop    %esi
    9653:	5f                   	pop    %edi
    9654:	5d                   	pop    %ebp
    9655:	c3                   	ret    
    9656:	8d 76 00             	lea    0x0(%esi),%esi
    9659:	8d bc 27 00 00 00 00 	lea    0x0(%edi,%eiz,1),%edi
    9660:	8b 45 c8             	mov    -0x38(%ebp),%eax
    9663:	8b 58 18             	mov    0x18(%eax),%ebx
    9666:	89 74 24 04          	mov    %esi,0x4(%esp)
    966a:	89 d8                	mov    %ebx,%eax
    966c:	c1 e8 02             	shr    $0x2,%eax
    966f:	89 04 24             	mov    %eax,(%esp)
    9672:	e8 df 23 00 00       	call   ba56 <pow>
    9677:	8b 4d e0             	mov    -0x20(%ebp),%ecx
    967a:	0f af d8             	imul   %eax,%ebx
    967d:	89 5d 08             	mov    %ebx,0x8(%ebp)
    9680:	e9 47 fc ff ff       	jmp    92cc <read_block_pointer+0x16c>
    9685:	8d 74 26 00          	lea    0x0(%esi,%eiz,1),%esi
    9689:	8d bc 27 00 00 00 00 	lea    0x0(%edi,%eiz,1),%edi
    9690:	8b 4d e0             	mov    -0x20(%ebp),%ecx
    9693:	29 c1                	sub    %eax,%ecx
    9695:	89 4d e0             	mov    %ecx,-0x20(%ebp)
    9698:	e9 9e fb ff ff       	jmp    923b <read_block_pointer+0xdb>
    969d:	8d 76 00             	lea    0x0(%esi),%esi
    96a0:	8b 45 0c             	mov    0xc(%ebp),%eax
    96a3:	31 d2                	xor    %edx,%edx
    96a5:	8b 58 04             	mov    0x4(%eax),%ebx
    96a8:	8b 08                	mov    (%eax),%ecx
    96aa:	8b 47 18             	mov    0x18(%edi),%eax
    96ad:	83 fb 00             	cmp    $0x0,%ebx
    96b0:	89 45 d8             	mov    %eax,-0x28(%ebp)
    96b3:	77 05                	ja     96ba <read_block_pointer+0x55a>
    96b5:	3b 4d d8             	cmp    -0x28(%ebp),%ecx
    96b8:	72 66                	jb     9720 <read_block_pointer+0x5c0>
    96ba:	29 c1                	sub    %eax,%ecx
    96bc:	8b 45 0c             	mov    0xc(%ebp),%eax
    96bf:	19 d3                	sbb    %edx,%ebx
    96c1:	89 08                	mov    %ecx,(%eax)
    96c3:	89 58 04             	mov    %ebx,0x4(%eax)
    96c6:	8b 5d e0             	mov    -0x20(%ebp),%ebx
    96c9:	43                   	inc    %ebx
    96ca:	89 5d e0             	mov    %ebx,-0x20(%ebp)
    96cd:	e9 0b ff ff ff       	jmp    95dd <read_block_pointer+0x47d>
    96d2:	8d b4 26 00 00 00 00 	lea    0x0(%esi,%eiz,1),%esi
    96d9:	8d bc 27 00 00 00 00 	lea    0x0(%edi,%eiz,1),%edi
    96e0:	8b 45 0c             	mov    0xc(%ebp),%eax
    96e3:	31 d2                	xor    %edx,%edx
    96e5:	8b 58 04             	mov    0x4(%eax),%ebx
    96e8:	8b 08                	mov    (%eax),%ecx
    96ea:	8b 45 dc             	mov    -0x24(%ebp),%eax
    96ed:	83 fb 00             	cmp    $0x0,%ebx
    96f0:	8b 70 18             	mov    0x18(%eax),%esi
    96f3:	89 f0                	mov    %esi,%eax
    96f5:	77 08                	ja     96ff <read_block_pointer+0x59f>
    96f7:	39 f1                	cmp    %esi,%ecx
    96f9:	0f 82 01 01 00 00    	jb     9800 <read_block_pointer+0x6a0>
    96ff:	29 c1                	sub    %eax,%ecx
    9701:	8b 45 0c             	mov    0xc(%ebp),%eax
    9704:	19 d3                	sbb    %edx,%ebx
    9706:	89 08                	mov    %ecx,(%eax)
    9708:	89 58 04             	mov    %ebx,0x4(%eax)
    970b:	8b 4d d4             	mov    -0x2c(%ebp),%ecx
    970e:	41                   	inc    %ecx
    970f:	89 4d d4             	mov    %ecx,-0x2c(%ebp)
    9712:	e9 fd fe ff ff       	jmp    9614 <read_block_pointer+0x4b4>
    9717:	89 f6                	mov    %esi,%esi
    9719:	8d bc 27 00 00 00 00 	lea    0x0(%edi,%eiz,1),%edi
    9720:	8b 45 c4             	mov    -0x3c(%ebp),%eax
    9723:	8b 5d d8             	mov    -0x28(%ebp),%ebx
    9726:	89 c6                	mov    %eax,%esi
    9728:	39 d8                	cmp    %ebx,%eax
    972a:	76 02                	jbe    972e <read_block_pointer+0x5ce>
    972c:	89 de                	mov    %ebx,%esi
    972e:	8b 45 e4             	mov    -0x1c(%ebp),%eax
    9731:	31 d2                	xor    %edx,%edx
    9733:	8b 58 5c             	mov    0x5c(%eax),%ebx
    9736:	8b 45 d8             	mov    -0x28(%ebp),%eax
    9739:	8b 4b 14             	mov    0x14(%ebx),%ecx
    973c:	c7 44 24 14 00 00 00 	movl   $0x0,0x14(%esp)
    9743:	00 
    9744:	f7 f1                	div    %ecx
    9746:	89 44 24 10          	mov    %eax,0x10(%esp)
    974a:	8b 55 d8             	mov    -0x28(%ebp),%edx
    974d:	8b 45 d0             	mov    -0x30(%ebp),%eax
    9750:	0f af c2             	imul   %edx,%eax
    9753:	31 d2                	xor    %edx,%edx
    9755:	c7 44 24 0c 00 00 00 	movl   $0x0,0xc(%esp)
    975c:	00 
    975d:	f7 f1                	div    %ecx
    975f:	89 44 24 08          	mov    %eax,0x8(%esp)
    9763:	8b 87 ec 00 00 00    	mov    0xec(%edi),%eax
    9769:	89 1c 24             	mov    %ebx,(%esp)
    976c:	89 44 24 04          	mov    %eax,0x4(%esp)
    9770:	e8 ab 1c 00 00       	call   b420 <blockdev_read>
    9775:	89 c1                	mov    %eax,%ecx
    9777:	89 55 d8             	mov    %edx,-0x28(%ebp)
    977a:	8b 47 18             	mov    0x18(%edi),%eax
    977d:	31 d2                	xor    %edx,%edx
    977f:	89 45 d0             	mov    %eax,-0x30(%ebp)
    9782:	f7 73 14             	divl   0x14(%ebx)
    9785:	31 c1                	xor    %eax,%ecx
    9787:	8b 45 d8             	mov    -0x28(%ebp),%eax
    978a:	09 c8                	or     %ecx,%eax
    978c:	0f 85 2e 02 00 00    	jne    99c0 <read_block_pointer+0x860>
    9792:	8b 45 0c             	mov    0xc(%ebp),%eax
    9795:	8b 50 04             	mov    0x4(%eax),%edx
    9798:	8b 00                	mov    (%eax),%eax
    979a:	89 d3                	mov    %edx,%ebx
    979c:	09 c3                	or     %eax,%ebx
    979e:	0f 84 6c 01 00 00    	je     9910 <read_block_pointer+0x7b0>
    97a4:	89 f1                	mov    %esi,%ecx
    97a6:	31 db                	xor    %ebx,%ebx
    97a8:	01 c1                	add    %eax,%ecx
    97aa:	11 d3                	adc    %edx,%ebx
    97ac:	83 fb 00             	cmp    $0x0,%ebx
    97af:	77 3f                	ja     97f0 <read_block_pointer+0x690>
    97b1:	3b 4d d0             	cmp    -0x30(%ebp),%ecx
    97b4:	73 3a                	jae    97f0 <read_block_pointer+0x690>
    97b6:	89 74 24 08          	mov    %esi,0x8(%esp)
    97ba:	8b 97 ec 00 00 00    	mov    0xec(%edi),%edx
    97c0:	01 d0                	add    %edx,%eax
    97c2:	89 44 24 04          	mov    %eax,0x4(%esp)
    97c6:	8b 45 b8             	mov    -0x48(%ebp),%eax
    97c9:	89 04 24             	mov    %eax,(%esp)
    97cc:	e8 cf 29 00 00       	call   c1a0 <memcpy>
    97d1:	8b 45 0c             	mov    0xc(%ebp),%eax
    97d4:	c7 00 00 00 00 00    	movl   $0x0,(%eax)
    97da:	c7 40 04 00 00 00 00 	movl   $0x0,0x4(%eax)
    97e1:	89 f0                	mov    %esi,%eax
    97e3:	e9 d7 fd ff ff       	jmp    95bf <read_block_pointer+0x45f>
    97e8:	90                   	nop
    97e9:	8d b4 26 00 00 00 00 	lea    0x0(%esi,%eiz,1),%esi
    97f0:	29 c6                	sub    %eax,%esi
    97f2:	eb c2                	jmp    97b6 <read_block_pointer+0x656>
    97f4:	8d b6 00 00 00 00    	lea    0x0(%esi),%esi
    97fa:	8d bf 00 00 00 00    	lea    0x0(%edi),%edi
    9800:	8b 45 b0             	mov    -0x50(%ebp),%eax
    9803:	89 c7                	mov    %eax,%edi
    9805:	39 f0                	cmp    %esi,%eax
    9807:	76 02                	jbe    980b <read_block_pointer+0x6ab>
    9809:	89 f7                	mov    %esi,%edi
    980b:	8b 45 e4             	mov    -0x1c(%ebp),%eax
    980e:	31 d2                	xor    %edx,%edx
    9810:	8b 58 5c             	mov    0x5c(%eax),%ebx
    9813:	89 f0                	mov    %esi,%eax
    9815:	8b 4b 14             	mov    0x14(%ebx),%ecx
    9818:	c7 44 24 14 00 00 00 	movl   $0x0,0x14(%esp)
    981f:	00 
    9820:	f7 f1                	div    %ecx
    9822:	89 44 24 10          	mov    %eax,0x10(%esp)
    9826:	31 d2                	xor    %edx,%edx
    9828:	8b 45 e0             	mov    -0x20(%ebp),%eax
    982b:	c7 44 24 0c 00 00 00 	movl   $0x0,0xc(%esp)
    9832:	00 
    9833:	0f af c6             	imul   %esi,%eax
    9836:	f7 f1                	div    %ecx
    9838:	89 44 24 08          	mov    %eax,0x8(%esp)
    983c:	8b 45 dc             	mov    -0x24(%ebp),%eax
    983f:	8b 80 ec 00 00 00    	mov    0xec(%eax),%eax
    9845:	89 1c 24             	mov    %ebx,(%esp)
    9848:	89 44 24 04          	mov    %eax,0x4(%esp)
    984c:	e8 cf 1b 00 00       	call   b420 <blockdev_read>
    9851:	89 c1                	mov    %eax,%ecx
    9853:	8b 45 dc             	mov    -0x24(%ebp),%eax
    9856:	89 d6                	mov    %edx,%esi
    9858:	31 d2                	xor    %edx,%edx
    985a:	8b 40 18             	mov    0x18(%eax),%eax
    985d:	89 45 e0             	mov    %eax,-0x20(%ebp)
    9860:	f7 73 14             	divl   0x14(%ebx)
    9863:	31 c1                	xor    %eax,%ecx
    9865:	09 ce                	or     %ecx,%esi
    9867:	0f 85 c3 01 00 00    	jne    9a30 <read_block_pointer+0x8d0>
    986d:	8b 45 0c             	mov    0xc(%ebp),%eax
    9870:	8b 58 04             	mov    0x4(%eax),%ebx
    9873:	8b 08                	mov    (%eax),%ecx
    9875:	89 d8                	mov    %ebx,%eax
    9877:	09 c8                	or     %ecx,%eax
    9879:	0f 84 01 01 00 00    	je     9980 <read_block_pointer+0x820>
    987f:	89 f8                	mov    %edi,%eax
    9881:	31 d2                	xor    %edx,%edx
    9883:	01 c8                	add    %ecx,%eax
    9885:	11 da                	adc    %ebx,%edx
    9887:	83 fa 00             	cmp    $0x0,%edx
    988a:	77 44                	ja     98d0 <read_block_pointer+0x770>
    988c:	3b 45 e0             	cmp    -0x20(%ebp),%eax
    988f:	73 3f                	jae    98d0 <read_block_pointer+0x770>
    9891:	89 7c 24 08          	mov    %edi,0x8(%esp)
    9895:	8b 45 dc             	mov    -0x24(%ebp),%eax
    9898:	8b 98 ec 00 00 00    	mov    0xec(%eax),%ebx
    989e:	01 d9                	add    %ebx,%ecx
    98a0:	89 4c 24 04          	mov    %ecx,0x4(%esp)
    98a4:	8b 45 b4             	mov    -0x4c(%ebp),%eax
    98a7:	89 04 24             	mov    %eax,(%esp)
    98aa:	e8 f1 28 00 00       	call   c1a0 <memcpy>
    98af:	8b 45 0c             	mov    0xc(%ebp),%eax
    98b2:	c7 00 00 00 00 00    	movl   $0x0,(%eax)
    98b8:	c7 40 04 00 00 00 00 	movl   $0x0,0x4(%eax)
    98bf:	89 f8                	mov    %edi,%eax
    98c1:	e9 30 fd ff ff       	jmp    95f6 <read_block_pointer+0x496>
    98c6:	8d 76 00             	lea    0x0(%esi),%esi
    98c9:	8d bc 27 00 00 00 00 	lea    0x0(%edi,%eiz,1),%edi
    98d0:	29 cf                	sub    %ecx,%edi
    98d2:	eb bd                	jmp    9891 <read_block_pointer+0x731>
    98d4:	8d b6 00 00 00 00    	lea    0x0(%esi),%esi
    98da:	8d bf 00 00 00 00    	lea    0x0(%edi),%edi
    98e0:	8b 5f 18             	mov    0x18(%edi),%ebx
    98e3:	8b 45 c0             	mov    -0x40(%ebp),%eax
    98e6:	89 44 24 04          	mov    %eax,0x4(%esp)
    98ea:	89 d8                	mov    %ebx,%eax
    98ec:	c1 e8 02             	shr    $0x2,%eax
    98ef:	89 04 24             	mov    %eax,(%esp)
    98f2:	e8 5f 21 00 00       	call   ba56 <pow>
    98f7:	0f af d8             	imul   %eax,%ebx
    98fa:	89 5d a4             	mov    %ebx,-0x5c(%ebp)
    98fd:	e9 c6 fb ff ff       	jmp    94c8 <read_block_pointer+0x368>
    9902:	8d b4 26 00 00 00 00 	lea    0x0(%esi,%eiz,1),%esi
    9909:	8d bc 27 00 00 00 00 	lea    0x0(%edi,%eiz,1),%edi
    9910:	89 74 24 08          	mov    %esi,0x8(%esp)
    9914:	8b 87 ec 00 00 00    	mov    0xec(%edi),%eax
    991a:	89 44 24 04          	mov    %eax,0x4(%esp)
    991e:	8b 45 b8             	mov    -0x48(%ebp),%eax
    9921:	89 04 24             	mov    %eax,(%esp)
    9924:	e8 77 28 00 00       	call   c1a0 <memcpy>
    9929:	89 f0                	mov    %esi,%eax
    992b:	e9 8f fc ff ff       	jmp    95bf <read_block_pointer+0x45f>
    9930:	8b 45 a4             	mov    -0x5c(%ebp),%eax
    9933:	29 d8                	sub    %ebx,%eax
    9935:	e9 82 fc ff ff       	jmp    95bc <read_block_pointer+0x45c>
    993a:	8d b6 00 00 00 00    	lea    0x0(%esi),%esi
    9940:	8b 45 dc             	mov    -0x24(%ebp),%eax
    9943:	8b 58 18             	mov    0x18(%eax),%ebx
    9946:	8b 45 ac             	mov    -0x54(%ebp),%eax
    9949:	89 44 24 04          	mov    %eax,0x4(%esp)
    994d:	89 d8                	mov    %ebx,%eax
    994f:	c1 e8 02             	shr    $0x2,%eax
    9952:	89 04 24             	mov    %eax,(%esp)
    9955:	e8 fc 20 00 00       	call   ba56 <pow>
    995a:	0f af d8             	imul   %eax,%ebx
    995d:	89 5d 98             	mov    %ebx,-0x68(%ebp)
    9960:	e9 79 fa ff ff       	jmp    93de <read_block_pointer+0x27e>
    9965:	8d 74 26 00          	lea    0x0(%esi,%eiz,1),%esi
    9969:	8d bc 27 00 00 00 00 	lea    0x0(%edi,%eiz,1),%edi
    9970:	8b 45 98             	mov    -0x68(%ebp),%eax
    9973:	e9 7b fc ff ff       	jmp    95f3 <read_block_pointer+0x493>
    9978:	90                   	nop
    9979:	8d b4 26 00 00 00 00 	lea    0x0(%esi,%eiz,1),%esi
    9980:	89 7c 24 08          	mov    %edi,0x8(%esp)
    9984:	8b 45 dc             	mov    -0x24(%ebp),%eax
    9987:	8b 80 ec 00 00 00    	mov    0xec(%eax),%eax
    998d:	89 44 24 04          	mov    %eax,0x4(%esp)
    9991:	8b 45 b4             	mov    -0x4c(%ebp),%eax
    9994:	89 04 24             	mov    %eax,(%esp)
    9997:	e8 04 28 00 00       	call   c1a0 <memcpy>
    999c:	89 f8                	mov    %edi,%eax
    999e:	e9 53 fc ff ff       	jmp    95f6 <read_block_pointer+0x496>
    99a3:	8d b6 00 00 00 00    	lea    0x0(%esi),%esi
    99a9:	8d bc 27 00 00 00 00 	lea    0x0(%edi,%eiz,1),%edi
    99b0:	31 c0                	xor    %eax,%eax
    99b2:	e9 05 fc ff ff       	jmp    95bc <read_block_pointer+0x45c>
    99b7:	89 f6                	mov    %esi,%esi
    99b9:	8d bc 27 00 00 00 00 	lea    0x0(%edi,%eiz,1),%edi
    99c0:	c7 04 24 2c ec 00 00 	movl   $0xec2c,(%esp)
    99c7:	e8 87 27 00 00       	call   c153 <panic>
    99cc:	8b 45 dc             	mov    -0x24(%ebp),%eax
    99cf:	8b 70 18             	mov    0x18(%eax),%esi
    99d2:	e9 ef fc ff ff       	jmp    96c6 <read_block_pointer+0x566>
    99d7:	89 f6                	mov    %esi,%esi
    99d9:	8d bc 27 00 00 00 00 	lea    0x0(%edi,%eiz,1),%edi
    99e0:	8b 45 08             	mov    0x8(%ebp),%eax
    99e3:	e9 42 fc ff ff       	jmp    962a <read_block_pointer+0x4ca>
    99e8:	90                   	nop
    99e9:	8d b4 26 00 00 00 00 	lea    0x0(%esi,%eiz,1),%esi
    99f0:	8b 7d e0             	mov    -0x20(%ebp),%edi
    99f3:	89 7c 24 08          	mov    %edi,0x8(%esp)
    99f7:	8b 45 c8             	mov    -0x38(%ebp),%eax
    99fa:	8b 80 ec 00 00 00    	mov    0xec(%eax),%eax
    9a00:	89 44 24 04          	mov    %eax,0x4(%esp)
    9a04:	8b 45 b4             	mov    -0x4c(%ebp),%eax
    9a07:	89 04 24             	mov    %eax,(%esp)
    9a0a:	e8 91 27 00 00       	call   c1a0 <memcpy>
    9a0f:	89 f8                	mov    %edi,%eax
    9a11:	e9 7d f8 ff ff       	jmp    9293 <read_block_pointer+0x133>
    9a16:	8d 76 00             	lea    0x0(%esi),%esi
    9a19:	8d bc 27 00 00 00 00 	lea    0x0(%edi,%eiz,1),%edi
    9a20:	31 c0                	xor    %eax,%eax
    9a22:	e9 cc fb ff ff       	jmp    95f3 <read_block_pointer+0x493>
    9a27:	31 c0                	xor    %eax,%eax
    9a29:	e9 fc fb ff ff       	jmp    962a <read_block_pointer+0x4ca>
    9a2e:	66 90                	xchg   %ax,%ax
    9a30:	c7 04 24 2c ec 00 00 	movl   $0xec2c,(%esp)
    9a37:	e8 17 27 00 00       	call   c153 <panic>
    9a3c:	8b 45 c8             	mov    -0x38(%ebp),%eax
    9a3f:	8b 78 18             	mov    0x18(%eax),%edi
    9a42:	e9 c4 fc ff ff       	jmp    970b <read_block_pointer+0x5ab>
    9a47:	c7 04 24 2c ec 00 00 	movl   $0xec2c,(%esp)
    9a4e:	e8 00 27 00 00       	call   c153 <panic>
    9a53:	31 c0                	xor    %eax,%eax
    9a55:	e9 39 f8 ff ff       	jmp    9293 <read_block_pointer+0x133>
    9a5a:	8d b6 00 00 00 00    	lea    0x0(%esi),%esi

00009a60 <ext2_inode_read>:
    9a60:	55                   	push   %ebp
    9a61:	57                   	push   %edi
    9a62:	56                   	push   %esi
    9a63:	53                   	push   %ebx
    9a64:	83 ec 4c             	sub    $0x4c,%esp
    9a67:	8b 44 24 70          	mov    0x70(%esp),%eax
    9a6b:	8b 54 24 74          	mov    0x74(%esp),%edx
    9a6f:	89 d1                	mov    %edx,%ecx
    9a71:	89 44 24 30          	mov    %eax,0x30(%esp)
    9a75:	89 c2                	mov    %eax,%edx
    9a77:	8b 44 24 68          	mov    0x68(%esp),%eax
    9a7b:	89 44 24 38          	mov    %eax,0x38(%esp)
    9a7f:	8b 44 24 6c          	mov    0x6c(%esp),%eax
    9a83:	89 44 24 3c          	mov    %eax,0x3c(%esp)
    9a87:	8b 44 24 60          	mov    0x60(%esp),%eax
    9a8b:	89 4c 24 34          	mov    %ecx,0x34(%esp)
    9a8f:	89 54 24 24          	mov    %edx,0x24(%esp)
    9a93:	8b 40 54             	mov    0x54(%eax),%eax
    9a96:	85 d2                	test   %edx,%edx
    9a98:	89 44 24 2c          	mov    %eax,0x2c(%esp)
    9a9c:	0f 84 86 01 00 00    	je     9c28 <ext2_inode_read+0x1c8>
    9aa2:	c7 44 24 1c 00 00 00 	movl   $0x0,0x1c(%esp)
    9aa9:	00 
    9aaa:	eb 3a                	jmp    9ae6 <ext2_inode_read+0x86>
    9aac:	8d 74 26 00          	lea    0x0(%esi,%eiz,1),%esi
    9ab0:	29 c1                	sub    %eax,%ecx
    9ab2:	19 d3                	sbb    %edx,%ebx
    9ab4:	89 4c 24 38          	mov    %ecx,0x38(%esp)
    9ab8:	89 5c 24 3c          	mov    %ebx,0x3c(%esp)
    9abc:	31 c0                	xor    %eax,%eax
    9abe:	8b 74 24 64          	mov    0x64(%esp),%esi
    9ac2:	8b 7c 24 1c          	mov    0x1c(%esp),%edi
    9ac6:	01 c6                	add    %eax,%esi
    9ac8:	47                   	inc    %edi
    9ac9:	29 44 24 24          	sub    %eax,0x24(%esp)
    9acd:	89 74 24 64          	mov    %esi,0x64(%esp)
    9ad1:	89 7c 24 1c          	mov    %edi,0x1c(%esp)
    9ad5:	0f 84 45 01 00 00    	je     9c20 <ext2_inode_read+0x1c0>
    9adb:	83 7c 24 1c 0b       	cmpl   $0xb,0x1c(%esp)
    9ae0:	0f 87 3a 01 00 00    	ja     9c20 <ext2_inode_read+0x1c0>
    9ae6:	8b 5c 24 1c          	mov    0x1c(%esp),%ebx
    9aea:	8b 44 24 2c          	mov    0x2c(%esp),%eax
    9aee:	31 d2                	xor    %edx,%edx
    9af0:	8b 4c 24 38          	mov    0x38(%esp),%ecx
    9af4:	8b 44 98 28          	mov    0x28(%eax,%ebx,4),%eax
    9af8:	8b 5c 24 3c          	mov    0x3c(%esp),%ebx
    9afc:	89 44 24 28          	mov    %eax,0x28(%esp)
    9b00:	8b 44 24 60          	mov    0x60(%esp),%eax
    9b04:	83 fb 00             	cmp    $0x0,%ebx
    9b07:	8b 68 04             	mov    0x4(%eax),%ebp
    9b0a:	8b 7d 60             	mov    0x60(%ebp),%edi
    9b0d:	8b 77 18             	mov    0x18(%edi),%esi
    9b10:	89 f0                	mov    %esi,%eax
    9b12:	77 9c                	ja     9ab0 <ext2_inode_read+0x50>
    9b14:	39 f1                	cmp    %esi,%ecx
    9b16:	73 98                	jae    9ab0 <ext2_inode_read+0x50>
    9b18:	8b 44 24 24          	mov    0x24(%esp),%eax
    9b1c:	89 44 24 20          	mov    %eax,0x20(%esp)
    9b20:	39 f0                	cmp    %esi,%eax
    9b22:	76 04                	jbe    9b28 <ext2_inode_read+0xc8>
    9b24:	89 74 24 20          	mov    %esi,0x20(%esp)
    9b28:	8b 5d 5c             	mov    0x5c(%ebp),%ebx
    9b2b:	89 f0                	mov    %esi,%eax
    9b2d:	31 d2                	xor    %edx,%edx
    9b2f:	8b 4b 14             	mov    0x14(%ebx),%ecx
    9b32:	c7 44 24 14 00 00 00 	movl   $0x0,0x14(%esp)
    9b39:	00 
    9b3a:	f7 f1                	div    %ecx
    9b3c:	89 44 24 10          	mov    %eax,0x10(%esp)
    9b40:	8b 44 24 28          	mov    0x28(%esp),%eax
    9b44:	0f af c6             	imul   %esi,%eax
    9b47:	31 d2                	xor    %edx,%edx
    9b49:	c7 44 24 0c 00 00 00 	movl   $0x0,0xc(%esp)
    9b50:	00 
    9b51:	f7 f1                	div    %ecx
    9b53:	89 44 24 08          	mov    %eax,0x8(%esp)
    9b57:	8b 87 ec 00 00 00    	mov    0xec(%edi),%eax
    9b5d:	89 1c 24             	mov    %ebx,(%esp)
    9b60:	89 44 24 04          	mov    %eax,0x4(%esp)
    9b64:	e8 b7 18 00 00       	call   b420 <blockdev_read>
    9b69:	8b 77 18             	mov    0x18(%edi),%esi
    9b6c:	89 c1                	mov    %eax,%ecx
    9b6e:	89 d5                	mov    %edx,%ebp
    9b70:	89 f0                	mov    %esi,%eax
    9b72:	31 d2                	xor    %edx,%edx
    9b74:	f7 73 14             	divl   0x14(%ebx)
    9b77:	31 c1                	xor    %eax,%ecx
    9b79:	09 cd                	or     %ecx,%ebp
    9b7b:	0f 85 bf 00 00 00    	jne    9c40 <ext2_inode_read+0x1e0>
    9b81:	8b 5c 24 3c          	mov    0x3c(%esp),%ebx
    9b85:	8b 4c 24 38          	mov    0x38(%esp),%ecx
    9b89:	89 d8                	mov    %ebx,%eax
    9b8b:	09 c8                	or     %ecx,%eax
    9b8d:	74 61                	je     9bf0 <ext2_inode_read+0x190>
    9b8f:	8b 44 24 20          	mov    0x20(%esp),%eax
    9b93:	31 d2                	xor    %edx,%edx
    9b95:	01 c8                	add    %ecx,%eax
    9b97:	11 da                	adc    %ebx,%edx
    9b99:	83 fa 00             	cmp    $0x0,%edx
    9b9c:	77 04                	ja     9ba2 <ext2_inode_read+0x142>
    9b9e:	39 f0                	cmp    %esi,%eax
    9ba0:	72 0a                	jb     9bac <ext2_inode_read+0x14c>
    9ba2:	8b 44 24 20          	mov    0x20(%esp),%eax
    9ba6:	29 c8                	sub    %ecx,%eax
    9ba8:	89 44 24 20          	mov    %eax,0x20(%esp)
    9bac:	8b 74 24 20          	mov    0x20(%esp),%esi
    9bb0:	8b 44 24 64          	mov    0x64(%esp),%eax
    9bb4:	89 74 24 08          	mov    %esi,0x8(%esp)
    9bb8:	8b af ec 00 00 00    	mov    0xec(%edi),%ebp
    9bbe:	89 04 24             	mov    %eax,(%esp)
    9bc1:	01 e9                	add    %ebp,%ecx
    9bc3:	89 4c 24 04          	mov    %ecx,0x4(%esp)
    9bc7:	e8 d4 25 00 00       	call   c1a0 <memcpy>
    9bcc:	c7 44 24 38 00 00 00 	movl   $0x0,0x38(%esp)
    9bd3:	00 
    9bd4:	c7 44 24 3c 00 00 00 	movl   $0x0,0x3c(%esp)
    9bdb:	00 
    9bdc:	89 f0                	mov    %esi,%eax
    9bde:	e9 db fe ff ff       	jmp    9abe <ext2_inode_read+0x5e>
    9be3:	8d b6 00 00 00 00    	lea    0x0(%esi),%esi
    9be9:	8d bc 27 00 00 00 00 	lea    0x0(%edi,%eiz,1),%edi
    9bf0:	8b 5c 24 20          	mov    0x20(%esp),%ebx
    9bf4:	89 5c 24 08          	mov    %ebx,0x8(%esp)
    9bf8:	8b 87 ec 00 00 00    	mov    0xec(%edi),%eax
    9bfe:	89 44 24 04          	mov    %eax,0x4(%esp)
    9c02:	8b 44 24 64          	mov    0x64(%esp),%eax
    9c06:	89 04 24             	mov    %eax,(%esp)
    9c09:	e8 92 25 00 00       	call   c1a0 <memcpy>
    9c0e:	89 d8                	mov    %ebx,%eax
    9c10:	e9 a9 fe ff ff       	jmp    9abe <ext2_inode_read+0x5e>
    9c15:	8d 74 26 00          	lea    0x0(%esi,%eiz,1),%esi
    9c19:	8d bc 27 00 00 00 00 	lea    0x0(%edi,%eiz,1),%edi
    9c20:	8b 5c 24 24          	mov    0x24(%esp),%ebx
    9c24:	85 db                	test   %ebx,%ebx
    9c26:	75 38                	jne    9c60 <ext2_inode_read+0x200>
    9c28:	31 f6                	xor    %esi,%esi
    9c2a:	31 ff                	xor    %edi,%edi
    9c2c:	8b 44 24 30          	mov    0x30(%esp),%eax
    9c30:	8b 54 24 34          	mov    0x34(%esp),%edx
    9c34:	29 f0                	sub    %esi,%eax
    9c36:	19 fa                	sbb    %edi,%edx
    9c38:	83 c4 4c             	add    $0x4c,%esp
    9c3b:	5b                   	pop    %ebx
    9c3c:	5e                   	pop    %esi
    9c3d:	5f                   	pop    %edi
    9c3e:	5d                   	pop    %ebp
    9c3f:	c3                   	ret    
    9c40:	c7 04 24 2c ec 00 00 	movl   $0xec2c,(%esp)
    9c47:	e8 07 25 00 00       	call   c153 <panic>
    9c4c:	31 c0                	xor    %eax,%eax
    9c4e:	e9 6b fe ff ff       	jmp    9abe <ext2_inode_read+0x5e>
    9c53:	8d b6 00 00 00 00    	lea    0x0(%esi),%esi
    9c59:	8d bc 27 00 00 00 00 	lea    0x0(%edi,%eiz,1),%edi
    9c60:	8b 6c 24 2c          	mov    0x2c(%esp),%ebp
    9c64:	8b 44 24 60          	mov    0x60(%esp),%eax
    9c68:	8b 74 24 24          	mov    0x24(%esp),%esi
    9c6c:	8d 5c 24 38          	lea    0x38(%esp),%ebx
    9c70:	8b 4d 58             	mov    0x58(%ebp),%ecx
    9c73:	8b 40 04             	mov    0x4(%eax),%eax
    9c76:	8b 54 24 64          	mov    0x64(%esp),%edx
    9c7a:	89 34 24             	mov    %esi,(%esp)
    9c7d:	c7 44 24 08 01 00 00 	movl   $0x1,0x8(%esp)
    9c84:	00 
    9c85:	89 5c 24 04          	mov    %ebx,0x4(%esp)
    9c89:	e8 d2 f4 ff ff       	call   9160 <read_block_pointer>
    9c8e:	8b 7c 24 64          	mov    0x64(%esp),%edi
    9c92:	01 c7                	add    %eax,%edi
    9c94:	29 c6                	sub    %eax,%esi
    9c96:	74 90                	je     9c28 <ext2_inode_read+0x1c8>
    9c98:	8b 44 24 60          	mov    0x60(%esp),%eax
    9c9c:	8b 4d 5c             	mov    0x5c(%ebp),%ecx
    9c9f:	89 fa                	mov    %edi,%edx
    9ca1:	8b 40 04             	mov    0x4(%eax),%eax
    9ca4:	89 34 24             	mov    %esi,(%esp)
    9ca7:	c7 44 24 08 02 00 00 	movl   $0x2,0x8(%esp)
    9cae:	00 
    9caf:	89 5c 24 04          	mov    %ebx,0x4(%esp)
    9cb3:	e8 a8 f4 ff ff       	call   9160 <read_block_pointer>
    9cb8:	29 c6                	sub    %eax,%esi
    9cba:	8d 14 07             	lea    (%edi,%eax,1),%edx
    9cbd:	0f 84 65 ff ff ff    	je     9c28 <ext2_inode_read+0x1c8>
    9cc3:	8b 44 24 60          	mov    0x60(%esp),%eax
    9cc7:	8b 4d 60             	mov    0x60(%ebp),%ecx
    9cca:	31 ff                	xor    %edi,%edi
    9ccc:	8b 40 04             	mov    0x4(%eax),%eax
    9ccf:	89 34 24             	mov    %esi,(%esp)
    9cd2:	c7 44 24 08 03 00 00 	movl   $0x3,0x8(%esp)
    9cd9:	00 
    9cda:	89 5c 24 04          	mov    %ebx,0x4(%esp)
    9cde:	e8 7d f4 ff ff       	call   9160 <read_block_pointer>
    9ce3:	29 c6                	sub    %eax,%esi
    9ce5:	e9 42 ff ff ff       	jmp    9c2c <ext2_inode_read+0x1cc>
    9cea:	8d b6 00 00 00 00    	lea    0x0(%esi),%esi

00009cf0 <ext2_inode_finddir>:
    9cf0:	55                   	push   %ebp
    9cf1:	89 e5                	mov    %esp,%ebp
    9cf3:	57                   	push   %edi
    9cf4:	56                   	push   %esi
    9cf5:	53                   	push   %ebx
    9cf6:	83 ec 3c             	sub    $0x3c,%esp
    9cf9:	31 ff                	xor    %edi,%edi
    9cfb:	8b 5d 08             	mov    0x8(%ebp),%ebx
    9cfe:	8b 43 04             	mov    0x4(%ebx),%eax
    9d01:	8b 53 1c             	mov    0x1c(%ebx),%edx
    9d04:	8b 4b 20             	mov    0x20(%ebx),%ecx
    9d07:	8b 40 60             	mov    0x60(%eax),%eax
    9d0a:	89 45 d0             	mov    %eax,-0x30(%ebp)
    9d0d:	8d 42 0f             	lea    0xf(%edx),%eax
    9d10:	83 e0 f0             	and    $0xfffffff0,%eax
    9d13:	29 c4                	sub    %eax,%esp
    9d15:	8d 44 24 18          	lea    0x18(%esp),%eax
    9d19:	89 54 24 10          	mov    %edx,0x10(%esp)
    9d1d:	89 4c 24 14          	mov    %ecx,0x14(%esp)
    9d21:	c7 44 24 08 00 00 00 	movl   $0x0,0x8(%esp)
    9d28:	00 
    9d29:	c7 44 24 0c 00 00 00 	movl   $0x0,0xc(%esp)
    9d30:	00 
    9d31:	89 44 24 04          	mov    %eax,0x4(%esp)
    9d35:	89 1c 24             	mov    %ebx,(%esp)
    9d38:	89 45 d4             	mov    %eax,-0x2c(%ebp)
    9d3b:	e8 20 fd ff ff       	call   9a60 <ext2_inode_read>
    9d40:	8b 43 20             	mov    0x20(%ebx),%eax
    9d43:	0b 43 1c             	or     0x1c(%ebx),%eax
    9d46:	74 3f                	je     9d87 <ext2_inode_finddir+0x97>
    9d48:	89 5d 08             	mov    %ebx,0x8(%ebp)
    9d4b:	90                   	nop
    9d4c:	8d 74 26 00          	lea    0x0(%esi,%eiz,1),%esi
    9d50:	8b 45 d4             	mov    -0x2c(%ebp),%eax
    9d53:	8d 1c 38             	lea    (%eax,%edi,1),%ebx
    9d56:	31 c0                	xor    %eax,%eax
    9d58:	8a 43 06             	mov    0x6(%ebx),%al
    9d5b:	8d 73 08             	lea    0x8(%ebx),%esi
    9d5e:	89 44 24 08          	mov    %eax,0x8(%esp)
    9d62:	8b 45 0c             	mov    0xc(%ebp),%eax
    9d65:	89 74 24 04          	mov    %esi,0x4(%esp)
    9d69:	89 04 24             	mov    %eax,(%esp)
    9d6c:	e8 e5 24 00 00       	call   c256 <memcmp>
    9d71:	85 c0                	test   %eax,%eax
    9d73:	74 3b                	je     9db0 <ext2_inode_finddir+0xc0>
    9d75:	31 c0                	xor    %eax,%eax
    9d77:	8b 4d 08             	mov    0x8(%ebp),%ecx
    9d7a:	66 8b 43 04          	mov    0x4(%ebx),%ax
    9d7e:	31 d2                	xor    %edx,%edx
    9d80:	01 c7                	add    %eax,%edi
    9d82:	3b 51 20             	cmp    0x20(%ecx),%edx
    9d85:	76 19                	jbe    9da0 <ext2_inode_finddir+0xb0>
    9d87:	8d 65 f4             	lea    -0xc(%ebp),%esp
    9d8a:	31 c0                	xor    %eax,%eax
    9d8c:	5b                   	pop    %ebx
    9d8d:	5e                   	pop    %esi
    9d8e:	5f                   	pop    %edi
    9d8f:	5d                   	pop    %ebp
    9d90:	c3                   	ret    
    9d91:	eb 0d                	jmp    9da0 <ext2_inode_finddir+0xb0>
    9d93:	90                   	nop
    9d94:	90                   	nop
    9d95:	90                   	nop
    9d96:	90                   	nop
    9d97:	90                   	nop
    9d98:	90                   	nop
    9d99:	90                   	nop
    9d9a:	90                   	nop
    9d9b:	90                   	nop
    9d9c:	90                   	nop
    9d9d:	90                   	nop
    9d9e:	90                   	nop
    9d9f:	90                   	nop
    9da0:	72 ae                	jb     9d50 <ext2_inode_finddir+0x60>
    9da2:	3b 79 1c             	cmp    0x1c(%ecx),%edi
    9da5:	73 e0                	jae    9d87 <ext2_inode_finddir+0x97>
    9da7:	eb a7                	jmp    9d50 <ext2_inode_finddir+0x60>
    9da9:	8d b4 26 00 00 00 00 	lea    0x0(%esi,%eiz,1),%esi
    9db0:	8b 55 d0             	mov    -0x30(%ebp),%edx
    9db3:	31 c0                	xor    %eax,%eax
    9db5:	89 75 d4             	mov    %esi,-0x2c(%ebp)
    9db8:	89 de                	mov    %ebx,%esi
    9dba:	66 8b 42 58          	mov    0x58(%edx),%ax
    9dbe:	8b 5d 08             	mov    0x8(%ebp),%ebx
    9dc1:	89 04 24             	mov    %eax,(%esp)
    9dc4:	e8 57 15 00 00       	call   b320 <malloc>
    9dc9:	8b 0e                	mov    (%esi),%ecx
    9dcb:	89 c7                	mov    %eax,%edi
    9dcd:	8b 43 04             	mov    0x4(%ebx),%eax
    9dd0:	89 fa                	mov    %edi,%edx
    9dd2:	e8 79 f0 ff ff       	call   8e50 <read_inode>
    9dd7:	85 c0                	test   %eax,%eax
    9dd9:	75 ac                	jne    9d87 <ext2_inode_finddir+0x97>
    9ddb:	c7 04 24 58 00 00 00 	movl   $0x58,(%esp)
    9de2:	e8 39 15 00 00       	call   b320 <malloc>
    9de7:	89 c1                	mov    %eax,%ecx
    9de9:	8b 43 04             	mov    0x4(%ebx),%eax
    9dec:	89 4d d0             	mov    %ecx,-0x30(%ebp)
    9def:	89 41 04             	mov    %eax,0x4(%ecx)
    9df2:	8d 45 e0             	lea    -0x20(%ebp),%eax
    9df5:	c7 01 3c ef 00 00    	movl   $0xef3c,(%ecx)
    9dfb:	89 04 24             	mov    %eax,(%esp)
    9dfe:	e8 31 29 00 00       	call   c734 <list_create>
    9e03:	8b 4d d0             	mov    -0x30(%ebp),%ecx
    9e06:	8b 55 e4             	mov    -0x1c(%ebp),%edx
    9e09:	50                   	push   %eax
    9e0a:	8b 45 e0             	mov    -0x20(%ebp),%eax
    9e0d:	89 41 08             	mov    %eax,0x8(%ecx)
    9e10:	8d 45 d8             	lea    -0x28(%ebp),%eax
    9e13:	89 51 0c             	mov    %edx,0xc(%ecx)
    9e16:	89 04 24             	mov    %eax,(%esp)
    9e19:	e8 fe 26 00 00       	call   c51c <dict_create>
    9e1e:	8b 4d d0             	mov    -0x30(%ebp),%ecx
    9e21:	8b 55 dc             	mov    -0x24(%ebp),%edx
    9e24:	50                   	push   %eax
    9e25:	8b 45 d8             	mov    -0x28(%ebp),%eax
    9e28:	89 41 10             	mov    %eax,0x10(%ecx)
    9e2b:	8b 47 04             	mov    0x4(%edi),%eax
    9e2e:	89 41 1c             	mov    %eax,0x1c(%ecx)
    9e31:	31 c0                	xor    %eax,%eax
    9e33:	66 8b 47 1a          	mov    0x1a(%edi),%ax
    9e37:	89 51 14             	mov    %edx,0x14(%ecx)
    9e3a:	89 41 28             	mov    %eax,0x28(%ecx)
    9e3d:	31 c0                	xor    %eax,%eax
    9e3f:	66 8b 47 02          	mov    0x2(%edi),%ax
    9e43:	c7 41 20 00 00 00 00 	movl   $0x0,0x20(%ecx)
    9e4a:	89 41 2c             	mov    %eax,0x2c(%ecx)
    9e4d:	31 c0                	xor    %eax,%eax
    9e4f:	66 8b 47 18          	mov    0x18(%edi),%ax
    9e53:	89 41 30             	mov    %eax,0x30(%ecx)
    9e56:	8b 47 08             	mov    0x8(%edi),%eax
    9e59:	89 41 34             	mov    %eax,0x34(%ecx)
    9e5c:	8b 47 10             	mov    0x10(%edi),%eax
    9e5f:	89 41 3c             	mov    %eax,0x3c(%ecx)
    9e62:	8b 47 0c             	mov    0xc(%edi),%eax
    9e65:	89 41 44             	mov    %eax,0x44(%ecx)
    9e68:	8b 47 14             	mov    0x14(%edi),%eax
    9e6b:	89 41 4c             	mov    %eax,0x4c(%ecx)
    9e6e:	8d 41 08             	lea    0x8(%ecx),%eax
    9e71:	89 79 54             	mov    %edi,0x54(%ecx)
    9e74:	c7 41 38 00 00 00 00 	movl   $0x0,0x38(%ecx)
    9e7b:	c7 41 40 00 00 00 00 	movl   $0x0,0x40(%ecx)
    9e82:	c7 41 48 00 00 00 00 	movl   $0x0,0x48(%ecx)
    9e89:	c7 41 50 00 00 00 00 	movl   $0x0,0x50(%ecx)
    9e90:	89 5c 24 04          	mov    %ebx,0x4(%esp)
    9e94:	89 04 24             	mov    %eax,(%esp)
    9e97:	e8 0e 29 00 00       	call   c7aa <list_insert_tail>
    9e9c:	c7 04 24 08 00 00 00 	movl   $0x8,(%esp)
    9ea3:	e8 78 14 00 00       	call   b320 <malloc>
    9ea8:	89 c7                	mov    %eax,%edi
    9eaa:	31 c0                	xor    %eax,%eax
    9eac:	8a 46 06             	mov    0x6(%esi),%al
    9eaf:	89 04 24             	mov    %eax,(%esp)
    9eb2:	e8 69 14 00 00       	call   b320 <malloc>
    9eb7:	31 d2                	xor    %edx,%edx
    9eb9:	89 07                	mov    %eax,(%edi)
    9ebb:	8a 56 06             	mov    0x6(%esi),%dl
    9ebe:	89 04 24             	mov    %eax,(%esp)
    9ec1:	89 54 24 08          	mov    %edx,0x8(%esp)
    9ec5:	8b 55 d4             	mov    -0x2c(%ebp),%edx
    9ec8:	89 54 24 04          	mov    %edx,0x4(%esp)
    9ecc:	e8 cf 22 00 00       	call   c1a0 <memcpy>
    9ed1:	8b 4d d0             	mov    -0x30(%ebp),%ecx
    9ed4:	8b 45 0c             	mov    0xc(%ebp),%eax
    9ed7:	89 4f 04             	mov    %ecx,0x4(%edi)
    9eda:	89 44 24 04          	mov    %eax,0x4(%esp)
    9ede:	8d 43 10             	lea    0x10(%ebx),%eax
    9ee1:	89 7c 24 08          	mov    %edi,0x8(%esp)
    9ee5:	89 04 24             	mov    %eax,(%esp)
    9ee8:	89 4d d4             	mov    %ecx,-0x2c(%ebp)
    9eeb:	e8 5d 26 00 00       	call   c54d <dict_append>
    9ef0:	8b 4d d4             	mov    -0x2c(%ebp),%ecx
    9ef3:	8d 65 f4             	lea    -0xc(%ebp),%esp
    9ef6:	89 c8                	mov    %ecx,%eax
    9ef8:	5b                   	pop    %ebx
    9ef9:	5e                   	pop    %esi
    9efa:	5f                   	pop    %edi
    9efb:	5d                   	pop    %ebp
    9efc:	c3                   	ret    
    9efd:	8d 76 00             	lea    0x0(%esi),%esi

00009f00 <ext2_init>:
    9f00:	83 ec 1c             	sub    $0x1c,%esp
    9f03:	c7 44 24 04 34 ef 00 	movl   $0xef34,0x4(%esp)
    9f0a:	00 
    9f0b:	c7 04 24 91 e9 00 00 	movl   $0xe991,(%esp)
    9f12:	e8 19 00 00 00       	call   9f30 <fs_register>
    9f17:	83 c4 1c             	add    $0x1c,%esp
    9f1a:	c3                   	ret    
    9f1b:	66 90                	xchg   %ax,%ax
    9f1d:	66 90                	xchg   %ax,%ax
    9f1f:	90                   	nop

00009f20 <root_inode_finddir>:
    9f20:	8b 44 24 04          	mov    0x4(%esp),%eax
    9f24:	c3                   	ret    
    9f25:	8d 74 26 00          	lea    0x0(%esi,%eiz,1),%esi
    9f29:	8d bc 27 00 00 00 00 	lea    0x0(%edi,%eiz,1),%edi

00009f30 <fs_register>:
    9f30:	83 ec 1c             	sub    $0x1c,%esp
    9f33:	8b 44 24 24          	mov    0x24(%esp),%eax
    9f37:	c7 04 24 b4 ef 00 00 	movl   $0xefb4,(%esp)
    9f3e:	89 44 24 08          	mov    %eax,0x8(%esp)
    9f42:	8b 44 24 20          	mov    0x20(%esp),%eax
    9f46:	89 44 24 04          	mov    %eax,0x4(%esp)
    9f4a:	e8 fe 25 00 00       	call   c54d <dict_append>
    9f4f:	31 c0                	xor    %eax,%eax
    9f51:	83 c4 1c             	add    $0x1c,%esp
    9f54:	c3                   	ret    
    9f55:	8d 74 26 00          	lea    0x0(%esi,%eiz,1),%esi
    9f59:	8d bc 27 00 00 00 00 	lea    0x0(%edi,%eiz,1),%edi

00009f60 <fs_unregister>:
    9f60:	83 ec 1c             	sub    $0x1c,%esp
    9f63:	8b 44 24 20          	mov    0x20(%esp),%eax
    9f67:	c7 04 24 b4 ef 00 00 	movl   $0xefb4,(%esp)
    9f6e:	89 44 24 04          	mov    %eax,0x4(%esp)
    9f72:	e8 41 26 00 00       	call   c5b8 <dict_remove>
    9f77:	31 c0                	xor    %eax,%eax
    9f79:	83 c4 1c             	add    $0x1c,%esp
    9f7c:	c3                   	ret    
    9f7d:	8d 76 00             	lea    0x0(%esi),%esi

00009f80 <fs_mount>:
    9f80:	55                   	push   %ebp
    9f81:	89 e5                	mov    %esp,%ebp
    9f83:	57                   	push   %edi
    9f84:	56                   	push   %esi
    9f85:	53                   	push   %ebx
    9f86:	83 ec 3c             	sub    $0x3c,%esp
    9f89:	8d 75 cc             	lea    -0x34(%ebp),%esi
    9f8c:	8b 45 0c             	mov    0xc(%ebp),%eax
    9f8f:	8b 1d a8 ef 00 00    	mov    0xefa8,%ebx
    9f95:	89 74 24 08          	mov    %esi,0x8(%esp)
    9f99:	c7 44 24 04 96 e9 00 	movl   $0xe996,0x4(%esp)
    9fa0:	00 
    9fa1:	89 04 24             	mov    %eax,(%esp)
    9fa4:	e8 95 23 00 00       	call   c33e <strtok_r>
    9fa9:	85 c0                	test   %eax,%eax
    9fab:	75 1f                	jne    9fcc <fs_mount+0x4c>
    9fad:	eb 33                	jmp    9fe2 <fs_mount+0x62>
    9faf:	90                   	nop
    9fb0:	89 74 24 08          	mov    %esi,0x8(%esp)
    9fb4:	c7 44 24 04 96 e9 00 	movl   $0xe996,0x4(%esp)
    9fbb:	00 
    9fbc:	c7 04 24 00 00 00 00 	movl   $0x0,(%esp)
    9fc3:	e8 76 23 00 00       	call   c33e <strtok_r>
    9fc8:	85 c0                	test   %eax,%eax
    9fca:	74 16                	je     9fe2 <fs_mount+0x62>
    9fcc:	8b 13                	mov    (%ebx),%edx
    9fce:	8b 52 08             	mov    0x8(%edx),%edx
    9fd1:	89 1c 24             	mov    %ebx,(%esp)
    9fd4:	89 44 24 04          	mov    %eax,0x4(%esp)
    9fd8:	ff d2                	call   *%edx
    9fda:	89 c3                	mov    %eax,%ebx
    9fdc:	85 c0                	test   %eax,%eax
    9fde:	75 d0                	jne    9fb0 <fs_mount+0x30>
    9fe0:	31 db                	xor    %ebx,%ebx
    9fe2:	c7 44 24 04 ac ef 00 	movl   $0xefac,0x4(%esp)
    9fe9:	00 
    9fea:	89 34 24             	mov    %esi,(%esp)
    9fed:	e8 bd 28 00 00       	call   c8af <list_head>
    9ff2:	50                   	push   %eax
    9ff3:	89 34 24             	mov    %esi,(%esp)
    9ff6:	ff 55 dc             	call   *-0x24(%ebp)
    9ff9:	89 45 c8             	mov    %eax,-0x38(%ebp)
    9ffc:	85 c0                	test   %eax,%eax
    9ffe:	75 1d                	jne    a01d <fs_mount+0x9d>
    a000:	eb 2e                	jmp    a030 <fs_mount+0xb0>
    a002:	8d b4 26 00 00 00 00 	lea    0x0(%esi,%eiz,1),%esi
    a009:	8d bc 27 00 00 00 00 	lea    0x0(%edi,%eiz,1),%edi
    a010:	89 34 24             	mov    %esi,(%esp)
    a013:	ff 55 d8             	call   *-0x28(%ebp)
    a016:	89 45 c8             	mov    %eax,-0x38(%ebp)
    a019:	85 c0                	test   %eax,%eax
    a01b:	74 13                	je     a030 <fs_mount+0xb0>
    a01d:	39 18                	cmp    %ebx,(%eax)
    a01f:	75 ef                	jne    a010 <fs_mount+0x90>
    a021:	83 ce ff             	or     $0xffffffff,%esi
    a024:	8d 65 f4             	lea    -0xc(%ebp),%esp
    a027:	89 f0                	mov    %esi,%eax
    a029:	5b                   	pop    %ebx
    a02a:	5e                   	pop    %esi
    a02b:	5f                   	pop    %edi
    a02c:	5d                   	pop    %ebp
    a02d:	c3                   	ret    
    a02e:	66 90                	xchg   %ax,%ax
    a030:	8b 45 10             	mov    0x10(%ebp),%eax
    a033:	c7 04 24 b4 ef 00 00 	movl   $0xefb4,(%esp)
    a03a:	89 44 24 04          	mov    %eax,0x4(%esp)
    a03e:	e8 d8 25 00 00       	call   c61b <dict_get>
    a043:	89 c6                	mov    %eax,%esi
    a045:	85 c0                	test   %eax,%eax
    a047:	74 d8                	je     a021 <fs_mount+0xa1>
    a049:	c7 04 24 64 00 00 00 	movl   $0x64,(%esp)
    a050:	e8 cb 12 00 00       	call   b320 <malloc>
    a055:	89 c7                	mov    %eax,%edi
    a057:	89 30                	mov    %esi,(%eax)
    a059:	8b 45 08             	mov    0x8(%ebp),%eax
    a05c:	89 47 5c             	mov    %eax,0x5c(%edi)
    a05f:	89 44 24 04          	mov    %eax,0x4(%esp)
    a063:	89 3c 24             	mov    %edi,(%esp)
    a066:	ff 16                	call   *(%esi)
    a068:	89 c6                	mov    %eax,%esi
    a06a:	85 c0                	test   %eax,%eax
    a06c:	75 b6                	jne    a024 <fs_mount+0xa4>
    a06e:	c7 04 24 60 00 00 00 	movl   $0x60,(%esp)
    a075:	e8 a6 12 00 00       	call   b320 <malloc>
    a07a:	89 45 c8             	mov    %eax,-0x38(%ebp)
    a07d:	83 c0 08             	add    $0x8,%eax
    a080:	89 58 f8             	mov    %ebx,-0x8(%eax)
    a083:	89 78 fc             	mov    %edi,-0x4(%eax)
    a086:	89 5c 24 04          	mov    %ebx,0x4(%esp)
    a08a:	c7 44 24 08 58 00 00 	movl   $0x58,0x8(%esp)
    a091:	00 
    a092:	89 04 24             	mov    %eax,(%esp)
    a095:	83 c7 04             	add    $0x4,%edi
    a098:	e8 03 21 00 00       	call   c1a0 <memcpy>
    a09d:	89 7c 24 04          	mov    %edi,0x4(%esp)
    a0a1:	89 1c 24             	mov    %ebx,(%esp)
    a0a4:	c7 44 24 08 58 00 00 	movl   $0x58,0x8(%esp)
    a0ab:	00 
    a0ac:	e8 ef 20 00 00       	call   c1a0 <memcpy>
    a0b1:	8d 45 c8             	lea    -0x38(%ebp),%eax
    a0b4:	89 44 24 04          	mov    %eax,0x4(%esp)
    a0b8:	c7 04 24 ac ef 00 00 	movl   $0xefac,(%esp)
    a0bf:	e8 e6 26 00 00       	call   c7aa <list_insert_tail>
    a0c4:	8d 65 f4             	lea    -0xc(%ebp),%esp
    a0c7:	89 f0                	mov    %esi,%eax
    a0c9:	5b                   	pop    %ebx
    a0ca:	5e                   	pop    %esi
    a0cb:	5f                   	pop    %edi
    a0cc:	5d                   	pop    %ebp
    a0cd:	c3                   	ret    
    a0ce:	66 90                	xchg   %ax,%ax

0000a0d0 <fs_unmount>:
    a0d0:	55                   	push   %ebp
    a0d1:	89 e5                	mov    %esp,%ebp
    a0d3:	57                   	push   %edi
    a0d4:	56                   	push   %esi
    a0d5:	53                   	push   %ebx
    a0d6:	83 ec 3c             	sub    $0x3c,%esp
    a0d9:	8d 7d cc             	lea    -0x34(%ebp),%edi
    a0dc:	8b 45 08             	mov    0x8(%ebp),%eax
    a0df:	8b 1d a8 ef 00 00    	mov    0xefa8,%ebx
    a0e5:	89 7c 24 08          	mov    %edi,0x8(%esp)
    a0e9:	c7 44 24 04 96 e9 00 	movl   $0xe996,0x4(%esp)
    a0f0:	00 
    a0f1:	89 04 24             	mov    %eax,(%esp)
    a0f4:	e8 45 22 00 00       	call   c33e <strtok_r>
    a0f9:	85 c0                	test   %eax,%eax
    a0fb:	75 1f                	jne    a11c <fs_unmount+0x4c>
    a0fd:	eb 33                	jmp    a132 <fs_unmount+0x62>
    a0ff:	90                   	nop
    a100:	89 7c 24 08          	mov    %edi,0x8(%esp)
    a104:	c7 44 24 04 96 e9 00 	movl   $0xe996,0x4(%esp)
    a10b:	00 
    a10c:	c7 04 24 00 00 00 00 	movl   $0x0,(%esp)
    a113:	e8 26 22 00 00       	call   c33e <strtok_r>
    a118:	85 c0                	test   %eax,%eax
    a11a:	74 16                	je     a132 <fs_unmount+0x62>
    a11c:	8b 13                	mov    (%ebx),%edx
    a11e:	8b 52 08             	mov    0x8(%edx),%edx
    a121:	89 1c 24             	mov    %ebx,(%esp)
    a124:	89 44 24 04          	mov    %eax,0x4(%esp)
    a128:	ff d2                	call   *%edx
    a12a:	89 c3                	mov    %eax,%ebx
    a12c:	85 c0                	test   %eax,%eax
    a12e:	75 d0                	jne    a100 <fs_unmount+0x30>
    a130:	31 db                	xor    %ebx,%ebx
    a132:	c7 44 24 04 ac ef 00 	movl   $0xefac,0x4(%esp)
    a139:	00 
    a13a:	89 3c 24             	mov    %edi,(%esp)
    a13d:	e8 6d 27 00 00       	call   c8af <list_head>
    a142:	52                   	push   %edx
    a143:	89 3c 24             	mov    %edi,(%esp)
    a146:	ff 55 dc             	call   *-0x24(%ebp)
    a149:	89 c6                	mov    %eax,%esi
    a14b:	85 c0                	test   %eax,%eax
    a14d:	75 1d                	jne    a16c <fs_unmount+0x9c>
    a14f:	eb 4f                	jmp    a1a0 <fs_unmount+0xd0>
    a151:	eb 0d                	jmp    a160 <fs_unmount+0x90>
    a153:	90                   	nop
    a154:	90                   	nop
    a155:	90                   	nop
    a156:	90                   	nop
    a157:	90                   	nop
    a158:	90                   	nop
    a159:	90                   	nop
    a15a:	90                   	nop
    a15b:	90                   	nop
    a15c:	90                   	nop
    a15d:	90                   	nop
    a15e:	90                   	nop
    a15f:	90                   	nop
    a160:	89 3c 24             	mov    %edi,(%esp)
    a163:	ff 55 d8             	call   *-0x28(%ebp)
    a166:	89 c6                	mov    %eax,%esi
    a168:	85 c0                	test   %eax,%eax
    a16a:	74 34                	je     a1a0 <fs_unmount+0xd0>
    a16c:	39 1e                	cmp    %ebx,(%esi)
    a16e:	75 f0                	jne    a160 <fs_unmount+0x90>
    a170:	8d 46 08             	lea    0x8(%esi),%eax
    a173:	89 1c 24             	mov    %ebx,(%esp)
    a176:	c7 44 24 08 58 00 00 	movl   $0x58,0x8(%esp)
    a17d:	00 
    a17e:	89 44 24 04          	mov    %eax,0x4(%esp)
    a182:	e8 19 20 00 00       	call   c1a0 <memcpy>
    a187:	89 3c 24             	mov    %edi,(%esp)
    a18a:	ff 55 e4             	call   *-0x1c(%ebp)
    a18d:	89 34 24             	mov    %esi,(%esp)
    a190:	e8 ab 11 00 00       	call   b340 <free>
    a195:	8d 65 f4             	lea    -0xc(%ebp),%esp
    a198:	31 c0                	xor    %eax,%eax
    a19a:	5b                   	pop    %ebx
    a19b:	5e                   	pop    %esi
    a19c:	5f                   	pop    %edi
    a19d:	5d                   	pop    %ebp
    a19e:	c3                   	ret    
    a19f:	90                   	nop
    a1a0:	8d 65 f4             	lea    -0xc(%ebp),%esp
    a1a3:	83 c8 ff             	or     $0xffffffff,%eax
    a1a6:	5b                   	pop    %ebx
    a1a7:	5e                   	pop    %esi
    a1a8:	5f                   	pop    %edi
    a1a9:	5d                   	pop    %ebp
    a1aa:	c3                   	ret    
    a1ab:	90                   	nop
    a1ac:	8d 74 26 00          	lea    0x0(%esi,%eiz,1),%esi

0000a1b0 <fs_open>:
    a1b0:	56                   	push   %esi
    a1b1:	53                   	push   %ebx
    a1b2:	83 ec 24             	sub    $0x24,%esp
    a1b5:	8b 1d a8 ef 00 00    	mov    0xefa8,%ebx
    a1bb:	8b 44 24 30          	mov    0x30(%esp),%eax
    a1bf:	8d 74 24 1c          	lea    0x1c(%esp),%esi
    a1c3:	89 74 24 08          	mov    %esi,0x8(%esp)
    a1c7:	c7 44 24 04 96 e9 00 	movl   $0xe996,0x4(%esp)
    a1ce:	00 
    a1cf:	89 04 24             	mov    %eax,(%esp)
    a1d2:	e8 67 21 00 00       	call   c33e <strtok_r>
    a1d7:	85 c0                	test   %eax,%eax
    a1d9:	75 21                	jne    a1fc <fs_open+0x4c>
    a1db:	eb 43                	jmp    a220 <fs_open+0x70>
    a1dd:	8d 76 00             	lea    0x0(%esi),%esi
    a1e0:	89 74 24 08          	mov    %esi,0x8(%esp)
    a1e4:	c7 44 24 04 96 e9 00 	movl   $0xe996,0x4(%esp)
    a1eb:	00 
    a1ec:	c7 04 24 00 00 00 00 	movl   $0x0,(%esp)
    a1f3:	e8 46 21 00 00       	call   c33e <strtok_r>
    a1f8:	85 c0                	test   %eax,%eax
    a1fa:	74 24                	je     a220 <fs_open+0x70>
    a1fc:	8b 13                	mov    (%ebx),%edx
    a1fe:	8b 52 08             	mov    0x8(%edx),%edx
    a201:	89 1c 24             	mov    %ebx,(%esp)
    a204:	89 44 24 04          	mov    %eax,0x4(%esp)
    a208:	ff d2                	call   *%edx
    a20a:	89 c3                	mov    %eax,%ebx
    a20c:	85 c0                	test   %eax,%eax
    a20e:	75 d0                	jne    a1e0 <fs_open+0x30>
    a210:	83 c4 24             	add    $0x24,%esp
    a213:	31 c0                	xor    %eax,%eax
    a215:	5b                   	pop    %ebx
    a216:	5e                   	pop    %esi
    a217:	c3                   	ret    
    a218:	90                   	nop
    a219:	8d b4 26 00 00 00 00 	lea    0x0(%esi,%eiz,1),%esi
    a220:	83 c4 24             	add    $0x24,%esp
    a223:	89 d8                	mov    %ebx,%eax
    a225:	5b                   	pop    %ebx
    a226:	5e                   	pop    %esi
    a227:	c3                   	ret    
    a228:	90                   	nop
    a229:	8d b4 26 00 00 00 00 	lea    0x0(%esi,%eiz,1),%esi

0000a230 <fs_read>:
    a230:	55                   	push   %ebp
    a231:	57                   	push   %edi
    a232:	56                   	push   %esi
    a233:	53                   	push   %ebx
    a234:	8b 7c 24 14          	mov    0x14(%esp),%edi
    a238:	8b 37                	mov    (%edi),%esi
    a23a:	8b 36                	mov    (%esi),%esi
    a23c:	85 f6                	test   %esi,%esi
    a23e:	74 10                	je     a250 <fs_read+0x20>
    a240:	89 f0                	mov    %esi,%eax
    a242:	5b                   	pop    %ebx
    a243:	5e                   	pop    %esi
    a244:	5f                   	pop    %edi
    a245:	5d                   	pop    %ebp
    a246:	ff e0                	jmp    *%eax
    a248:	90                   	nop
    a249:	8d b4 26 00 00 00 00 	lea    0x0(%esi,%eiz,1),%esi
    a250:	5b                   	pop    %ebx
    a251:	31 c0                	xor    %eax,%eax
    a253:	5e                   	pop    %esi
    a254:	31 d2                	xor    %edx,%edx
    a256:	5f                   	pop    %edi
    a257:	5d                   	pop    %ebp
    a258:	c3                   	ret    
    a259:	8d b4 26 00 00 00 00 	lea    0x0(%esi,%eiz,1),%esi

0000a260 <fs_write>:
    a260:	55                   	push   %ebp
    a261:	57                   	push   %edi
    a262:	56                   	push   %esi
    a263:	53                   	push   %ebx
    a264:	8b 7c 24 14          	mov    0x14(%esp),%edi
    a268:	8b 37                	mov    (%edi),%esi
    a26a:	8b 76 04             	mov    0x4(%esi),%esi
    a26d:	85 f6                	test   %esi,%esi
    a26f:	74 0f                	je     a280 <fs_write+0x20>
    a271:	89 f0                	mov    %esi,%eax
    a273:	5b                   	pop    %ebx
    a274:	5e                   	pop    %esi
    a275:	5f                   	pop    %edi
    a276:	5d                   	pop    %ebp
    a277:	ff e0                	jmp    *%eax
    a279:	8d b4 26 00 00 00 00 	lea    0x0(%esi,%eiz,1),%esi
    a280:	5b                   	pop    %ebx
    a281:	31 c0                	xor    %eax,%eax
    a283:	5e                   	pop    %esi
    a284:	31 d2                	xor    %edx,%edx
    a286:	5f                   	pop    %edi
    a287:	5d                   	pop    %ebp
    a288:	c3                   	ret    
    a289:	8d b4 26 00 00 00 00 	lea    0x0(%esi,%eiz,1),%esi

0000a290 <fs_init>:
    a290:	55                   	push   %ebp
    a291:	89 e5                	mov    %esp,%ebp
    a293:	57                   	push   %edi
    a294:	56                   	push   %esi
    a295:	53                   	push   %ebx
    a296:	83 ec 2c             	sub    $0x2c,%esp
    a299:	8d 5d e0             	lea    -0x20(%ebp),%ebx
    a29c:	8d 7d d8             	lea    -0x28(%ebp),%edi
    a29f:	89 1c 24             	mov    %ebx,(%esp)
    a2a2:	e8 75 22 00 00       	call   c51c <dict_create>
    a2a7:	8b 45 e0             	mov    -0x20(%ebp),%eax
    a2aa:	8b 55 e4             	mov    -0x1c(%ebp),%edx
    a2ad:	a3 b4 ef 00 00       	mov    %eax,0xefb4
    a2b2:	51                   	push   %ecx
    a2b3:	89 15 b8 ef 00 00    	mov    %edx,0xefb8
    a2b9:	89 3c 24             	mov    %edi,(%esp)
    a2bc:	e8 73 24 00 00       	call   c734 <list_create>
    a2c1:	8b 55 dc             	mov    -0x24(%ebp),%edx
    a2c4:	8b 45 d8             	mov    -0x28(%ebp),%eax
    a2c7:	89 15 b0 ef 00 00    	mov    %edx,0xefb0
    a2cd:	56                   	push   %esi
    a2ce:	a3 ac ef 00 00       	mov    %eax,0xefac
    a2d3:	c7 04 24 58 00 00 00 	movl   $0x58,(%esp)
    a2da:	e8 41 10 00 00       	call   b320 <malloc>
    a2df:	89 c6                	mov    %eax,%esi
    a2e1:	a3 a8 ef 00 00       	mov    %eax,0xefa8
    a2e6:	c7 00 58 ef 00 00    	movl   $0xef58,(%eax)
    a2ec:	c7 40 04 00 00 00 00 	movl   $0x0,0x4(%eax)
    a2f3:	89 3c 24             	mov    %edi,(%esp)
    a2f6:	e8 39 24 00 00       	call   c734 <list_create>
    a2fb:	8b 45 d8             	mov    -0x28(%ebp),%eax
    a2fe:	8b 55 dc             	mov    -0x24(%ebp),%edx
    a301:	57                   	push   %edi
    a302:	89 46 08             	mov    %eax,0x8(%esi)
    a305:	89 56 0c             	mov    %edx,0xc(%esi)
    a308:	89 1c 24             	mov    %ebx,(%esp)
    a30b:	8b 35 a8 ef 00 00    	mov    0xefa8,%esi
    a311:	e8 06 22 00 00       	call   c51c <dict_create>
    a316:	8b 55 e4             	mov    -0x1c(%ebp),%edx
    a319:	50                   	push   %eax
    a31a:	8b 45 e0             	mov    -0x20(%ebp),%eax
    a31d:	89 46 10             	mov    %eax,0x10(%esi)
    a320:	a1 a8 ef 00 00       	mov    0xefa8,%eax
    a325:	89 56 14             	mov    %edx,0x14(%esi)
    a328:	c7 40 18 01 00 00 00 	movl   $0x1,0x18(%eax)
    a32f:	c7 40 1c 00 00 00 00 	movl   $0x0,0x1c(%eax)
    a336:	c7 40 20 00 00 00 00 	movl   $0x0,0x20(%eax)
    a33d:	c7 40 24 ff 01 00 00 	movl   $0x1ff,0x24(%eax)
    a344:	c7 40 28 01 00 00 00 	movl   $0x1,0x28(%eax)
    a34b:	c7 40 30 00 00 00 00 	movl   $0x0,0x30(%eax)
    a352:	c7 40 2c 00 00 00 00 	movl   $0x0,0x2c(%eax)
    a359:	c7 40 44 00 00 00 00 	movl   $0x0,0x44(%eax)
    a360:	c7 40 48 00 00 00 00 	movl   $0x0,0x48(%eax)
    a367:	c7 40 3c 00 00 00 00 	movl   $0x0,0x3c(%eax)
    a36e:	c7 40 40 00 00 00 00 	movl   $0x0,0x40(%eax)
    a375:	c7 40 34 00 00 00 00 	movl   $0x0,0x34(%eax)
    a37c:	c7 40 38 00 00 00 00 	movl   $0x0,0x38(%eax)
    a383:	c7 40 54 00 00 00 00 	movl   $0x0,0x54(%eax)
    a38a:	8d 65 f4             	lea    -0xc(%ebp),%esp
    a38d:	5b                   	pop    %ebx
    a38e:	5e                   	pop    %esi
    a38f:	5f                   	pop    %edi
    a390:	5d                   	pop    %ebp
    a391:	c3                   	ret    
    a392:	66 90                	xchg   %ax,%ax
    a394:	66 90                	xchg   %ax,%ax
    a396:	66 90                	xchg   %ax,%ax
    a398:	66 90                	xchg   %ax,%ax
    a39a:	66 90                	xchg   %ax,%ax
    a39c:	66 90                	xchg   %ax,%ax
    a39e:	66 90                	xchg   %ax,%ax

0000a3a0 <graphics_init>:
    a3a0:	55                   	push   %ebp
    a3a1:	57                   	push   %edi
    a3a2:	56                   	push   %esi
    a3a3:	53                   	push   %ebx
    a3a4:	83 ec 2c             	sub    $0x2c,%esp
    a3a7:	8a 44 24 48          	mov    0x48(%esp),%al
    a3ab:	c7 04 24 00 02 00 00 	movl   $0x200,(%esp)
    a3b2:	88 44 24 13          	mov    %al,0x13(%esp)
    a3b6:	e8 65 0f 00 00       	call   b320 <malloc>
    a3bb:	c7 44 24 08 04 00 00 	movl   $0x4,0x8(%esp)
    a3c2:	00 
    a3c3:	c7 44 24 04 98 e9 00 	movl   $0xe998,0x4(%esp)
    a3ca:	00 
    a3cb:	89 04 24             	mov    %eax,(%esp)
    a3ce:	a3 c0 ef 00 00       	mov    %eax,0xefc0
    a3d3:	e8 c7 1e 00 00       	call   c29f <strncpy>
    a3d8:	a1 c0 ef 00 00       	mov    0xefc0,%eax
    a3dd:	89 04 24             	mov    %eax,(%esp)
    a3e0:	e8 fb 01 00 00       	call   a5e0 <vbe_init>
    a3e5:	83 f8 4f             	cmp    $0x4f,%eax
    a3e8:	0f 85 e2 01 00 00    	jne    a5d0 <graphics_init+0x230>
    a3ee:	8b 15 c0 ef 00 00    	mov    0xefc0,%edx
    a3f4:	31 c0                	xor    %eax,%eax
    a3f6:	31 f6                	xor    %esi,%esi
    a3f8:	66 8b 42 10          	mov    0x10(%edx),%ax
    a3fc:	66 8b 72 0e          	mov    0xe(%edx),%si
    a400:	c1 e0 04             	shl    $0x4,%eax
    a403:	c7 04 24 00 01 00 00 	movl   $0x100,(%esp)
    a40a:	01 c6                	add    %eax,%esi
    a40c:	e8 0f 0f 00 00       	call   b320 <malloc>
    a411:	66 8b 16             	mov    (%esi),%dx
    a414:	a3 bc ef 00 00       	mov    %eax,0xefbc
    a419:	66 83 fa ff          	cmp    $0xffff,%dx
    a41d:	0f 84 ad 01 00 00    	je     a5d0 <graphics_init+0x230>
    a423:	8b 5c 24 44          	mov    0x44(%esp),%ebx
    a427:	8b 4c 24 40          	mov    0x40(%esp),%ecx
    a42b:	0f af cb             	imul   %ebx,%ecx
    a42e:	89 4c 24 1c          	mov    %ecx,0x1c(%esp)
    a432:	31 c9                	xor    %ecx,%ecx
    a434:	8a 4c 24 13          	mov    0x13(%esp),%cl
    a438:	8d 5e 02             	lea    0x2(%esi),%ebx
    a43b:	89 4c 24 18          	mov    %ecx,0x18(%esp)
    a43f:	31 ed                	xor    %ebp,%ebp
    a441:	c7 44 24 14 00 00 00 	movl   $0x0,0x14(%esp)
    a448:	00 
    a449:	31 ff                	xor    %edi,%edi
    a44b:	89 d1                	mov    %edx,%ecx
    a44d:	eb 19                	jmp    a468 <graphics_init+0xc8>
    a44f:	90                   	nop
    a450:	89 de                	mov    %ebx,%esi
    a452:	83 c3 02             	add    $0x2,%ebx
    a455:	66 8b 4b fe          	mov    -0x2(%ebx),%cx
    a459:	66 83 f9 ff          	cmp    $0xffff,%cx
    a45d:	0f 84 bd 00 00 00    	je     a520 <graphics_init+0x180>
    a463:	a1 bc ef 00 00       	mov    0xefbc,%eax
    a468:	31 d2                	xor    %edx,%edx
    a46a:	89 04 24             	mov    %eax,(%esp)
    a46d:	66 89 ca             	mov    %cx,%dx
    a470:	89 54 24 04          	mov    %edx,0x4(%esp)
    a474:	e8 dc 01 00 00       	call   a655 <vbe_get_mode>
    a479:	83 f8 4f             	cmp    $0x4f,%eax
    a47c:	75 d2                	jne    a450 <graphics_init+0xb0>
    a47e:	8b 15 bc ef 00 00    	mov    0xefbc,%edx
    a484:	66 8b 02             	mov    (%edx),%ax
    a487:	25 90 00 00 00       	and    $0x90,%eax
    a48c:	66 3d 90 00          	cmp    $0x90,%ax
    a490:	75 be                	jne    a450 <graphics_init+0xb0>
    a492:	8a 42 1b             	mov    0x1b(%edx),%al
    a495:	83 e0 fd             	and    $0xfffffffd,%eax
    a498:	3c 04                	cmp    $0x4,%al
    a49a:	75 b4                	jne    a450 <graphics_init+0xb0>
    a49c:	31 c0                	xor    %eax,%eax
    a49e:	31 c9                	xor    %ecx,%ecx
    a4a0:	66 8b 4a 14          	mov    0x14(%edx),%cx
    a4a4:	66 8b 42 12          	mov    0x12(%edx),%ax
    a4a8:	0f af c1             	imul   %ecx,%eax
    a4ab:	8a 4a 19             	mov    0x19(%edx),%cl
    a4ae:	81 e1 ff 00 00 00    	and    $0xff,%ecx
    a4b4:	89 ca                	mov    %ecx,%edx
    a4b6:	39 e9                	cmp    %ebp,%ecx
    a4b8:	7c 06                	jl     a4c0 <graphics_init+0x120>
    a4ba:	3b 44 24 14          	cmp    0x14(%esp),%eax
    a4be:	7f 0a                	jg     a4ca <graphics_init+0x12a>
    a4c0:	39 ea                	cmp    %ebp,%edx
    a4c2:	7e 8c                	jle    a450 <graphics_init+0xb0>
    a4c4:	3b 44 24 14          	cmp    0x14(%esp),%eax
    a4c8:	7c 86                	jl     a450 <graphics_init+0xb0>
    a4ca:	8b 4c 24 40          	mov    0x40(%esp),%ecx
    a4ce:	85 c9                	test   %ecx,%ecx
    a4d0:	74 2e                	je     a500 <graphics_init+0x160>
    a4d2:	8b 4c 24 44          	mov    0x44(%esp),%ecx
    a4d6:	85 c9                	test   %ecx,%ecx
    a4d8:	74 26                	je     a500 <graphics_init+0x160>
    a4da:	80 7c 24 13 00       	cmpb   $0x0,0x13(%esp)
    a4df:	74 1f                	je     a500 <graphics_init+0x160>
    a4e1:	3b 44 24 1c          	cmp    0x1c(%esp),%eax
    a4e5:	0f 8f 65 ff ff ff    	jg     a450 <graphics_init+0xb0>
    a4eb:	3b 54 24 18          	cmp    0x18(%esp),%edx
    a4ef:	0f 8f 5b ff ff ff    	jg     a450 <graphics_init+0xb0>
    a4f5:	8d 74 26 00          	lea    0x0(%esi,%eiz,1),%esi
    a4f9:	8d bc 27 00 00 00 00 	lea    0x0(%edi,%eiz,1),%edi
    a500:	66 8b 3e             	mov    (%esi),%di
    a503:	89 de                	mov    %ebx,%esi
    a505:	83 c3 02             	add    $0x2,%ebx
    a508:	66 8b 4b fe          	mov    -0x2(%ebx),%cx
    a50c:	8b 6c 24 18          	mov    0x18(%esp),%ebp
    a510:	89 44 24 14          	mov    %eax,0x14(%esp)
    a514:	66 83 f9 ff          	cmp    $0xffff,%cx
    a518:	0f 85 45 ff ff ff    	jne    a463 <graphics_init+0xc3>
    a51e:	66 90                	xchg   %ax,%ax
    a520:	66 85 ff             	test   %di,%di
    a523:	0f 84 a7 00 00 00    	je     a5d0 <graphics_init+0x230>
    a529:	81 e7 ff 01 00 00    	and    $0x1ff,%edi
    a52f:	81 cf 00 40 00 00    	or     $0x4000,%edi
    a535:	89 3c 24             	mov    %edi,(%esp)
    a538:	e8 91 01 00 00       	call   a6ce <vbe_set_mode>
    a53d:	a1 bc ef 00 00       	mov    0xefbc,%eax
    a542:	89 7c 24 04          	mov    %edi,0x4(%esp)
    a546:	89 04 24             	mov    %eax,(%esp)
    a549:	e8 07 01 00 00       	call   a655 <vbe_get_mode>
    a54e:	c7 04 24 1c 00 00 00 	movl   $0x1c,(%esp)
    a555:	e8 c6 0d 00 00       	call   b320 <malloc>
    a55a:	8b 15 bc ef 00 00    	mov    0xefbc,%edx
    a560:	8b 4a 28             	mov    0x28(%edx),%ecx
    a563:	31 ff                	xor    %edi,%edi
    a565:	66 8b 7a 12          	mov    0x12(%edx),%di
    a569:	89 08                	mov    %ecx,(%eax)
    a56b:	31 c9                	xor    %ecx,%ecx
    a56d:	89 fe                	mov    %edi,%esi
    a56f:	66 8b 4a 14          	mov    0x14(%edx),%cx
    a573:	c7 40 04 00 00 00 00 	movl   $0x0,0x4(%eax)
    a57a:	0f af f1             	imul   %ecx,%esi
    a57d:	c7 40 08 00 00 00 00 	movl   $0x0,0x8(%eax)
    a584:	0f b6 6a 19          	movzbl 0x19(%edx),%ebp
    a588:	89 eb                	mov    %ebp,%ebx
    a58a:	31 ed                	xor    %ebp,%ebp
    a58c:	c0 eb 02             	shr    $0x2,%bl
    a58f:	66 8b 6a 10          	mov    0x10(%edx),%bp
    a593:	81 e3 ff 00 00 00    	and    $0xff,%ebx
    a599:	89 78 10             	mov    %edi,0x10(%eax)
    a59c:	0f af f3             	imul   %ebx,%esi
    a59f:	8d 59 ff             	lea    -0x1(%ecx),%ebx
    a5a2:	89 48 14             	mov    %ecx,0x14(%eax)
    a5a5:	0f af dd             	imul   %ebp,%ebx
    a5a8:	01 f3                	add    %esi,%ebx
    a5aa:	89 58 0c             	mov    %ebx,0xc(%eax)
    a5ad:	8a 4a 19             	mov    0x19(%edx),%cl
    a5b0:	88 48 18             	mov    %cl,0x18(%eax)
    a5b3:	66 8b 52 10          	mov    0x10(%edx),%dx
    a5b7:	66 89 50 1a          	mov    %dx,0x1a(%eax)
    a5bb:	83 c4 2c             	add    $0x2c,%esp
    a5be:	5b                   	pop    %ebx
    a5bf:	5e                   	pop    %esi
    a5c0:	5f                   	pop    %edi
    a5c1:	5d                   	pop    %ebp
    a5c2:	c3                   	ret    
    a5c3:	8d b6 00 00 00 00    	lea    0x0(%esi),%esi
    a5c9:	8d bc 27 00 00 00 00 	lea    0x0(%edi,%eiz,1),%edi
    a5d0:	83 c4 2c             	add    $0x2c,%esp
    a5d3:	31 c0                	xor    %eax,%eax
    a5d5:	5b                   	pop    %ebx
    a5d6:	5e                   	pop    %esi
    a5d7:	5f                   	pop    %edi
    a5d8:	5d                   	pop    %ebp
    a5d9:	c3                   	ret    
    a5da:	66 90                	xchg   %ax,%ax
    a5dc:	66 90                	xchg   %ax,%ax
    a5de:	66 90                	xchg   %ax,%ax

0000a5e0 <vbe_init>:
    a5e0:	55                   	push   %ebp
    a5e1:	89 e5                	mov    %esp,%ebp
    a5e3:	53                   	push   %ebx
    a5e4:	56                   	push   %esi
    a5e5:	57                   	push   %edi
    a5e6:	ea ed a5 00 00 18 00 	ljmp   $0x18,$0xa5ed

0000a5ed <vbe_init.pm16_entry>:
    a5ed:	b8 20 00 8e d8       	mov    $0xd88e0020,%eax
    a5f2:	8e c0                	mov    %eax,%es
    a5f4:	8e e0                	mov    %eax,%fs
    a5f6:	8e e8                	mov    %eax,%gs
    a5f8:	8e d0                	mov    %eax,%ss
    a5fa:	0f 20 c0             	mov    %cr0,%eax
    a5fd:	66 25 fe ff          	and    $0xfffe,%ax
    a601:	ff                   	(bad)  
    a602:	7f 0f                	jg     a613 <vbe_init.rm_entry+0x8>
    a604:	22 c0                	and    %al,%al
    a606:	ea 0b a6 00 00 b8 00 	ljmp   $0xb8,$0xa60b

0000a60b <vbe_init.rm_entry>:
    a60b:	b8 00 00 8e d8       	mov    $0xd88e0000,%eax
    a610:	8e c0                	mov    %eax,%es
    a612:	8e e0                	mov    %eax,%fs
    a614:	8e e8                	mov    %eax,%gs
    a616:	8e d0                	mov    %eax,%ss
    a618:	0f 01 1e             	lidtl  (%esi)
    a61b:	74 ef                	je     a60c <vbe_init.rm_entry+0x1>
    a61d:	fb                   	sti    
    a61e:	b8 00 4f 67 8b       	mov    $0x8b674f00,%eax
    a623:	7d 08                	jge    a62d <vbe_init.rm_entry+0x22>
    a625:	cd 10                	int    $0x10
    a627:	66 25 ff ff          	and    $0xffff,%ax
    a62b:	00 00                	add    %al,(%eax)
    a62d:	66 50                	push   %ax
    a62f:	fa                   	cli    
    a630:	0f 20 c0             	mov    %cr0,%eax
    a633:	66 0d 01 00          	or     $0x1,%ax
    a637:	00 80 0f 22 c0 ea    	add    %al,-0x153fddf1(%eax)
    a63d:	41                   	inc    %ecx
    a63e:	a6                   	cmpsb  %es:(%edi),%ds:(%esi)
    a63f:	08 00                	or     %al,(%eax)

0000a641 <vbe_init.pm32_exit>:
    a641:	66 b8 10 00          	mov    $0x10,%ax
    a645:	8e d8                	mov    %eax,%ds
    a647:	8e c0                	mov    %eax,%es
    a649:	8e e0                	mov    %eax,%fs
    a64b:	8e e8                	mov    %eax,%gs
    a64d:	8e d0                	mov    %eax,%ss
    a64f:	58                   	pop    %eax
    a650:	5f                   	pop    %edi
    a651:	5e                   	pop    %esi
    a652:	5b                   	pop    %ebx
    a653:	5d                   	pop    %ebp
    a654:	c3                   	ret    

0000a655 <vbe_get_mode>:
    a655:	55                   	push   %ebp
    a656:	89 e5                	mov    %esp,%ebp
    a658:	53                   	push   %ebx
    a659:	56                   	push   %esi
    a65a:	57                   	push   %edi
    a65b:	ea 62 a6 00 00 18 00 	ljmp   $0x18,$0xa662

0000a662 <vbe_get_mode.pm16_entry>:
    a662:	b8 20 00 8e d8       	mov    $0xd88e0020,%eax
    a667:	8e c0                	mov    %eax,%es
    a669:	8e e0                	mov    %eax,%fs
    a66b:	8e e8                	mov    %eax,%gs
    a66d:	8e d0                	mov    %eax,%ss
    a66f:	0f 20 c0             	mov    %cr0,%eax
    a672:	66 25 fe ff          	and    $0xfffe,%ax
    a676:	ff                   	(bad)  
    a677:	7f 0f                	jg     a688 <vbe_get_mode.rm_entry+0x8>
    a679:	22 c0                	and    %al,%al
    a67b:	ea 80 a6 00 00 b8 00 	ljmp   $0xb8,$0xa680

0000a680 <vbe_get_mode.rm_entry>:
    a680:	b8 00 00 8e d8       	mov    $0xd88e0000,%eax
    a685:	8e c0                	mov    %eax,%es
    a687:	8e e0                	mov    %eax,%fs
    a689:	8e e8                	mov    %eax,%gs
    a68b:	8e d0                	mov    %eax,%ss
    a68d:	0f 01 1e             	lidtl  (%esi)
    a690:	74 ef                	je     a681 <vbe_get_mode.rm_entry+0x1>
    a692:	fb                   	sti    
    a693:	b8 01 4f 67 8b       	mov    $0x8b674f01,%eax
    a698:	4d                   	dec    %ebp
    a699:	0c 67                	or     $0x67,%al
    a69b:	8b 7d 08             	mov    0x8(%ebp),%edi
    a69e:	cd 10                	int    $0x10
    a6a0:	66 25 ff ff          	and    $0xffff,%ax
    a6a4:	00 00                	add    %al,(%eax)
    a6a6:	66 50                	push   %ax
    a6a8:	fa                   	cli    
    a6a9:	0f 20 c0             	mov    %cr0,%eax
    a6ac:	66 0d 01 00          	or     $0x1,%ax
    a6b0:	00 80 0f 22 c0 ea    	add    %al,-0x153fddf1(%eax)
    a6b6:	ba a6 08 00 66       	mov    $0x660008a6,%edx

0000a6ba <vbe_get_mode.pm32_exit>:
    a6ba:	66 b8 10 00          	mov    $0x10,%ax
    a6be:	8e d8                	mov    %eax,%ds
    a6c0:	8e c0                	mov    %eax,%es
    a6c2:	8e e0                	mov    %eax,%fs
    a6c4:	8e e8                	mov    %eax,%gs
    a6c6:	8e d0                	mov    %eax,%ss
    a6c8:	58                   	pop    %eax
    a6c9:	5f                   	pop    %edi
    a6ca:	5e                   	pop    %esi
    a6cb:	5b                   	pop    %ebx
    a6cc:	5d                   	pop    %ebp
    a6cd:	c3                   	ret    

0000a6ce <vbe_set_mode>:
    a6ce:	55                   	push   %ebp
    a6cf:	89 e5                	mov    %esp,%ebp
    a6d1:	53                   	push   %ebx
    a6d2:	56                   	push   %esi
    a6d3:	57                   	push   %edi
    a6d4:	ea db a6 00 00 18 00 	ljmp   $0x18,$0xa6db

0000a6db <vbe_set_mode.pm16_entry>:
    a6db:	b8 20 00 8e d8       	mov    $0xd88e0020,%eax
    a6e0:	8e c0                	mov    %eax,%es
    a6e2:	8e e0                	mov    %eax,%fs
    a6e4:	8e e8                	mov    %eax,%gs
    a6e6:	8e d0                	mov    %eax,%ss
    a6e8:	0f 20 c0             	mov    %cr0,%eax
    a6eb:	66 25 fe ff          	and    $0xfffe,%ax
    a6ef:	ff                   	(bad)  
    a6f0:	7f 0f                	jg     a701 <vbe_set_mode.rm_entry+0x8>
    a6f2:	22 c0                	and    %al,%al
    a6f4:	ea f9 a6 00 00 b8 00 	ljmp   $0xb8,$0xa6f9

0000a6f9 <vbe_set_mode.rm_entry>:
    a6f9:	b8 00 00 8e d8       	mov    $0xd88e0000,%eax
    a6fe:	8e c0                	mov    %eax,%es
    a700:	8e e0                	mov    %eax,%fs
    a702:	8e e8                	mov    %eax,%gs
    a704:	8e d0                	mov    %eax,%ss
    a706:	0f 01 1e             	lidtl  (%esi)
    a709:	74 ef                	je     a6fa <vbe_set_mode.rm_entry+0x1>
    a70b:	fb                   	sti    
    a70c:	b8 02 4f 67 8b       	mov    $0x8b674f02,%eax
    a711:	5d                   	pop    %ebp
    a712:	08 cd                	or     %cl,%ch
    a714:	10 66 25             	adc    %ah,0x25(%esi)
    a717:	ff                   	(bad)  
    a718:	ff 00                	incl   (%eax)
    a71a:	00 66 50             	add    %ah,0x50(%esi)
    a71d:	fa                   	cli    
    a71e:	0f 20 c0             	mov    %cr0,%eax
    a721:	66 0d 01 00          	or     $0x1,%ax
    a725:	00 80 0f 22 c0 ea    	add    %al,-0x153fddf1(%eax)
    a72b:	2f                   	das    
    a72c:	a7                   	cmpsl  %es:(%edi),%ds:(%esi)
    a72d:	08 00                	or     %al,(%eax)

0000a72f <vbe_set_mode.pm32_exit>:
    a72f:	66 b8 10 00          	mov    $0x10,%ax
    a733:	8e d8                	mov    %eax,%ds
    a735:	8e c0                	mov    %eax,%es
    a737:	8e e0                	mov    %eax,%fs
    a739:	8e e8                	mov    %eax,%gs
    a73b:	8e d0                	mov    %eax,%ss
    a73d:	58                   	pop    %eax
    a73e:	5f                   	pop    %edi
    a73f:	5e                   	pop    %esi
    a740:	5b                   	pop    %ebx
    a741:	5d                   	pop    %ebp
    a742:	c3                   	ret    
    a743:	66 90                	xchg   %ax,%ax
    a745:	66 90                	xchg   %ax,%ax
    a747:	66 90                	xchg   %ax,%ax
    a749:	66 90                	xchg   %ax,%ax
    a74b:	66 90                	xchg   %ax,%ax
    a74d:	66 90                	xchg   %ax,%ax
    a74f:	90                   	nop

0000a750 <bal_enter_kernel>:
    a750:	53                   	push   %ebx
    a751:	83 ec 18             	sub    $0x18,%esp
    a754:	8b 5c 24 20          	mov    0x20(%esp),%ebx
    a758:	c7 04 24 50 ec 00 00 	movl   $0xec50,(%esp)
    a75f:	89 5c 24 04          	mov    %ebx,0x4(%esp)
    a763:	e8 a7 19 00 00       	call   c10f <printf>
    a768:	8b 44 24 24          	mov    0x24(%esp),%eax
    a76c:	50                   	push   %eax
    a76d:	ff e3                	jmp    *%ebx
    a76f:	83 c4 18             	add    $0x18,%esp
    a772:	5b                   	pop    %ebx
    a773:	c3                   	ret    
    a774:	66 90                	xchg   %ax,%ax
    a776:	66 90                	xchg   %ax,%ax
    a778:	66 90                	xchg   %ax,%ax
    a77a:	66 90                	xchg   %ax,%ax
    a77c:	66 90                	xchg   %ax,%ax
    a77e:	66 90                	xchg   %ax,%ax

0000a780 <bal_main>:
    a780:	56                   	push   %esi
    a781:	53                   	push   %ebx
    a782:	83 ec 14             	sub    $0x14,%esp
    a785:	c7 44 24 04 00 00 00 	movl   $0x0,0x4(%esp)
    a78c:	00 
    a78d:	c7 04 24 0f 00 00 00 	movl   $0xf,(%esp)
    a794:	e8 a9 25 00 00       	call   cd42 <bootvid_init>
    a799:	e8 b2 0b 00 00       	call   b350 <watermark_init>
    a79e:	c7 04 24 10 00 00 00 	movl   $0x10,(%esp)
    a7a5:	e8 76 0b 00 00       	call   b320 <malloc>
    a7aa:	c7 44 24 08 10 00 00 	movl   $0x10,0x8(%esp)
    a7b1:	00 
    a7b2:	89 c3                	mov    %eax,%ebx
    a7b4:	8b 44 24 20          	mov    0x20(%esp),%eax
    a7b8:	89 1c 24             	mov    %ebx,(%esp)
    a7bb:	89 44 24 04          	mov    %eax,0x4(%esp)
    a7bf:	e8 dc 19 00 00       	call   c1a0 <memcpy>
    a7c4:	8b 43 04             	mov    0x4(%ebx),%eax
    a7c7:	89 44 24 04          	mov    %eax,0x4(%esp)
    a7cb:	8b 03                	mov    (%ebx),%eax
    a7cd:	89 04 24             	mov    %eax,(%esp)
    a7d0:	e8 5b 09 00 00       	call   b130 <pmm_init>
    a7d5:	89 c6                	mov    %eax,%esi
    a7d7:	e8 a4 0a 00 00       	call   b280 <vmm_init>
    a7dc:	8b 43 0c             	mov    0xc(%ebx),%eax
    a7df:	89 44 24 04          	mov    %eax,0x4(%esp)
    a7e3:	8b 43 08             	mov    0x8(%ebx),%eax
    a7e6:	89 04 24             	mov    %eax,(%esp)
    a7e9:	e8 92 10 00 00       	call   b880 <storage_init>
    a7ee:	e8 9d fa ff ff       	call   a290 <fs_init>
    a7f3:	e8 08 f7 ff ff       	call   9f00 <ext2_init>
    a7f8:	c7 04 24 54 00 00 00 	movl   $0x54,(%esp)
    a7ff:	e8 1c 0b 00 00       	call   b320 <malloc>
    a804:	89 c3                	mov    %eax,%ebx
    a806:	89 30                	mov    %esi,(%eax)
    a808:	c7 40 2c 00 00 00 00 	movl   $0x0,0x2c(%eax)
    a80f:	89 04 24             	mov    %eax,(%esp)
    a812:	e8 e9 dd ff ff       	call   8600 <acpi_init>
    a817:	89 1c 24             	mov    %ebx,(%esp)
    a81a:	e8 c1 2d 00 00       	call   d5e0 <ba_main>
    a81f:	eb fe                	jmp    a81f <bal_main+0x9f>
    a821:	66 90                	xchg   %ax,%ax
    a823:	66 90                	xchg   %ax,%ax
    a825:	66 90                	xchg   %ax,%ax
    a827:	66 90                	xchg   %ax,%ax
    a829:	66 90                	xchg   %ax,%ax
    a82b:	66 90                	xchg   %ax,%ax
    a82d:	66 90                	xchg   %ax,%ax
    a82f:	90                   	nop

0000a830 <e820_map_sanitize>:
    a830:	55                   	push   %ebp
    a831:	89 e5                	mov    %esp,%ebp
    a833:	57                   	push   %edi
    a834:	56                   	push   %esi
    a835:	53                   	push   %ebx
    a836:	81 ec 9c 00 00 00    	sub    $0x9c,%esp
    a83c:	bf 01 00 00 00       	mov    $0x1,%edi
    a841:	8b 45 10             	mov    0x10(%ebp),%eax
    a844:	be 01 00 00 00       	mov    $0x1,%esi
    a849:	48                   	dec    %eax
    a84a:	31 db                	xor    %ebx,%ebx
    a84c:	89 45 8c             	mov    %eax,-0x74(%ebp)
    a84f:	8b 45 10             	mov    0x10(%ebp),%eax
    a852:	83 e8 02             	sub    $0x2,%eax
    a855:	89 f2                	mov    %esi,%edx
    a857:	89 85 7c ff ff ff    	mov    %eax,-0x84(%ebp)
    a85d:	89 f8                	mov    %edi,%eax
    a85f:	88 45 80             	mov    %al,-0x80(%ebp)
    a862:	eb 23                	jmp    a887 <e820_map_sanitize+0x57>
    a864:	8d b6 00 00 00 00    	lea    0x0(%esi),%esi
    a86a:	8d bf 00 00 00 00    	lea    0x0(%edi),%edi
    a870:	8a 45 80             	mov    -0x80(%ebp),%al
    a873:	84 c0                	test   %al,%al
    a875:	0f 85 25 01 00 00    	jne    a9a0 <e820_map_sanitize+0x170>
    a87b:	c7 45 90 00 00 00 00 	movl   $0x0,-0x70(%ebp)
    a882:	b2 01                	mov    $0x1,%dl
    a884:	8b 5d 90             	mov    -0x70(%ebp),%ebx
    a887:	3b 5d 8c             	cmp    -0x74(%ebp),%ebx
    a88a:	73 e4                	jae    a870 <e820_map_sanitize+0x40>
    a88c:	8d 04 5b             	lea    (%ebx,%ebx,2),%eax
    a88f:	8d 7b 01             	lea    0x1(%ebx),%edi
    a892:	c1 e0 03             	shl    $0x3,%eax
    a895:	8b 4d 0c             	mov    0xc(%ebp),%ecx
    a898:	01 c1                	add    %eax,%ecx
    a89a:	89 7d 90             	mov    %edi,-0x70(%ebp)
    a89d:	8b 7d 0c             	mov    0xc(%ebp),%edi
    a8a0:	8b 31                	mov    (%ecx),%esi
    a8a2:	8d 44 07 18          	lea    0x18(%edi,%eax,1),%eax
    a8a6:	89 75 88             	mov    %esi,-0x78(%ebp)
    a8a9:	8b 71 04             	mov    0x4(%ecx),%esi
    a8ac:	89 b5 78 ff ff ff    	mov    %esi,-0x88(%ebp)
    a8b2:	3b 70 04             	cmp    0x4(%eax),%esi
    a8b5:	0f 82 b5 00 00 00    	jb     a970 <e820_map_sanitize+0x140>
    a8bb:	77 0b                	ja     a8c8 <e820_map_sanitize+0x98>
    a8bd:	8b 7d 88             	mov    -0x78(%ebp),%edi
    a8c0:	3b 38                	cmp    (%eax),%edi
    a8c2:	0f 86 a8 00 00 00    	jbe    a970 <e820_map_sanitize+0x140>
    a8c8:	8b 79 0c             	mov    0xc(%ecx),%edi
    a8cb:	8b 71 08             	mov    0x8(%ecx),%esi
    a8ce:	89 7d 84             	mov    %edi,-0x7c(%ebp)
    a8d1:	8b 79 10             	mov    0x10(%ecx),%edi
    a8d4:	89 bd 74 ff ff ff    	mov    %edi,-0x8c(%ebp)
    a8da:	8b 79 14             	mov    0x14(%ecx),%edi
    a8dd:	89 75 80             	mov    %esi,-0x80(%ebp)
    a8e0:	89 bd 70 ff ff ff    	mov    %edi,-0x90(%ebp)
    a8e6:	89 c6                	mov    %eax,%esi
    a8e8:	89 cf                	mov    %ecx,%edi
    a8ea:	ba 18 00 00 00       	mov    $0x18,%edx
    a8ef:	f6 c1 01             	test   $0x1,%cl
    a8f2:	0f 85 88 02 00 00    	jne    ab80 <e820_map_sanitize+0x350>
    a8f8:	f7 c7 02 00 00 00    	test   $0x2,%edi
    a8fe:	0f 85 5c 02 00 00    	jne    ab60 <e820_map_sanitize+0x330>
    a904:	89 d1                	mov    %edx,%ecx
    a906:	c1 e9 02             	shr    $0x2,%ecx
    a909:	f3 a5                	rep movsl %ds:(%esi),%es:(%edi)
    a90b:	f6 c2 02             	test   $0x2,%dl
    a90e:	74 0b                	je     a91b <e820_map_sanitize+0xeb>
    a910:	66 8b 0e             	mov    (%esi),%cx
    a913:	66 89 0f             	mov    %cx,(%edi)
    a916:	b9 02 00 00 00       	mov    $0x2,%ecx
    a91b:	83 e2 01             	and    $0x1,%edx
    a91e:	74 0c                	je     a92c <e820_map_sanitize+0xfc>
    a920:	8a 14 0e             	mov    (%esi,%ecx,1),%dl
    a923:	88 95 6f ff ff ff    	mov    %dl,-0x91(%ebp)
    a929:	88 14 0f             	mov    %dl,(%edi,%ecx,1)
    a92c:	8b 7d 88             	mov    -0x78(%ebp),%edi
    a92f:	8b 75 80             	mov    -0x80(%ebp),%esi
    a932:	89 38                	mov    %edi,(%eax)
    a934:	8b bd 78 ff ff ff    	mov    -0x88(%ebp),%edi
    a93a:	89 78 04             	mov    %edi,0x4(%eax)
    a93d:	8b 7d 84             	mov    -0x7c(%ebp),%edi
    a940:	89 78 0c             	mov    %edi,0xc(%eax)
    a943:	8b bd 74 ff ff ff    	mov    -0x8c(%ebp),%edi
    a949:	89 78 10             	mov    %edi,0x10(%eax)
    a94c:	8b bd 70 ff ff ff    	mov    -0x90(%ebp),%edi
    a952:	89 70 08             	mov    %esi,0x8(%eax)
    a955:	89 78 14             	mov    %edi,0x14(%eax)
    a958:	39 9d 7c ff ff ff    	cmp    %ebx,-0x84(%ebp)
    a95e:	74 30                	je     a990 <e820_map_sanitize+0x160>
    a960:	31 d2                	xor    %edx,%edx
    a962:	c6 45 80 00          	movb   $0x0,-0x80(%ebp)
    a966:	e9 19 ff ff ff       	jmp    a884 <e820_map_sanitize+0x54>
    a96b:	90                   	nop
    a96c:	8d 74 26 00          	lea    0x0(%esi,%eiz,1),%esi
    a970:	39 9d 7c ff ff ff    	cmp    %ebx,-0x84(%ebp)
    a976:	0f 85 08 ff ff ff    	jne    a884 <e820_map_sanitize+0x54>
    a97c:	84 d2                	test   %dl,%dl
    a97e:	74 14                	je     a994 <e820_map_sanitize+0x164>
    a980:	c6 45 80 01          	movb   $0x1,-0x80(%ebp)
    a984:	e9 fb fe ff ff       	jmp    a884 <e820_map_sanitize+0x54>
    a989:	8d b4 26 00 00 00 00 	lea    0x0(%esi,%eiz,1),%esi
    a990:	c6 45 80 00          	movb   $0x0,-0x80(%ebp)
    a994:	31 d2                	xor    %edx,%edx
    a996:	e9 e9 fe ff ff       	jmp    a884 <e820_map_sanitize+0x54>
    a99b:	90                   	nop
    a99c:	8d 74 26 00          	lea    0x0(%esi,%eiz,1),%esi
    a9a0:	8d 45 bc             	lea    -0x44(%ebp),%eax
    a9a3:	31 db                	xor    %ebx,%ebx
    a9a5:	89 04 24             	mov    %eax,(%esp)
    a9a8:	e8 87 1d 00 00       	call   c734 <list_create>
    a9ad:	8b 75 0c             	mov    0xc(%ebp),%esi
    a9b0:	8b 7d 10             	mov    0x10(%ebp),%edi
    a9b3:	50                   	push   %eax
    a9b4:	8b 45 10             	mov    0x10(%ebp),%eax
    a9b7:	85 c0                	test   %eax,%eax
    a9b9:	75 3c                	jne    a9f7 <e820_map_sanitize+0x1c7>
    a9bb:	e9 b0 00 00 00       	jmp    aa70 <e820_map_sanitize+0x240>
    a9c0:	83 fa 02             	cmp    $0x2,%edx
    a9c3:	74 7b                	je     aa40 <e820_map_sanitize+0x210>
    a9c5:	83 fa 03             	cmp    $0x3,%edx
    a9c8:	0f 84 82 00 00 00    	je     aa50 <e820_map_sanitize+0x220>
    a9ce:	83 fa 04             	cmp    $0x4,%edx
    a9d1:	0f 84 89 00 00 00    	je     aa60 <e820_map_sanitize+0x230>
    a9d7:	83 fa 05             	cmp    $0x5,%edx
    a9da:	0f 84 70 01 00 00    	je     ab50 <e820_map_sanitize+0x320>
    a9e0:	89 44 24 04          	mov    %eax,0x4(%esp)
    a9e4:	8d 45 bc             	lea    -0x44(%ebp),%eax
    a9e7:	89 04 24             	mov    %eax,(%esp)
    a9ea:	43                   	inc    %ebx
    a9eb:	e8 ba 1d 00 00       	call   c7aa <list_insert_tail>
    a9f0:	83 c6 18             	add    $0x18,%esi
    a9f3:	39 fb                	cmp    %edi,%ebx
    a9f5:	74 79                	je     aa70 <e820_map_sanitize+0x240>
    a9f7:	c7 04 24 18 00 00 00 	movl   $0x18,(%esp)
    a9fe:	e8 1d 09 00 00       	call   b320 <malloc>
    aa03:	8b 16                	mov    (%esi),%edx
    aa05:	8b 4e 04             	mov    0x4(%esi),%ecx
    aa08:	89 10                	mov    %edx,(%eax)
    aa0a:	8b 56 08             	mov    0x8(%esi),%edx
    aa0d:	89 48 04             	mov    %ecx,0x4(%eax)
    aa10:	8b 4e 0c             	mov    0xc(%esi),%ecx
    aa13:	89 50 08             	mov    %edx,0x8(%eax)
    aa16:	8b 56 10             	mov    0x10(%esi),%edx
    aa19:	89 48 0c             	mov    %ecx,0xc(%eax)
    aa1c:	c7 40 14 00 00 00 00 	movl   $0x0,0x14(%eax)
    aa23:	83 fa 01             	cmp    $0x1,%edx
    aa26:	75 98                	jne    a9c0 <e820_map_sanitize+0x190>
    aa28:	c7 40 10 03 00 00 00 	movl   $0x3,0x10(%eax)
    aa2f:	eb af                	jmp    a9e0 <e820_map_sanitize+0x1b0>
    aa31:	eb 0d                	jmp    aa40 <e820_map_sanitize+0x210>
    aa33:	90                   	nop
    aa34:	90                   	nop
    aa35:	90                   	nop
    aa36:	90                   	nop
    aa37:	90                   	nop
    aa38:	90                   	nop
    aa39:	90                   	nop
    aa3a:	90                   	nop
    aa3b:	90                   	nop
    aa3c:	90                   	nop
    aa3d:	90                   	nop
    aa3e:	90                   	nop
    aa3f:	90                   	nop
    aa40:	c7 40 10 01 00 00 00 	movl   $0x1,0x10(%eax)
    aa47:	eb 97                	jmp    a9e0 <e820_map_sanitize+0x1b0>
    aa49:	8d b4 26 00 00 00 00 	lea    0x0(%esi,%eiz,1),%esi
    aa50:	c7 40 10 91 00 00 00 	movl   $0x91,0x10(%eax)
    aa57:	eb 87                	jmp    a9e0 <e820_map_sanitize+0x1b0>
    aa59:	8d b4 26 00 00 00 00 	lea    0x0(%esi,%eiz,1),%esi
    aa60:	c7 40 10 11 00 00 00 	movl   $0x11,0x10(%eax)
    aa67:	e9 74 ff ff ff       	jmp    a9e0 <e820_map_sanitize+0x1b0>
    aa6c:	8d 74 26 00          	lea    0x0(%esi,%eiz,1),%esi
    aa70:	8d 45 cc             	lea    -0x34(%ebp),%eax
    aa73:	8d 5d bc             	lea    -0x44(%ebp),%ebx
    aa76:	89 5c 24 04          	mov    %ebx,0x4(%esp)
    aa7a:	89 04 24             	mov    %eax,(%esp)
    aa7d:	89 c3                	mov    %eax,%ebx
    aa7f:	89 45 8c             	mov    %eax,-0x74(%ebp)
    aa82:	e8 28 1e 00 00       	call   c8af <list_head>
    aa87:	57                   	push   %edi
    aa88:	89 1c 24             	mov    %ebx,(%esp)
    aa8b:	ff 55 dc             	call   *-0x24(%ebp)
    aa8e:	85 c0                	test   %eax,%eax
    aa90:	0f 84 0a 01 00 00    	je     aba0 <e820_map_sanitize+0x370>
    aa96:	89 c7                	mov    %eax,%edi
    aa98:	8b 75 8c             	mov    -0x74(%ebp),%esi
    aa9b:	e9 8e 00 00 00       	jmp    ab2e <e820_map_sanitize+0x2fe>
    aaa0:	89 34 24             	mov    %esi,(%esp)
    aaa3:	ff 55 d4             	call   *-0x2c(%ebp)
    aaa6:	8b 4f 08             	mov    0x8(%edi),%ecx
    aaa9:	03 0f                	add    (%edi),%ecx
    aaab:	8b 5f 0c             	mov    0xc(%edi),%ebx
    aaae:	13 5f 04             	adc    0x4(%edi),%ebx
    aab1:	8b 55 90             	mov    -0x70(%ebp),%edx
    aab4:	3b 5a 04             	cmp    0x4(%edx),%ebx
    aab7:	77 69                	ja     ab22 <e820_map_sanitize+0x2f2>
    aab9:	72 04                	jb     aabf <e820_map_sanitize+0x28f>
    aabb:	3b 0a                	cmp    (%edx),%ecx
    aabd:	73 63                	jae    ab22 <e820_map_sanitize+0x2f2>
    aabf:	c7 04 24 18 00 00 00 	movl   $0x18,(%esp)
    aac6:	89 55 88             	mov    %edx,-0x78(%ebp)
    aac9:	e8 52 08 00 00       	call   b320 <malloc>
    aace:	8b 4f 08             	mov    0x8(%edi),%ecx
    aad1:	89 4d 90             	mov    %ecx,-0x70(%ebp)
    aad4:	8b 0f                	mov    (%edi),%ecx
    aad6:	01 4d 90             	add    %ecx,-0x70(%ebp)
    aad9:	8b 5f 0c             	mov    0xc(%edi),%ebx
    aadc:	89 5d 94             	mov    %ebx,-0x6c(%ebp)
    aadf:	8b 5f 04             	mov    0x4(%edi),%ebx
    aae2:	11 5d 94             	adc    %ebx,-0x6c(%ebp)
    aae5:	8b 55 88             	mov    -0x78(%ebp),%edx
    aae8:	8b 4d 90             	mov    -0x70(%ebp),%ecx
    aaeb:	8b 5d 94             	mov    -0x6c(%ebp),%ebx
    aaee:	89 08                	mov    %ecx,(%eax)
    aaf0:	89 58 04             	mov    %ebx,0x4(%eax)
    aaf3:	8b 0a                	mov    (%edx),%ecx
    aaf5:	8b 5a 04             	mov    0x4(%edx),%ebx
    aaf8:	89 ca                	mov    %ecx,%edx
    aafa:	89 d9                	mov    %ebx,%ecx
    aafc:	2b 55 90             	sub    -0x70(%ebp),%edx
    aaff:	c7 40 10 00 00 00 00 	movl   $0x0,0x10(%eax)
    ab06:	1b 4d 94             	sbb    -0x6c(%ebp),%ecx
    ab09:	89 50 08             	mov    %edx,0x8(%eax)
    ab0c:	89 cb                	mov    %ecx,%ebx
    ab0e:	c7 40 14 00 00 00 00 	movl   $0x0,0x14(%eax)
    ab15:	89 58 0c             	mov    %ebx,0xc(%eax)
    ab18:	89 44 24 04          	mov    %eax,0x4(%esp)
    ab1c:	89 34 24             	mov    %esi,(%esp)
    ab1f:	ff 55 e0             	call   *-0x20(%ebp)
    ab22:	89 34 24             	mov    %esi,(%esp)
    ab25:	ff 55 d8             	call   *-0x28(%ebp)
    ab28:	89 c7                	mov    %eax,%edi
    ab2a:	85 c0                	test   %eax,%eax
    ab2c:	74 72                	je     aba0 <e820_map_sanitize+0x370>
    ab2e:	89 34 24             	mov    %esi,(%esp)
    ab31:	ff 55 d8             	call   *-0x28(%ebp)
    ab34:	85 c0                	test   %eax,%eax
    ab36:	89 45 90             	mov    %eax,-0x70(%ebp)
    ab39:	0f 85 61 ff ff ff    	jne    aaa0 <e820_map_sanitize+0x270>
    ab3f:	89 fb                	mov    %edi,%ebx
    ab41:	eb 5f                	jmp    aba2 <e820_map_sanitize+0x372>
    ab43:	8d b6 00 00 00 00    	lea    0x0(%esi),%esi
    ab49:	8d bc 27 00 00 00 00 	lea    0x0(%edi,%eiz,1),%edi
    ab50:	c7 40 10 00 02 00 00 	movl   $0x200,0x10(%eax)
    ab57:	e9 84 fe ff ff       	jmp    a9e0 <e820_map_sanitize+0x1b0>
    ab5c:	8d 74 26 00          	lea    0x0(%esi,%eiz,1),%esi
    ab60:	66 8b 0e             	mov    (%esi),%cx
    ab63:	83 c7 02             	add    $0x2,%edi
    ab66:	66 89 4f fe          	mov    %cx,-0x2(%edi)
    ab6a:	83 c6 02             	add    $0x2,%esi
    ab6d:	83 ea 02             	sub    $0x2,%edx
    ab70:	e9 8f fd ff ff       	jmp    a904 <e820_map_sanitize+0xd4>
    ab75:	8d 74 26 00          	lea    0x0(%esi,%eiz,1),%esi
    ab79:	8d bc 27 00 00 00 00 	lea    0x0(%edi,%eiz,1),%edi
    ab80:	8a 10                	mov    (%eax),%dl
    ab82:	47                   	inc    %edi
    ab83:	88 11                	mov    %dl,(%ecx)
    ab85:	8d 70 01             	lea    0x1(%eax),%esi
    ab88:	ba 17 00 00 00       	mov    $0x17,%edx
    ab8d:	e9 66 fd ff ff       	jmp    a8f8 <e820_map_sanitize+0xc8>
    ab92:	8d b4 26 00 00 00 00 	lea    0x0(%esi,%eiz,1),%esi
    ab99:	8d bc 27 00 00 00 00 	lea    0x0(%edi,%eiz,1),%edi
    aba0:	31 db                	xor    %ebx,%ebx
    aba2:	8d 45 bc             	lea    -0x44(%ebp),%eax
    aba5:	89 44 24 04          	mov    %eax,0x4(%esp)
    aba9:	8d 45 98             	lea    -0x68(%ebp),%eax
    abac:	89 04 24             	mov    %eax,(%esp)
    abaf:	e8 fb 1c 00 00       	call   c8af <list_head>
    abb4:	8b 7d 8c             	mov    -0x74(%ebp),%edi
    abb7:	b9 07 00 00 00       	mov    $0x7,%ecx
    abbc:	8d 45 cc             	lea    -0x34(%ebp),%eax
    abbf:	56                   	push   %esi
    abc0:	8d 75 98             	lea    -0x68(%ebp),%esi
    abc3:	f3 a5                	rep movsl %ds:(%esi),%es:(%edi)
    abc5:	89 04 24             	mov    %eax,(%esp)
    abc8:	89 45 8c             	mov    %eax,-0x74(%ebp)
    abcb:	ff 55 dc             	call   *-0x24(%ebp)
    abce:	8b 50 04             	mov    0x4(%eax),%edx
    abd1:	0b 10                	or     (%eax),%edx
    abd3:	0f 85 37 02 00 00    	jne    ae10 <e820_map_sanitize+0x5e0>
    abd9:	8d 45 bc             	lea    -0x44(%ebp),%eax
    abdc:	8d 75 98             	lea    -0x68(%ebp),%esi
    abdf:	89 44 24 04          	mov    %eax,0x4(%esp)
    abe3:	8d 45 98             	lea    -0x68(%ebp),%eax
    abe6:	89 04 24             	mov    %eax,(%esp)
    abe9:	e8 c1 1c 00 00       	call   c8af <list_head>
    abee:	8b 7d 8c             	mov    -0x74(%ebp),%edi
    abf1:	8d 45 cc             	lea    -0x34(%ebp),%eax
    abf4:	51                   	push   %ecx
    abf5:	b9 07 00 00 00       	mov    $0x7,%ecx
    abfa:	f3 a5                	rep movsl %ds:(%esi),%es:(%edi)
    abfc:	89 04 24             	mov    %eax,(%esp)
    abff:	89 c7                	mov    %eax,%edi
    ac01:	89 45 8c             	mov    %eax,-0x74(%ebp)
    ac04:	ff 55 dc             	call   *-0x24(%ebp)
    ac07:	85 c0                	test   %eax,%eax
    ac09:	0f 84 92 00 00 00    	je     aca1 <e820_map_sanitize+0x471>
    ac0f:	90                   	nop
    ac10:	8b 58 04             	mov    0x4(%eax),%ebx
    ac13:	8b 08                	mov    (%eax),%ecx
    ac15:	83 fb 00             	cmp    $0x0,%ebx
    ac18:	0f 87 92 01 00 00    	ja     adb0 <e820_map_sanitize+0x580>
    ac1e:	81 f9 ff ff 0f 00    	cmp    $0xfffff,%ecx
    ac24:	0f 87 86 01 00 00    	ja     adb0 <e820_map_sanitize+0x580>
    ac2a:	03 48 08             	add    0x8(%eax),%ecx
    ac2d:	13 58 0c             	adc    0xc(%eax),%ebx
    ac30:	83 fb 00             	cmp    $0x0,%ebx
    ac33:	0f 86 67 01 00 00    	jbe    ada0 <e820_map_sanitize+0x570>
    ac39:	c7 04 24 18 00 00 00 	movl   $0x18,(%esp)
    ac40:	89 c6                	mov    %eax,%esi
    ac42:	e8 d9 06 00 00       	call   b320 <malloc>
    ac47:	8b 56 10             	mov    0x10(%esi),%edx
    ac4a:	c7 00 00 00 10 00    	movl   $0x100000,(%eax)
    ac50:	c7 40 04 00 00 00 00 	movl   $0x0,0x4(%eax)
    ac57:	8b 0e                	mov    (%esi),%ecx
    ac59:	8b 5e 04             	mov    0x4(%esi),%ebx
    ac5c:	89 4d 90             	mov    %ecx,-0x70(%ebp)
    ac5f:	03 4e 08             	add    0x8(%esi),%ecx
    ac62:	89 5d 94             	mov    %ebx,-0x6c(%ebp)
    ac65:	13 5e 0c             	adc    0xc(%esi),%ebx
    ac68:	81 c1 00 00 f0 ff    	add    $0xfff00000,%ecx
    ac6e:	89 48 08             	mov    %ecx,0x8(%eax)
    ac71:	b9 00 00 10 00       	mov    $0x100000,%ecx
    ac76:	83 d3 ff             	adc    $0xffffffff,%ebx
    ac79:	89 50 10             	mov    %edx,0x10(%eax)
    ac7c:	89 58 0c             	mov    %ebx,0xc(%eax)
    ac7f:	31 db                	xor    %ebx,%ebx
    ac81:	2b 4d 90             	sub    -0x70(%ebp),%ecx
    ac84:	c7 40 14 00 00 00 00 	movl   $0x0,0x14(%eax)
    ac8b:	1b 5d 94             	sbb    -0x6c(%ebp),%ebx
    ac8e:	89 4e 08             	mov    %ecx,0x8(%esi)
    ac91:	89 5e 0c             	mov    %ebx,0xc(%esi)
    ac94:	89 44 24 04          	mov    %eax,0x4(%esp)
    ac98:	8b 45 8c             	mov    -0x74(%ebp),%eax
    ac9b:	89 04 24             	mov    %eax,(%esp)
    ac9e:	ff 55 e0             	call   *-0x20(%ebp)
    aca1:	8d 45 c4             	lea    -0x3c(%ebp),%eax
    aca4:	8d 75 98             	lea    -0x68(%ebp),%esi
    aca7:	89 04 24             	mov    %eax,(%esp)
    acaa:	e8 85 1a 00 00       	call   c734 <list_create>
    acaf:	50                   	push   %eax
    acb0:	8d 45 bc             	lea    -0x44(%ebp),%eax
    acb3:	89 44 24 04          	mov    %eax,0x4(%esp)
    acb7:	8d 45 98             	lea    -0x68(%ebp),%eax
    acba:	89 04 24             	mov    %eax,(%esp)
    acbd:	e8 ed 1b 00 00       	call   c8af <list_head>
    acc2:	8b 7d 8c             	mov    -0x74(%ebp),%edi
    acc5:	b9 07 00 00 00       	mov    $0x7,%ecx
    acca:	8d 45 cc             	lea    -0x34(%ebp),%eax
    accd:	52                   	push   %edx
    acce:	f3 a5                	rep movsl %ds:(%esi),%es:(%edi)
    acd0:	89 04 24             	mov    %eax,(%esp)
    acd3:	89 45 8c             	mov    %eax,-0x74(%ebp)
    acd6:	ff 55 dc             	call   *-0x24(%ebp)
    acd9:	31 ff                	xor    %edi,%edi
    acdb:	89 c2                	mov    %eax,%edx
    acdd:	8b 18                	mov    (%eax),%ebx
    acdf:	8b 70 04             	mov    0x4(%eax),%esi
    ace2:	8b 40 10             	mov    0x10(%eax),%eax
    ace5:	89 5d 90             	mov    %ebx,-0x70(%ebp)
    ace8:	89 75 94             	mov    %esi,-0x6c(%ebp)
    aceb:	89 c3                	mov    %eax,%ebx
    aced:	31 f6                	xor    %esi,%esi
    acef:	eb 71                	jmp    ad62 <e820_map_sanitize+0x532>
    acf1:	eb 0d                	jmp    ad00 <e820_map_sanitize+0x4d0>
    acf3:	90                   	nop
    acf4:	90                   	nop
    acf5:	90                   	nop
    acf6:	90                   	nop
    acf7:	90                   	nop
    acf8:	90                   	nop
    acf9:	90                   	nop
    acfa:	90                   	nop
    acfb:	90                   	nop
    acfc:	90                   	nop
    acfd:	90                   	nop
    acfe:	90                   	nop
    acff:	90                   	nop
    ad00:	c7 04 24 18 00 00 00 	movl   $0x18,(%esp)
    ad07:	89 55 88             	mov    %edx,-0x78(%ebp)
    ad0a:	e8 11 06 00 00       	call   b320 <malloc>
    ad0f:	8b 55 90             	mov    -0x70(%ebp),%edx
    ad12:	8b 4d 94             	mov    -0x6c(%ebp),%ecx
    ad15:	89 10                	mov    %edx,(%eax)
    ad17:	89 48 04             	mov    %ecx,0x4(%eax)
    ad1a:	89 70 08             	mov    %esi,0x8(%eax)
    ad1d:	89 78 0c             	mov    %edi,0xc(%eax)
    ad20:	89 58 10             	mov    %ebx,0x10(%eax)
    ad23:	c7 40 14 00 00 00 00 	movl   $0x0,0x14(%eax)
    ad2a:	89 44 24 04          	mov    %eax,0x4(%esp)
    ad2e:	8d 45 c4             	lea    -0x3c(%ebp),%eax
    ad31:	89 04 24             	mov    %eax,(%esp)
    ad34:	e8 71 1a 00 00       	call   c7aa <list_insert_tail>
    ad39:	8b 55 88             	mov    -0x78(%ebp),%edx
    ad3c:	8b 45 8c             	mov    -0x74(%ebp),%eax
    ad3f:	8b 1a                	mov    (%edx),%ebx
    ad41:	8b 72 04             	mov    0x4(%edx),%esi
    ad44:	8b 7a 0c             	mov    0xc(%edx),%edi
    ad47:	89 5d 90             	mov    %ebx,-0x70(%ebp)
    ad4a:	89 75 94             	mov    %esi,-0x6c(%ebp)
    ad4d:	8b 5a 10             	mov    0x10(%edx),%ebx
    ad50:	8b 72 08             	mov    0x8(%edx),%esi
    ad53:	89 04 24             	mov    %eax,(%esp)
    ad56:	ff 55 d8             	call   *-0x28(%ebp)
    ad59:	89 c2                	mov    %eax,%edx
    ad5b:	85 c0                	test   %eax,%eax
    ad5d:	74 71                	je     add0 <e820_map_sanitize+0x5a0>
    ad5f:	8b 42 10             	mov    0x10(%edx),%eax
    ad62:	39 d8                	cmp    %ebx,%eax
    ad64:	75 9a                	jne    ad00 <e820_map_sanitize+0x4d0>
    ad66:	03 72 08             	add    0x8(%edx),%esi
    ad69:	8b 45 8c             	mov    -0x74(%ebp),%eax
    ad6c:	13 7a 0c             	adc    0xc(%edx),%edi
    ad6f:	89 04 24             	mov    %eax,(%esp)
    ad72:	ff 55 d8             	call   *-0x28(%ebp)
    ad75:	89 c2                	mov    %eax,%edx
    ad77:	85 c0                	test   %eax,%eax
    ad79:	75 e4                	jne    ad5f <e820_map_sanitize+0x52f>
    ad7b:	8b 5d 08             	mov    0x8(%ebp),%ebx
    ad7e:	8b 45 c4             	mov    -0x3c(%ebp),%eax
    ad81:	8b 55 c8             	mov    -0x38(%ebp),%edx
    ad84:	89 03                	mov    %eax,(%ebx)
    ad86:	89 53 04             	mov    %edx,0x4(%ebx)
    ad89:	8d 65 f4             	lea    -0xc(%ebp),%esp
    ad8c:	89 d8                	mov    %ebx,%eax
    ad8e:	5b                   	pop    %ebx
    ad8f:	5e                   	pop    %esi
    ad90:	5f                   	pop    %edi
    ad91:	5d                   	pop    %ebp
    ad92:	c2 04 00             	ret    $0x4
    ad95:	8d 74 26 00          	lea    0x0(%esi,%eiz,1),%esi
    ad99:	8d bc 27 00 00 00 00 	lea    0x0(%edi,%eiz,1),%edi
    ada0:	81 f9 ff ff 0f 00    	cmp    $0xfffff,%ecx
    ada6:	0f 87 8d fe ff ff    	ja     ac39 <e820_map_sanitize+0x409>
    adac:	8d 74 26 00          	lea    0x0(%esi,%eiz,1),%esi
    adb0:	89 3c 24             	mov    %edi,(%esp)
    adb3:	ff 55 d8             	call   *-0x28(%ebp)
    adb6:	85 c0                	test   %eax,%eax
    adb8:	0f 85 52 fe ff ff    	jne    ac10 <e820_map_sanitize+0x3e0>
    adbe:	e9 de fe ff ff       	jmp    aca1 <e820_map_sanitize+0x471>
    adc3:	8d b6 00 00 00 00    	lea    0x0(%esi),%esi
    adc9:	8d bc 27 00 00 00 00 	lea    0x0(%edi,%eiz,1),%edi
    add0:	c7 04 24 18 00 00 00 	movl   $0x18,(%esp)
    add7:	e8 44 05 00 00       	call   b320 <malloc>
    addc:	8b 55 90             	mov    -0x70(%ebp),%edx
    addf:	8b 4d 94             	mov    -0x6c(%ebp),%ecx
    ade2:	89 10                	mov    %edx,(%eax)
    ade4:	89 48 04             	mov    %ecx,0x4(%eax)
    ade7:	89 70 08             	mov    %esi,0x8(%eax)
    adea:	89 78 0c             	mov    %edi,0xc(%eax)
    aded:	89 58 10             	mov    %ebx,0x10(%eax)
    adf0:	c7 40 14 00 00 00 00 	movl   $0x0,0x14(%eax)
    adf7:	89 44 24 04          	mov    %eax,0x4(%esp)
    adfb:	8d 45 c4             	lea    -0x3c(%ebp),%eax
    adfe:	89 04 24             	mov    %eax,(%esp)
    ae01:	e8 a4 19 00 00       	call   c7aa <list_insert_tail>
    ae06:	e9 70 ff ff ff       	jmp    ad7b <e820_map_sanitize+0x54b>
    ae0b:	90                   	nop
    ae0c:	8d 74 26 00          	lea    0x0(%esi,%eiz,1),%esi
    ae10:	c7 04 24 18 00 00 00 	movl   $0x18,(%esp)
    ae17:	e8 04 05 00 00       	call   b320 <malloc>
    ae1c:	c7 00 00 00 00 00    	movl   $0x0,(%eax)
    ae22:	c7 40 04 00 00 00 00 	movl   $0x0,0x4(%eax)
    ae29:	8b 0b                	mov    (%ebx),%ecx
    ae2b:	8b 5b 04             	mov    0x4(%ebx),%ebx
    ae2e:	89 58 0c             	mov    %ebx,0xc(%eax)
    ae31:	89 48 08             	mov    %ecx,0x8(%eax)
    ae34:	c7 40 10 00 00 00 00 	movl   $0x0,0x10(%eax)
    ae3b:	c7 40 14 00 00 00 00 	movl   $0x0,0x14(%eax)
    ae42:	89 44 24 04          	mov    %eax,0x4(%esp)
    ae46:	8b 45 8c             	mov    -0x74(%ebp),%eax
    ae49:	89 04 24             	mov    %eax,(%esp)
    ae4c:	ff 55 e0             	call   *-0x20(%ebp)
    ae4f:	e9 85 fd ff ff       	jmp    abd9 <e820_map_sanitize+0x3a9>
    ae54:	66 90                	xchg   %ax,%ax
    ae56:	66 90                	xchg   %ax,%ax
    ae58:	66 90                	xchg   %ax,%ax
    ae5a:	66 90                	xchg   %ax,%ax
    ae5c:	66 90                	xchg   %ax,%ax
    ae5e:	66 90                	xchg   %ax,%ax

0000ae60 <pmm_alloc_page>:
    ae60:	55                   	push   %ebp
    ae61:	89 e5                	mov    %esp,%ebp
    ae63:	57                   	push   %edi
    ae64:	56                   	push   %esi
    ae65:	53                   	push   %ebx
    ae66:	83 ec 3c             	sub    $0x3c,%esp
    ae69:	8d 75 cc             	lea    -0x34(%ebp),%esi
    ae6c:	c7 44 24 04 c4 ef 00 	movl   $0xefc4,0x4(%esp)
    ae73:	00 
    ae74:	89 34 24             	mov    %esi,(%esp)
    ae77:	e8 33 1a 00 00       	call   c8af <list_head>
    ae7c:	52                   	push   %edx
    ae7d:	89 34 24             	mov    %esi,(%esp)
    ae80:	ff 55 dc             	call   *-0x24(%ebp)
    ae83:	89 c3                	mov    %eax,%ebx
    ae85:	85 c0                	test   %eax,%eax
    ae87:	0f 84 f3 00 00 00    	je     af80 <pmm_alloc_page+0x120>
    ae8d:	8d 76 00             	lea    0x0(%esi),%esi
    ae90:	8b 43 10             	mov    0x10(%ebx),%eax
    ae93:	83 e0 03             	and    $0x3,%eax
    ae96:	83 f8 03             	cmp    $0x3,%eax
    ae99:	0f 85 d1 00 00 00    	jne    af70 <pmm_alloc_page+0x110>
    ae9f:	83 7b 0c 00          	cmpl   $0x0,0xc(%ebx)
    aea3:	77 0d                	ja     aeb2 <pmm_alloc_page+0x52>
    aea5:	81 7b 08 ff 0f 00 00 	cmpl   $0xfff,0x8(%ebx)
    aeac:	0f 86 be 00 00 00    	jbe    af70 <pmm_alloc_page+0x110>
    aeb2:	8b 7b 04             	mov    0x4(%ebx),%edi
    aeb5:	8b 13                	mov    (%ebx),%edx
    aeb7:	83 ff 00             	cmp    $0x0,%edi
    aeba:	0f 86 a0 00 00 00    	jbe    af60 <pmm_alloc_page+0x100>
    aec0:	89 34 24             	mov    %esi,(%esp)
    aec3:	89 55 c0             	mov    %edx,-0x40(%ebp)
    aec6:	ff 55 d4             	call   *-0x2c(%ebp)
    aec9:	89 34 24             	mov    %esi,(%esp)
    aecc:	89 45 c4             	mov    %eax,-0x3c(%ebp)
    aecf:	ff 55 d8             	call   *-0x28(%ebp)
    aed2:	8b 4d c4             	mov    -0x3c(%ebp),%ecx
    aed5:	8b 55 c0             	mov    -0x40(%ebp),%edx
    aed8:	85 c9                	test   %ecx,%ecx
    aeda:	74 0f                	je     aeeb <pmm_alloc_page+0x8b>
    aedc:	8b 43 10             	mov    0x10(%ebx),%eax
    aedf:	83 e0 fd             	and    $0xfffffffd,%eax
    aee2:	39 41 10             	cmp    %eax,0x10(%ecx)
    aee5:	0f 84 a1 00 00 00    	je     af8c <pmm_alloc_page+0x12c>
    aeeb:	c7 04 24 18 00 00 00 	movl   $0x18,(%esp)
    aef2:	89 55 c4             	mov    %edx,-0x3c(%ebp)
    aef5:	e8 26 04 00 00       	call   b320 <malloc>
    aefa:	8b 13                	mov    (%ebx),%edx
    aefc:	8b 4b 04             	mov    0x4(%ebx),%ecx
    aeff:	81 c2 00 10 00 00    	add    $0x1000,%edx
    af05:	83 d1 00             	adc    $0x0,%ecx
    af08:	89 10                	mov    %edx,(%eax)
    af0a:	8b 53 08             	mov    0x8(%ebx),%edx
    af0d:	89 48 04             	mov    %ecx,0x4(%eax)
    af10:	81 c2 00 f0 ff ff    	add    $0xfffff000,%edx
    af16:	8b 4b 0c             	mov    0xc(%ebx),%ecx
    af19:	83 d1 ff             	adc    $0xffffffff,%ecx
    af1c:	89 50 08             	mov    %edx,0x8(%eax)
    af1f:	89 48 0c             	mov    %ecx,0xc(%eax)
    af22:	8b 4b 10             	mov    0x10(%ebx),%ecx
    af25:	89 48 10             	mov    %ecx,0x10(%eax)
    af28:	8b 4b 14             	mov    0x14(%ebx),%ecx
    af2b:	89 48 14             	mov    %ecx,0x14(%eax)
    af2e:	89 44 24 04          	mov    %eax,0x4(%esp)
    af32:	89 34 24             	mov    %esi,(%esp)
    af35:	ff 55 e0             	call   *-0x20(%ebp)
    af38:	8b 43 10             	mov    0x10(%ebx),%eax
    af3b:	83 e0 fd             	and    $0xfffffffd,%eax
    af3e:	c7 43 08 00 10 00 00 	movl   $0x1000,0x8(%ebx)
    af45:	89 43 10             	mov    %eax,0x10(%ebx)
    af48:	c7 43 0c 00 00 00 00 	movl   $0x0,0xc(%ebx)
    af4f:	8b 55 c4             	mov    -0x3c(%ebp),%edx
    af52:	8d 65 f4             	lea    -0xc(%ebp),%esp
    af55:	89 d0                	mov    %edx,%eax
    af57:	89 fa                	mov    %edi,%edx
    af59:	5b                   	pop    %ebx
    af5a:	5e                   	pop    %esi
    af5b:	5f                   	pop    %edi
    af5c:	5d                   	pop    %ebp
    af5d:	c3                   	ret    
    af5e:	66 90                	xchg   %ax,%ax
    af60:	81 fa ff ff 0f 00    	cmp    $0xfffff,%edx
    af66:	0f 87 54 ff ff ff    	ja     aec0 <pmm_alloc_page+0x60>
    af6c:	8d 74 26 00          	lea    0x0(%esi,%eiz,1),%esi
    af70:	89 34 24             	mov    %esi,(%esp)
    af73:	ff 55 d8             	call   *-0x28(%ebp)
    af76:	89 c3                	mov    %eax,%ebx
    af78:	85 c0                	test   %eax,%eax
    af7a:	0f 85 10 ff ff ff    	jne    ae90 <pmm_alloc_page+0x30>
    af80:	31 c0                	xor    %eax,%eax
    af82:	31 d2                	xor    %edx,%edx
    af84:	8d 65 f4             	lea    -0xc(%ebp),%esp
    af87:	5b                   	pop    %ebx
    af88:	5e                   	pop    %esi
    af89:	5f                   	pop    %edi
    af8a:	5d                   	pop    %ebp
    af8b:	c3                   	ret    
    af8c:	8b 43 14             	mov    0x14(%ebx),%eax
    af8f:	39 41 14             	cmp    %eax,0x14(%ecx)
    af92:	0f 85 53 ff ff ff    	jne    aeeb <pmm_alloc_page+0x8b>
    af98:	81 41 08 00 10 00 00 	addl   $0x1000,0x8(%ecx)
    af9f:	83 51 0c 00          	adcl   $0x0,0xc(%ecx)
    afa3:	89 d0                	mov    %edx,%eax
    afa5:	81 03 00 10 00 00    	addl   $0x1000,(%ebx)
    afab:	89 fa                	mov    %edi,%edx
    afad:	83 53 04 00          	adcl   $0x0,0x4(%ebx)
    afb1:	81 43 08 00 f0 ff ff 	addl   $0xfffff000,0x8(%ebx)
    afb8:	83 53 0c ff          	adcl   $0xffffffff,0xc(%ebx)
    afbc:	eb c6                	jmp    af84 <pmm_alloc_page+0x124>
    afbe:	66 90                	xchg   %ax,%ax

0000afc0 <pmm_claim_page>:
    afc0:	55                   	push   %ebp
    afc1:	89 e5                	mov    %esp,%ebp
    afc3:	57                   	push   %edi
    afc4:	56                   	push   %esi
    afc5:	53                   	push   %ebx
    afc6:	83 ec 4c             	sub    $0x4c,%esp
    afc9:	8d 75 cc             	lea    -0x34(%ebp),%esi
    afcc:	8b 45 08             	mov    0x8(%ebp),%eax
    afcf:	8b 55 0c             	mov    0xc(%ebp),%edx
    afd2:	c7 44 24 04 c4 ef 00 	movl   $0xefc4,0x4(%esp)
    afd9:	00 
    afda:	89 34 24             	mov    %esi,(%esp)
    afdd:	89 45 c0             	mov    %eax,-0x40(%ebp)
    afe0:	89 55 c4             	mov    %edx,-0x3c(%ebp)
    afe3:	e8 c7 18 00 00       	call   c8af <list_head>
    afe8:	57                   	push   %edi
    afe9:	89 34 24             	mov    %esi,(%esp)
    afec:	ff 55 dc             	call   *-0x24(%ebp)
    afef:	89 c7                	mov    %eax,%edi
    aff1:	85 c0                	test   %eax,%eax
    aff3:	0f 84 08 01 00 00    	je     b101 <pmm_claim_page+0x141>
    aff9:	8b 57 04             	mov    0x4(%edi),%edx
    affc:	8b 00                	mov    (%eax),%eax
    affe:	3b 55 c4             	cmp    -0x3c(%ebp),%edx
    b001:	0f 87 12 01 00 00    	ja     b119 <pmm_claim_page+0x159>
    b007:	0f 83 03 01 00 00    	jae    b110 <pmm_claim_page+0x150>
    b00d:	89 c1                	mov    %eax,%ecx
    b00f:	89 d3                	mov    %edx,%ebx
    b011:	03 4f 08             	add    0x8(%edi),%ecx
    b014:	13 5f 0c             	adc    0xc(%edi),%ebx
    b017:	89 f6                	mov    %esi,%esi
    b019:	8d bc 27 00 00 00 00 	lea    0x0(%edi,%eiz,1),%edi
    b020:	39 5d c4             	cmp    %ebx,-0x3c(%ebp)
    b023:	77 fb                	ja     b020 <pmm_claim_page+0x60>
    b025:	0f 83 f5 00 00 00    	jae    b120 <pmm_claim_page+0x160>
    b02b:	8b 5d c4             	mov    -0x3c(%ebp),%ebx
    b02e:	31 da                	xor    %ebx,%edx
    b030:	8b 5d c0             	mov    -0x40(%ebp),%ebx
    b033:	31 d8                	xor    %ebx,%eax
    b035:	09 c2                	or     %eax,%edx
    b037:	74 66                	je     b09f <pmm_claim_page+0xdf>
    b039:	c7 04 24 18 00 00 00 	movl   $0x18,(%esp)
    b040:	e8 db 02 00 00       	call   b320 <malloc>
    b045:	8b 55 c4             	mov    -0x3c(%ebp),%edx
    b048:	89 c1                	mov    %eax,%ecx
    b04a:	8b 45 c0             	mov    -0x40(%ebp),%eax
    b04d:	89 01                	mov    %eax,(%ecx)
    b04f:	89 51 04             	mov    %edx,0x4(%ecx)
    b052:	8b 07                	mov    (%edi),%eax
    b054:	8b 57 04             	mov    0x4(%edi),%edx
    b057:	89 45 b8             	mov    %eax,-0x48(%ebp)
    b05a:	03 47 08             	add    0x8(%edi),%eax
    b05d:	89 55 bc             	mov    %edx,-0x44(%ebp)
    b060:	13 57 0c             	adc    0xc(%edi),%edx
    b063:	2b 45 c0             	sub    -0x40(%ebp),%eax
    b066:	1b 55 c4             	sbb    -0x3c(%ebp),%edx
    b069:	89 41 08             	mov    %eax,0x8(%ecx)
    b06c:	8b 47 10             	mov    0x10(%edi),%eax
    b06f:	89 51 0c             	mov    %edx,0xc(%ecx)
    b072:	89 41 10             	mov    %eax,0x10(%ecx)
    b075:	8b 47 14             	mov    0x14(%edi),%eax
    b078:	89 41 14             	mov    %eax,0x14(%ecx)
    b07b:	8b 45 c0             	mov    -0x40(%ebp),%eax
    b07e:	2b 45 b8             	sub    -0x48(%ebp),%eax
    b081:	8b 55 c4             	mov    -0x3c(%ebp),%edx
    b084:	1b 55 bc             	sbb    -0x44(%ebp),%edx
    b087:	89 47 08             	mov    %eax,0x8(%edi)
    b08a:	89 57 0c             	mov    %edx,0xc(%edi)
    b08d:	89 4c 24 04          	mov    %ecx,0x4(%esp)
    b091:	89 34 24             	mov    %esi,(%esp)
    b094:	ff 55 e0             	call   *-0x20(%ebp)
    b097:	89 34 24             	mov    %esi,(%esp)
    b09a:	ff 55 d8             	call   *-0x28(%ebp)
    b09d:	89 c7                	mov    %eax,%edi
    b09f:	c7 04 24 18 00 00 00 	movl   $0x18,(%esp)
    b0a6:	e8 75 02 00 00       	call   b320 <malloc>
    b0ab:	8b 4d c0             	mov    -0x40(%ebp),%ecx
    b0ae:	81 c1 00 10 00 00    	add    $0x1000,%ecx
    b0b4:	8b 5d c4             	mov    -0x3c(%ebp),%ebx
    b0b7:	89 08                	mov    %ecx,(%eax)
    b0b9:	8b 4f 08             	mov    0x8(%edi),%ecx
    b0bc:	83 d3 00             	adc    $0x0,%ebx
    b0bf:	8b 57 10             	mov    0x10(%edi),%edx
    b0c2:	81 c1 00 f0 ff ff    	add    $0xfffff000,%ecx
    b0c8:	89 58 04             	mov    %ebx,0x4(%eax)
    b0cb:	8b 5f 0c             	mov    0xc(%edi),%ebx
    b0ce:	89 50 10             	mov    %edx,0x10(%eax)
    b0d1:	83 d3 ff             	adc    $0xffffffff,%ebx
    b0d4:	8b 57 14             	mov    0x14(%edi),%edx
    b0d7:	89 48 08             	mov    %ecx,0x8(%eax)
    b0da:	89 58 0c             	mov    %ebx,0xc(%eax)
    b0dd:	89 50 14             	mov    %edx,0x14(%eax)
    b0e0:	89 44 24 04          	mov    %eax,0x4(%esp)
    b0e4:	89 34 24             	mov    %esi,(%esp)
    b0e7:	ff 55 e0             	call   *-0x20(%ebp)
    b0ea:	8b 4f 10             	mov    0x10(%edi),%ecx
    b0ed:	83 e1 fd             	and    $0xfffffffd,%ecx
    b0f0:	c7 47 08 00 10 00 00 	movl   $0x1000,0x8(%edi)
    b0f7:	89 4f 10             	mov    %ecx,0x10(%edi)
    b0fa:	c7 47 0c 00 00 00 00 	movl   $0x0,0xc(%edi)
    b101:	8d 65 f4             	lea    -0xc(%ebp),%esp
    b104:	5b                   	pop    %ebx
    b105:	5e                   	pop    %esi
    b106:	5f                   	pop    %edi
    b107:	5d                   	pop    %ebp
    b108:	c3                   	ret    
    b109:	8d b4 26 00 00 00 00 	lea    0x0(%esi,%eiz,1),%esi
    b110:	3b 45 c0             	cmp    -0x40(%ebp),%eax
    b113:	0f 86 f4 fe ff ff    	jbe    b00d <pmm_claim_page+0x4d>
    b119:	eb fe                	jmp    b119 <pmm_claim_page+0x159>
    b11b:	90                   	nop
    b11c:	8d 74 26 00          	lea    0x0(%esi,%eiz,1),%esi
    b120:	39 4d c0             	cmp    %ecx,-0x40(%ebp)
    b123:	0f 87 f7 fe ff ff    	ja     b020 <pmm_claim_page+0x60>
    b129:	e9 fd fe ff ff       	jmp    b02b <pmm_claim_page+0x6b>
    b12e:	66 90                	xchg   %ax,%ax

0000b130 <pmm_init>:
    b130:	55                   	push   %ebp
    b131:	89 e5                	mov    %esp,%ebp
    b133:	83 ec 28             	sub    $0x28,%esp
    b136:	8b 55 0c             	mov    0xc(%ebp),%edx
    b139:	8d 45 f0             	lea    -0x10(%ebp),%eax
    b13c:	89 54 24 08          	mov    %edx,0x8(%esp)
    b140:	8b 55 08             	mov    0x8(%ebp),%edx
    b143:	89 04 24             	mov    %eax,(%esp)
    b146:	89 54 24 04          	mov    %edx,0x4(%esp)
    b14a:	e8 e1 f6 ff ff       	call   a830 <e820_map_sanitize>
    b14f:	8b 55 f4             	mov    -0xc(%ebp),%edx
    b152:	89 15 c8 ef 00 00    	mov    %edx,0xefc8
    b158:	50                   	push   %eax
    b159:	8b 45 f0             	mov    -0x10(%ebp),%eax
    b15c:	a3 c4 ef 00 00       	mov    %eax,0xefc4
    b161:	b8 c4 ef 00 00       	mov    $0xefc4,%eax
    b166:	c9                   	leave  
    b167:	c3                   	ret    
    b168:	66 90                	xchg   %ax,%ax
    b16a:	66 90                	xchg   %ax,%ax
    b16c:	66 90                	xchg   %ax,%ax
    b16e:	66 90                	xchg   %ax,%ax

0000b170 <get_mapping>:
    b170:	53                   	push   %ebx
    b171:	83 ca ff             	or     $0xffffffff,%edx
    b174:	8b 44 24 08          	mov    0x8(%esp),%eax
    b178:	89 c3                	mov    %eax,%ebx
    b17a:	c1 e8 16             	shr    $0x16,%eax
    b17d:	c1 eb 0c             	shr    $0xc,%ebx
    b180:	89 c1                	mov    %eax,%ecx
    b182:	83 c8 ff             	or     $0xffffffff,%eax
    b185:	83 3c 8d 00 f0 ff ff 	cmpl   $0x0,-0x1000(,%ecx,4)
    b18c:	00 
    b18d:	75 11                	jne    b1a0 <get_mapping+0x30>
    b18f:	5b                   	pop    %ebx
    b190:	c3                   	ret    
    b191:	eb 0d                	jmp    b1a0 <get_mapping+0x30>
    b193:	90                   	nop
    b194:	90                   	nop
    b195:	90                   	nop
    b196:	90                   	nop
    b197:	90                   	nop
    b198:	90                   	nop
    b199:	90                   	nop
    b19a:	90                   	nop
    b19b:	90                   	nop
    b19c:	90                   	nop
    b19d:	90                   	nop
    b19e:	90                   	nop
    b19f:	90                   	nop
    b1a0:	81 c1 00 fc 0f 00    	add    $0xffc00,%ecx
    b1a6:	81 e3 ff 03 00 00    	and    $0x3ff,%ebx
    b1ac:	c1 e1 0c             	shl    $0xc,%ecx
    b1af:	8d 0c 99             	lea    (%ecx,%ebx,4),%ecx
    b1b2:	85 c9                	test   %ecx,%ecx
    b1b4:	74 d9                	je     b18f <get_mapping+0x1f>
    b1b6:	8b 09                	mov    (%ecx),%ecx
    b1b8:	f6 c1 01             	test   $0x1,%cl
    b1bb:	74 d2                	je     b18f <get_mapping+0x1f>
    b1bd:	89 c8                	mov    %ecx,%eax
    b1bf:	31 d2                	xor    %edx,%edx
    b1c1:	25 00 f0 ff ff       	and    $0xfffff000,%eax
    b1c6:	5b                   	pop    %ebx
    b1c7:	c3                   	ret    
    b1c8:	90                   	nop
    b1c9:	8d b4 26 00 00 00 00 	lea    0x0(%esi,%eiz,1),%esi

0000b1d0 <map_page>:
    b1d0:	55                   	push   %ebp
    b1d1:	57                   	push   %edi
    b1d2:	56                   	push   %esi
    b1d3:	53                   	push   %ebx
    b1d4:	83 ec 1c             	sub    $0x1c,%esp
    b1d7:	8b 44 24 3c          	mov    0x3c(%esp),%eax
    b1db:	8b 4c 24 34          	mov    0x34(%esp),%ecx
    b1df:	89 c2                	mov    %eax,%edx
    b1e1:	83 e2 04             	and    $0x4,%edx
    b1e4:	83 fa 01             	cmp    $0x1,%edx
    b1e7:	19 db                	sbb    %ebx,%ebx
    b1e9:	83 e3 fe             	and    $0xfffffffe,%ebx
    b1ec:	83 c3 03             	add    $0x3,%ebx
    b1ef:	a8 10                	test   $0x10,%al
    b1f1:	74 03                	je     b1f6 <map_page+0x26>
    b1f3:	83 cb 10             	or     $0x10,%ebx
    b1f6:	8b 7c 24 30          	mov    0x30(%esp),%edi
    b1fa:	8b 6c 24 30          	mov    0x30(%esp),%ebp
    b1fe:	c1 ef 16             	shr    $0x16,%edi
    b201:	c1 ed 0c             	shr    $0xc,%ebp
    b204:	8d b7 00 fc 0f 00    	lea    0xffc00(%edi),%esi
    b20a:	c1 e7 02             	shl    $0x2,%edi
    b20d:	c1 e6 0c             	shl    $0xc,%esi
    b210:	8b 87 00 f0 ff ff    	mov    -0x1000(%edi),%eax
    b216:	85 c0                	test   %eax,%eax
    b218:	75 56                	jne    b270 <map_page+0xa0>
    b21a:	89 4c 24 0c          	mov    %ecx,0xc(%esp)
    b21e:	e8 3d fc ff ff       	call   ae60 <pmm_alloc_page>
    b223:	83 c8 03             	or     $0x3,%eax
    b226:	89 87 00 f0 ff ff    	mov    %eax,-0x1000(%edi)
    b22c:	a1 f0 ef 00 00       	mov    0xeff0,%eax
    b231:	0f 22 d8             	mov    %eax,%cr3
    b234:	81 e5 ff 03 00 00    	and    $0x3ff,%ebp
    b23a:	c7 44 24 08 00 10 00 	movl   $0x1000,0x8(%esp)
    b241:	00 
    b242:	c7 44 24 04 00 00 00 	movl   $0x0,0x4(%esp)
    b249:	00 
    b24a:	89 34 24             	mov    %esi,(%esp)
    b24d:	e8 c6 0f 00 00       	call   c218 <memset>
    b252:	8d 04 ae             	lea    (%esi,%ebp,4),%eax
    b255:	8b 4c 24 0c          	mov    0xc(%esp),%ecx
    b259:	09 cb                	or     %ecx,%ebx
    b25b:	89 18                	mov    %ebx,(%eax)
    b25d:	8b 44 24 30          	mov    0x30(%esp),%eax
    b261:	0f 01 38             	invlpg (%eax)
    b264:	83 c4 1c             	add    $0x1c,%esp
    b267:	5b                   	pop    %ebx
    b268:	5e                   	pop    %esi
    b269:	5f                   	pop    %edi
    b26a:	5d                   	pop    %ebp
    b26b:	c3                   	ret    
    b26c:	8d 74 26 00          	lea    0x0(%esi,%eiz,1),%esi
    b270:	81 e5 ff 03 00 00    	and    $0x3ff,%ebp
    b276:	8d 04 ae             	lea    (%esi,%ebp,4),%eax
    b279:	eb de                	jmp    b259 <map_page+0x89>
    b27b:	90                   	nop
    b27c:	8d 74 26 00          	lea    0x0(%esi,%eiz,1),%esi

0000b280 <vmm_init>:
    b280:	56                   	push   %esi
    b281:	53                   	push   %ebx
    b282:	83 ec 14             	sub    $0x14,%esp
    b285:	0f 20 e0             	mov    %cr4,%eax
    b288:	0c 80                	or     $0x80,%al
    b28a:	0f 22 e0             	mov    %eax,%cr4
    b28d:	b8 f4 ef 00 00       	mov    $0xeff4,%eax
    b292:	a9 ff 0f 00 00       	test   $0xfff,%eax
    b297:	74 0a                	je     b2a3 <vmm_init+0x23>
    b299:	25 00 f0 ff ff       	and    $0xfffff000,%eax
    b29e:	05 00 10 00 00       	add    $0x1000,%eax
    b2a3:	8d 90 00 10 00 00    	lea    0x1000(%eax),%edx
    b2a9:	c7 44 24 08 00 10 00 	movl   $0x1000,0x8(%esp)
    b2b0:	00 
    b2b1:	c7 44 24 04 00 00 00 	movl   $0x0,0x4(%esp)
    b2b8:	00 
    b2b9:	89 04 24             	mov    %eax,(%esp)
    b2bc:	a3 f0 ef 00 00       	mov    %eax,0xeff0
    b2c1:	89 15 ec ef 00 00    	mov    %edx,0xefec
    b2c7:	e8 4c 0f 00 00       	call   c218 <memset>
    b2cc:	8b 1d ec ef 00 00    	mov    0xefec,%ebx
    b2d2:	8b 35 f0 ef 00 00    	mov    0xeff0,%esi
    b2d8:	89 d8                	mov    %ebx,%eax
    b2da:	83 c8 03             	or     $0x3,%eax
    b2dd:	89 06                	mov    %eax,(%esi)
    b2df:	89 f0                	mov    %esi,%eax
    b2e1:	83 c8 03             	or     $0x3,%eax
    b2e4:	89 86 fc 0f 00 00    	mov    %eax,0xffc(%esi)
    b2ea:	31 c0                	xor    %eax,%eax
    b2ec:	8d 74 26 00          	lea    0x0(%esi,%eiz,1),%esi
    b2f0:	89 c2                	mov    %eax,%edx
    b2f2:	89 c1                	mov    %eax,%ecx
    b2f4:	c1 ea 0c             	shr    $0xc,%edx
    b2f7:	83 c9 03             	or     $0x3,%ecx
    b2fa:	05 00 10 00 00       	add    $0x1000,%eax
    b2ff:	89 0c 93             	mov    %ecx,(%ebx,%edx,4)
    b302:	3d 00 00 10 00       	cmp    $0x100000,%eax
    b307:	75 e7                	jne    b2f0 <vmm_init+0x70>
    b309:	0f 22 de             	mov    %esi,%cr3
    b30c:	0f 20 c0             	mov    %cr0,%eax
    b30f:	0d 00 00 00 80       	or     $0x80000000,%eax
    b314:	0f 22 c0             	mov    %eax,%cr0
    b317:	83 c4 14             	add    $0x14,%esp
    b31a:	5b                   	pop    %ebx
    b31b:	5e                   	pop    %esi
    b31c:	c3                   	ret    
    b31d:	66 90                	xchg   %ax,%ax
    b31f:	90                   	nop

0000b320 <malloc>:
    b320:	a1 cc ef 00 00       	mov    0xefcc,%eax
    b325:	8b 54 24 04          	mov    0x4(%esp),%edx
    b329:	01 c2                	add    %eax,%edx
    b32b:	89 15 cc ef 00 00    	mov    %edx,0xefcc
    b331:	c3                   	ret    
    b332:	8d b4 26 00 00 00 00 	lea    0x0(%esi,%eiz,1),%esi
    b339:	8d bc 27 00 00 00 00 	lea    0x0(%edi,%eiz,1),%edi

0000b340 <free>:
    b340:	c3                   	ret    
    b341:	eb 0d                	jmp    b350 <watermark_init>
    b343:	90                   	nop
    b344:	90                   	nop
    b345:	90                   	nop
    b346:	90                   	nop
    b347:	90                   	nop
    b348:	90                   	nop
    b349:	90                   	nop
    b34a:	90                   	nop
    b34b:	90                   	nop
    b34c:	90                   	nop
    b34d:	90                   	nop
    b34e:	90                   	nop
    b34f:	90                   	nop

0000b350 <watermark_init>:
    b350:	c7 05 cc ef 00 00 00 	movl   $0x700,0xefcc
    b357:	07 00 00 
    b35a:	c3                   	ret    
    b35b:	66 90                	xchg   %ax,%ax
    b35d:	66 90                	xchg   %ax,%ax
    b35f:	90                   	nop

0000b360 <bios_disk_read>:
    b360:	55                   	push   %ebp
    b361:	89 e5                	mov    %esp,%ebp
    b363:	53                   	push   %ebx
    b364:	56                   	push   %esi
    b365:	57                   	push   %edi
    b366:	ea 6d b3 00 00 18 00 	ljmp   $0x18,$0xb36d

0000b36d <bios_disk_read.pm16_entry>:
    b36d:	b8 20 00 8e d8       	mov    $0xd88e0020,%eax
    b372:	8e c0                	mov    %eax,%es
    b374:	8e e0                	mov    %eax,%fs
    b376:	8e e8                	mov    %eax,%gs
    b378:	8e d0                	mov    %eax,%ss
    b37a:	0f 20 c0             	mov    %cr0,%eax
    b37d:	66 25 fe ff          	and    $0xfffe,%ax
    b381:	ff                   	(bad)  
    b382:	7f 0f                	jg     b393 <bios_disk_read.rm_entry+0x8>
    b384:	22 c0                	and    %al,%al
    b386:	ea 8b b3 00 00 b8 00 	ljmp   $0xb8,$0xb38b

0000b38b <bios_disk_read.rm_entry>:
    b38b:	b8 00 00 8e d8       	mov    $0xd88e0000,%eax
    b390:	8e c0                	mov    %eax,%es
    b392:	8e e0                	mov    %eax,%fs
    b394:	8e e8                	mov    %eax,%gs
    b396:	8e d0                	mov    %eax,%ss
    b398:	0f 01 1e             	lidtl  (%esi)
    b39b:	80 ef fb             	sub    $0xfb,%bh
    b39e:	66 67 8b 45 08       	mov    0x8(%di),%ax
    b3a3:	66 67 8b 5d 0c       	mov    0xc(%di),%bx
    b3a8:	66 67 8b 4d 10       	mov    0x10(%di),%cx
    b3ad:	66 a3 04 05 66 89    	mov    %ax,0x89660504
    b3b3:	1e                   	push   %ds
    b3b4:	08 05 89 0e 02 05    	or     %al,0x5020e89
    b3ba:	66 51                	push   %cx
    b3bc:	66 31 c0             	xor    %ax,%ax
    b3bf:	be 00 05 b4 42       	mov    $0x42b40500,%esi
    b3c4:	8a 16                	mov    (%esi),%dl
    b3c6:	7c ef                	jl     b3b7 <bios_disk_read.rm_entry+0x2c>
    b3c8:	cd 13                	int    $0x13
    b3ca:	fa                   	cli    
    b3cb:	0f 20 c0             	mov    %cr0,%eax
    b3ce:	66 0d 01 00          	or     $0x1,%ax
    b3d2:	00 80 0f 22 c0 ea    	add    %al,-0x153fddf1(%eax)
    b3d8:	dc b3 08 00 66 b8    	fdivl  -0x4799fff8(%ebx)

0000b3dc <bios_disk_read.pm32_exit>:
    b3dc:	66 b8 10 00          	mov    $0x10,%ax
    b3e0:	8e d8                	mov    %eax,%ds
    b3e2:	8e c0                	mov    %eax,%es
    b3e4:	8e e0                	mov    %eax,%fs
    b3e6:	8e e8                	mov    %eax,%gs
    b3e8:	8e d0                	mov    %eax,%ss
    b3ea:	58                   	pop    %eax
    b3eb:	5f                   	pop    %edi
    b3ec:	5e                   	pop    %esi
    b3ed:	5b                   	pop    %ebx
    b3ee:	5d                   	pop    %ebp
    b3ef:	c3                   	ret    

0000b3f0 <bios_disk_write>:
    b3f0:	eb fe                	jmp    b3f0 <bios_disk_write>

0000b3f2 <bios_disk_init>:
    b3f2:	55                   	push   %ebp
    b3f3:	89 e5                	mov    %esp,%ebp
    b3f5:	53                   	push   %ebx
    b3f6:	56                   	push   %esi
    b3f7:	57                   	push   %edi
    b3f8:	66 8b 45 08          	mov    0x8(%ebp),%ax
    b3fc:	66 a3 7c ef 00 00    	mov    %ax,0xef7c
    b402:	c6 05 00 05 00 00 10 	movb   $0x10,0x500
    b409:	c6 05 01 05 00 00 00 	movb   $0x0,0x501
    b410:	c7 05 0c 05 00 00 00 	movl   $0x0,0x50c
    b417:	00 00 00 
    b41a:	5f                   	pop    %edi
    b41b:	5e                   	pop    %esi
    b41c:	5b                   	pop    %ebx
    b41d:	5d                   	pop    %ebp
    b41e:	c3                   	ret    
    b41f:	90                   	nop

0000b420 <blockdev_read>:
    b420:	53                   	push   %ebx
    b421:	8b 4c 24 08          	mov    0x8(%esp),%ecx
    b425:	8b 19                	mov    (%ecx),%ebx
    b427:	8b 03                	mov    (%ebx),%eax
    b429:	5b                   	pop    %ebx
    b42a:	ff e0                	jmp    *%eax
    b42c:	8d 74 26 00          	lea    0x0(%esi,%eiz,1),%esi

0000b430 <blockdev_write>:
    b430:	53                   	push   %ebx
    b431:	8b 4c 24 08          	mov    0x8(%esp),%ecx
    b435:	8b 19                	mov    (%ecx),%ebx
    b437:	8b 43 04             	mov    0x4(%ebx),%eax
    b43a:	5b                   	pop    %ebx
    b43b:	ff e0                	jmp    *%eax
    b43d:	66 90                	xchg   %ax,%ax
    b43f:	90                   	nop

0000b440 <disk_read>:
    b440:	83 ec 1c             	sub    $0x1c,%esp
    b443:	8b 44 24 30          	mov    0x30(%esp),%eax
    b447:	89 44 24 08          	mov    %eax,0x8(%esp)
    b44b:	8b 44 24 28          	mov    0x28(%esp),%eax
    b44f:	89 44 24 04          	mov    %eax,0x4(%esp)
    b453:	8b 44 24 24          	mov    0x24(%esp),%eax
    b457:	89 04 24             	mov    %eax,(%esp)
    b45a:	e8 01 ff ff ff       	call   b360 <bios_disk_read>
    b45f:	31 d2                	xor    %edx,%edx
    b461:	83 c4 1c             	add    $0x1c,%esp
    b464:	c3                   	ret    
    b465:	8d 74 26 00          	lea    0x0(%esi,%eiz,1),%esi
    b469:	8d bc 27 00 00 00 00 	lea    0x0(%edi,%eiz,1),%edi

0000b470 <disk_write>:
    b470:	56                   	push   %esi
    b471:	53                   	push   %ebx
    b472:	83 ec 14             	sub    $0x14,%esp
    b475:	8b 44 24 28          	mov    0x28(%esp),%eax
    b479:	8b 5c 24 30          	mov    0x30(%esp),%ebx
    b47d:	89 44 24 04          	mov    %eax,0x4(%esp)
    b481:	8b 44 24 24          	mov    0x24(%esp),%eax
    b485:	89 5c 24 08          	mov    %ebx,0x8(%esp)
    b489:	89 04 24             	mov    %eax,(%esp)
    b48c:	8b 74 24 34          	mov    0x34(%esp),%esi
    b490:	e8 5b ff ff ff       	call   b3f0 <bios_disk_write>
    b495:	83 c4 14             	add    $0x14,%esp
    b498:	89 d8                	mov    %ebx,%eax
    b49a:	89 f2                	mov    %esi,%edx
    b49c:	5b                   	pop    %ebx
    b49d:	5e                   	pop    %esi
    b49e:	c3                   	ret    
    b49f:	90                   	nop

0000b4a0 <disk_init>:
    b4a0:	55                   	push   %ebp
    b4a1:	89 e5                	mov    %esp,%ebp
    b4a3:	56                   	push   %esi
    b4a4:	53                   	push   %ebx
    b4a5:	83 ec 10             	sub    $0x10,%esp
    b4a8:	8b 45 08             	mov    0x8(%ebp),%eax
    b4ab:	89 04 24             	mov    %eax,(%esp)
    b4ae:	e8 3f ff ff ff       	call   b3f2 <bios_disk_init>
    b4b3:	c7 04 24 18 00 00 00 	movl   $0x18,(%esp)
    b4ba:	e8 61 fe ff ff       	call   b320 <malloc>
    b4bf:	c7 04 24 08 00 00 00 	movl   $0x8,(%esp)
    b4c6:	89 c3                	mov    %eax,%ebx
    b4c8:	e8 53 fe ff ff       	call   b320 <malloc>
    b4cd:	89 c6                	mov    %eax,%esi
    b4cf:	89 03                	mov    %eax,(%ebx)
    b4d1:	8d 45 f0             	lea    -0x10(%ebp),%eax
    b4d4:	c7 43 04 00 00 00 00 	movl   $0x0,0x4(%ebx)
    b4db:	89 04 24             	mov    %eax,(%esp)
    b4de:	e8 51 12 00 00       	call   c734 <list_create>
    b4e3:	8b 55 f4             	mov    -0xc(%ebp),%edx
    b4e6:	50                   	push   %eax
    b4e7:	8b 45 f0             	mov    -0x10(%ebp),%eax
    b4ea:	89 43 08             	mov    %eax,0x8(%ebx)
    b4ed:	89 53 0c             	mov    %edx,0xc(%ebx)
    b4f0:	c7 43 14 00 02 00 00 	movl   $0x200,0x14(%ebx)
    b4f7:	c7 06 40 b4 00 00    	movl   $0xb440,(%esi)
    b4fd:	c7 46 04 70 b4 00 00 	movl   $0xb470,0x4(%esi)
    b504:	8d 65 f8             	lea    -0x8(%ebp),%esp
    b507:	89 d8                	mov    %ebx,%eax
    b509:	5b                   	pop    %ebx
    b50a:	5e                   	pop    %esi
    b50b:	5d                   	pop    %ebp
    b50c:	c3                   	ret    
    b50d:	66 90                	xchg   %ax,%ax
    b50f:	90                   	nop

0000b510 <partition_read>:
    b510:	57                   	push   %edi
    b511:	56                   	push   %esi
    b512:	53                   	push   %ebx
    b513:	8b 4c 24 10          	mov    0x10(%esp),%ecx
    b517:	8b 5c 24 24          	mov    0x24(%esp),%ebx
    b51b:	8b 74 24 14          	mov    0x14(%esp),%esi
    b51f:	8b 44 24 18          	mov    0x18(%esp),%eax
    b523:	8b 54 24 1c          	mov    0x1c(%esp),%edx
    b527:	8b 7c 24 20          	mov    0x20(%esp),%edi
    b52b:	39 59 28             	cmp    %ebx,0x28(%ecx)
    b52e:	72 35                	jb     b565 <partition_read+0x55>
    b530:	76 2e                	jbe    b560 <partition_read+0x50>
    b532:	89 7c 24 20          	mov    %edi,0x20(%esp)
    b536:	89 5c 24 24          	mov    %ebx,0x24(%esp)
    b53a:	03 41 1c             	add    0x1c(%ecx),%eax
    b53d:	13 51 20             	adc    0x20(%ecx),%edx
    b540:	89 44 24 18          	mov    %eax,0x18(%esp)
    b544:	89 54 24 1c          	mov    %edx,0x1c(%esp)
    b548:	89 74 24 14          	mov    %esi,0x14(%esp)
    b54c:	8b 41 18             	mov    0x18(%ecx),%eax
    b54f:	89 44 24 10          	mov    %eax,0x10(%esp)
    b553:	5b                   	pop    %ebx
    b554:	5e                   	pop    %esi
    b555:	5f                   	pop    %edi
    b556:	e9 c5 fe ff ff       	jmp    b420 <blockdev_read>
    b55b:	90                   	nop
    b55c:	8d 74 26 00          	lea    0x0(%esi,%eiz,1),%esi
    b560:	39 79 24             	cmp    %edi,0x24(%ecx)
    b563:	77 cd                	ja     b532 <partition_read+0x22>
    b565:	5b                   	pop    %ebx
    b566:	31 c0                	xor    %eax,%eax
    b568:	31 d2                	xor    %edx,%edx
    b56a:	5e                   	pop    %esi
    b56b:	5f                   	pop    %edi
    b56c:	c3                   	ret    
    b56d:	8d 76 00             	lea    0x0(%esi),%esi

0000b570 <partition_write>:
    b570:	57                   	push   %edi
    b571:	56                   	push   %esi
    b572:	53                   	push   %ebx
    b573:	8b 4c 24 10          	mov    0x10(%esp),%ecx
    b577:	8b 5c 24 24          	mov    0x24(%esp),%ebx
    b57b:	8b 74 24 14          	mov    0x14(%esp),%esi
    b57f:	8b 44 24 18          	mov    0x18(%esp),%eax
    b583:	8b 54 24 1c          	mov    0x1c(%esp),%edx
    b587:	8b 7c 24 20          	mov    0x20(%esp),%edi
    b58b:	39 59 28             	cmp    %ebx,0x28(%ecx)
    b58e:	72 35                	jb     b5c5 <partition_write+0x55>
    b590:	76 2e                	jbe    b5c0 <partition_write+0x50>
    b592:	89 7c 24 20          	mov    %edi,0x20(%esp)
    b596:	89 5c 24 24          	mov    %ebx,0x24(%esp)
    b59a:	03 41 1c             	add    0x1c(%ecx),%eax
    b59d:	13 51 20             	adc    0x20(%ecx),%edx
    b5a0:	89 44 24 18          	mov    %eax,0x18(%esp)
    b5a4:	89 54 24 1c          	mov    %edx,0x1c(%esp)
    b5a8:	89 74 24 14          	mov    %esi,0x14(%esp)
    b5ac:	8b 41 18             	mov    0x18(%ecx),%eax
    b5af:	89 44 24 10          	mov    %eax,0x10(%esp)
    b5b3:	5b                   	pop    %ebx
    b5b4:	5e                   	pop    %esi
    b5b5:	5f                   	pop    %edi
    b5b6:	e9 75 fe ff ff       	jmp    b430 <blockdev_write>
    b5bb:	90                   	nop
    b5bc:	8d 74 26 00          	lea    0x0(%esi,%eiz,1),%esi
    b5c0:	39 79 24             	cmp    %edi,0x24(%ecx)
    b5c3:	77 cd                	ja     b592 <partition_write+0x22>
    b5c5:	5b                   	pop    %ebx
    b5c6:	31 c0                	xor    %eax,%eax
    b5c8:	31 d2                	xor    %edx,%edx
    b5ca:	5e                   	pop    %esi
    b5cb:	5f                   	pop    %edi
    b5cc:	c3                   	ret    
    b5cd:	8d 76 00             	lea    0x0(%esi),%esi

0000b5d0 <mbr_get_partition>:
    b5d0:	55                   	push   %ebp
    b5d1:	89 e5                	mov    %esp,%ebp
    b5d3:	57                   	push   %edi
    b5d4:	56                   	push   %esi
    b5d5:	53                   	push   %ebx
    b5d6:	83 ec 2c             	sub    $0x2c,%esp
    b5d9:	8b 1d d0 ef 00 00    	mov    0xefd0,%ebx
    b5df:	85 db                	test   %ebx,%ebx
    b5e1:	0f 84 b9 00 00 00    	je     b6a0 <mbr_get_partition+0xd0>
    b5e7:	83 7d 0c 03          	cmpl   $0x3,0xc(%ebp)
    b5eb:	7f 25                	jg     b612 <mbr_get_partition+0x42>
    b5ed:	8b 45 0c             	mov    0xc(%ebp),%eax
    b5f0:	8b 15 d0 ef 00 00    	mov    0xefd0,%edx
    b5f6:	c1 e0 04             	shl    $0x4,%eax
    b5f9:	8d b4 02 be 01 00 00 	lea    0x1be(%edx,%eax,1),%esi
    b600:	8b 4e 08             	mov    0x8(%esi),%ecx
    b603:	85 c9                	test   %ecx,%ecx
    b605:	0f 84 85 00 00 00    	je     b690 <mbr_get_partition+0xc0>
    b60b:	8b 56 0c             	mov    0xc(%esi),%edx
    b60e:	85 d2                	test   %edx,%edx
    b610:	74 7e                	je     b690 <mbr_get_partition+0xc0>
    b612:	c7 04 24 2c 00 00 00 	movl   $0x2c,(%esp)
    b619:	e8 02 fd ff ff       	call   b320 <malloc>
    b61e:	c7 04 24 08 00 00 00 	movl   $0x8,(%esp)
    b625:	89 c3                	mov    %eax,%ebx
    b627:	e8 f4 fc ff ff       	call   b320 <malloc>
    b62c:	89 c7                	mov    %eax,%edi
    b62e:	89 03                	mov    %eax,(%ebx)
    b630:	8d 45 e0             	lea    -0x20(%ebp),%eax
    b633:	c7 43 04 00 00 00 00 	movl   $0x0,0x4(%ebx)
    b63a:	89 04 24             	mov    %eax,(%esp)
    b63d:	e8 f2 10 00 00       	call   c734 <list_create>
    b642:	8b 55 e4             	mov    -0x1c(%ebp),%edx
    b645:	50                   	push   %eax
    b646:	8b 45 e0             	mov    -0x20(%ebp),%eax
    b649:	89 43 08             	mov    %eax,0x8(%ebx)
    b64c:	8b 45 08             	mov    0x8(%ebp),%eax
    b64f:	89 43 18             	mov    %eax,0x18(%ebx)
    b652:	8b 46 08             	mov    0x8(%esi),%eax
    b655:	89 43 1c             	mov    %eax,0x1c(%ebx)
    b658:	8b 46 0c             	mov    0xc(%esi),%eax
    b65b:	89 43 24             	mov    %eax,0x24(%ebx)
    b65e:	89 53 0c             	mov    %edx,0xc(%ebx)
    b661:	c7 43 14 00 02 00 00 	movl   $0x200,0x14(%ebx)
    b668:	c7 43 20 00 00 00 00 	movl   $0x0,0x20(%ebx)
    b66f:	c7 43 28 00 00 00 00 	movl   $0x0,0x28(%ebx)
    b676:	c7 07 10 b5 00 00    	movl   $0xb510,(%edi)
    b67c:	c7 47 04 70 b5 00 00 	movl   $0xb570,0x4(%edi)
    b683:	8d 65 f4             	lea    -0xc(%ebp),%esp
    b686:	89 d8                	mov    %ebx,%eax
    b688:	5b                   	pop    %ebx
    b689:	5e                   	pop    %esi
    b68a:	5f                   	pop    %edi
    b68b:	5d                   	pop    %ebp
    b68c:	c3                   	ret    
    b68d:	8d 76 00             	lea    0x0(%esi),%esi
    b690:	8d 65 f4             	lea    -0xc(%ebp),%esp
    b693:	31 c0                	xor    %eax,%eax
    b695:	5b                   	pop    %ebx
    b696:	5e                   	pop    %esi
    b697:	5f                   	pop    %edi
    b698:	5d                   	pop    %ebp
    b699:	c3                   	ret    
    b69a:	8d b6 00 00 00 00    	lea    0x0(%esi),%esi
    b6a0:	c7 04 24 00 02 00 00 	movl   $0x200,(%esp)
    b6a7:	e8 74 fc ff ff       	call   b320 <malloc>
    b6ac:	c7 44 24 10 01 00 00 	movl   $0x1,0x10(%esp)
    b6b3:	00 
    b6b4:	89 44 24 04          	mov    %eax,0x4(%esp)
    b6b8:	a3 d0 ef 00 00       	mov    %eax,0xefd0
    b6bd:	8b 45 08             	mov    0x8(%ebp),%eax
    b6c0:	c7 44 24 14 00 00 00 	movl   $0x0,0x14(%esp)
    b6c7:	00 
    b6c8:	c7 44 24 08 00 00 00 	movl   $0x0,0x8(%esp)
    b6cf:	00 
    b6d0:	c7 44 24 0c 00 00 00 	movl   $0x0,0xc(%esp)
    b6d7:	00 
    b6d8:	89 04 24             	mov    %eax,(%esp)
    b6db:	e8 40 fd ff ff       	call   b420 <blockdev_read>
    b6e0:	e9 02 ff ff ff       	jmp    b5e7 <mbr_get_partition+0x17>
    b6e5:	66 90                	xchg   %ax,%ax
    b6e7:	66 90                	xchg   %ax,%ax
    b6e9:	66 90                	xchg   %ax,%ax
    b6eb:	66 90                	xchg   %ax,%ax
    b6ed:	66 90                	xchg   %ax,%ax
    b6ef:	90                   	nop

0000b6f0 <storage_get_disk>:
    b6f0:	55                   	push   %ebp
    b6f1:	89 e5                	mov    %esp,%ebp
    b6f3:	56                   	push   %esi
    b6f4:	53                   	push   %ebx
    b6f5:	83 ec 30             	sub    $0x30,%esp
    b6f8:	8d 75 dc             	lea    -0x24(%ebp),%esi
    b6fb:	a1 d4 ef 00 00       	mov    0xefd4,%eax
    b700:	8b 5d 08             	mov    0x8(%ebp),%ebx
    b703:	83 c0 08             	add    $0x8,%eax
    b706:	89 34 24             	mov    %esi,(%esp)
    b709:	89 44 24 04          	mov    %eax,0x4(%esp)
    b70d:	e8 9d 11 00 00       	call   c8af <list_head>
    b712:	50                   	push   %eax
    b713:	89 34 24             	mov    %esi,(%esp)
    b716:	ff 55 ec             	call   *-0x14(%ebp)
    b719:	85 db                	test   %ebx,%ebx
    b71b:	7f 07                	jg     b724 <storage_get_disk+0x34>
    b71d:	eb 12                	jmp    b731 <storage_get_disk+0x41>
    b71f:	90                   	nop
    b720:	85 db                	test   %ebx,%ebx
    b722:	74 0d                	je     b731 <storage_get_disk+0x41>
    b724:	89 34 24             	mov    %esi,(%esp)
    b727:	4b                   	dec    %ebx
    b728:	ff 55 e8             	call   *-0x18(%ebp)
    b72b:	85 c0                	test   %eax,%eax
    b72d:	75 f1                	jne    b720 <storage_get_disk+0x30>
    b72f:	31 c0                	xor    %eax,%eax
    b731:	8d 65 f8             	lea    -0x8(%ebp),%esp
    b734:	5b                   	pop    %ebx
    b735:	5e                   	pop    %esi
    b736:	5d                   	pop    %ebp
    b737:	c3                   	ret    
    b738:	90                   	nop
    b739:	8d b4 26 00 00 00 00 	lea    0x0(%esi,%eiz,1),%esi

0000b740 <storage_get_partition>:
    b740:	55                   	push   %ebp
    b741:	89 e5                	mov    %esp,%ebp
    b743:	57                   	push   %edi
    b744:	56                   	push   %esi
    b745:	53                   	push   %ebx
    b746:	83 ec 3c             	sub    $0x3c,%esp
    b749:	8d 7d cc             	lea    -0x34(%ebp),%edi
    b74c:	a1 d4 ef 00 00       	mov    0xefd4,%eax
    b751:	8b 75 08             	mov    0x8(%ebp),%esi
    b754:	83 c0 08             	add    $0x8,%eax
    b757:	89 3c 24             	mov    %edi,(%esp)
    b75a:	89 44 24 04          	mov    %eax,0x4(%esp)
    b75e:	8b 5d 0c             	mov    0xc(%ebp),%ebx
    b761:	e8 49 11 00 00       	call   c8af <list_head>
    b766:	51                   	push   %ecx
    b767:	89 3c 24             	mov    %edi,(%esp)
    b76a:	ff 55 dc             	call   *-0x24(%ebp)
    b76d:	85 f6                	test   %esi,%esi
    b76f:	7f 13                	jg     b784 <storage_get_partition+0x44>
    b771:	eb 1e                	jmp    b791 <storage_get_partition+0x51>
    b773:	8d b6 00 00 00 00    	lea    0x0(%esi),%esi
    b779:	8d bc 27 00 00 00 00 	lea    0x0(%edi,%eiz,1),%edi
    b780:	85 f6                	test   %esi,%esi
    b782:	74 0d                	je     b791 <storage_get_partition+0x51>
    b784:	89 3c 24             	mov    %edi,(%esp)
    b787:	4e                   	dec    %esi
    b788:	ff 55 d8             	call   *-0x28(%ebp)
    b78b:	85 c0                	test   %eax,%eax
    b78d:	75 f1                	jne    b780 <storage_get_partition+0x40>
    b78f:	31 c0                	xor    %eax,%eax
    b791:	83 c0 08             	add    $0x8,%eax
    b794:	89 3c 24             	mov    %edi,(%esp)
    b797:	89 44 24 04          	mov    %eax,0x4(%esp)
    b79b:	e8 0f 11 00 00       	call   c8af <list_head>
    b7a0:	52                   	push   %edx
    b7a1:	89 3c 24             	mov    %edi,(%esp)
    b7a4:	ff 55 dc             	call   *-0x24(%ebp)
    b7a7:	85 db                	test   %ebx,%ebx
    b7a9:	7f 09                	jg     b7b4 <storage_get_partition+0x74>
    b7ab:	eb 14                	jmp    b7c1 <storage_get_partition+0x81>
    b7ad:	8d 76 00             	lea    0x0(%esi),%esi
    b7b0:	85 db                	test   %ebx,%ebx
    b7b2:	74 0d                	je     b7c1 <storage_get_partition+0x81>
    b7b4:	89 3c 24             	mov    %edi,(%esp)
    b7b7:	4b                   	dec    %ebx
    b7b8:	ff 55 d8             	call   *-0x28(%ebp)
    b7bb:	85 c0                	test   %eax,%eax
    b7bd:	75 f1                	jne    b7b0 <storage_get_partition+0x70>
    b7bf:	31 c0                	xor    %eax,%eax
    b7c1:	8d 65 f4             	lea    -0xc(%ebp),%esp
    b7c4:	5b                   	pop    %ebx
    b7c5:	5e                   	pop    %esi
    b7c6:	5f                   	pop    %edi
    b7c7:	5d                   	pop    %ebp
    b7c8:	c3                   	ret    
    b7c9:	8d b4 26 00 00 00 00 	lea    0x0(%esi,%eiz,1),%esi

0000b7d0 <storage_get_boot_device>:
    b7d0:	55                   	push   %ebp
    b7d1:	89 e5                	mov    %esp,%ebp
    b7d3:	57                   	push   %edi
    b7d4:	56                   	push   %esi
    b7d5:	53                   	push   %ebx
    b7d6:	83 ec 5c             	sub    $0x5c,%esp
    b7d9:	8d 5d cc             	lea    -0x34(%ebp),%ebx
    b7dc:	a1 d4 ef 00 00       	mov    0xefd4,%eax
    b7e1:	83 c0 08             	add    $0x8,%eax
    b7e4:	89 1c 24             	mov    %ebx,(%esp)
    b7e7:	89 44 24 04          	mov    %eax,0x4(%esp)
    b7eb:	e8 bf 10 00 00       	call   c8af <list_head>
    b7f0:	50                   	push   %eax
    b7f1:	89 1c 24             	mov    %ebx,(%esp)
    b7f4:	ff 55 dc             	call   *-0x24(%ebp)
    b7f7:	85 c0                	test   %eax,%eax
    b7f9:	75 0f                	jne    b80a <storage_get_boot_device+0x3a>
    b7fb:	eb 73                	jmp    b870 <storage_get_boot_device+0xa0>
    b7fd:	8d 76 00             	lea    0x0(%esi),%esi
    b800:	89 1c 24             	mov    %ebx,(%esp)
    b803:	ff 55 d8             	call   *-0x28(%ebp)
    b806:	85 c0                	test   %eax,%eax
    b808:	74 66                	je     b870 <storage_get_boot_device+0xa0>
    b80a:	80 78 10 00          	cmpb   $0x0,0x10(%eax)
    b80e:	74 f0                	je     b800 <storage_get_boot_device+0x30>
    b810:	83 c0 08             	add    $0x8,%eax
    b813:	8d 75 a8             	lea    -0x58(%ebp),%esi
    b816:	89 44 24 04          	mov    %eax,0x4(%esp)
    b81a:	89 34 24             	mov    %esi,(%esp)
    b81d:	e8 8d 10 00 00       	call   c8af <list_head>
    b822:	b9 07 00 00 00       	mov    $0x7,%ecx
    b827:	57                   	push   %edi
    b828:	89 df                	mov    %ebx,%edi
    b82a:	f3 a5                	rep movsl %ds:(%esi),%es:(%edi)
    b82c:	8d 5d cc             	lea    -0x34(%ebp),%ebx
    b82f:	89 1c 24             	mov    %ebx,(%esp)
    b832:	ff 55 dc             	call   *-0x24(%ebp)
    b835:	85 c0                	test   %eax,%eax
    b837:	75 11                	jne    b84a <storage_get_boot_device+0x7a>
    b839:	eb 25                	jmp    b860 <storage_get_boot_device+0x90>
    b83b:	90                   	nop
    b83c:	8d 74 26 00          	lea    0x0(%esi,%eiz,1),%esi
    b840:	89 1c 24             	mov    %ebx,(%esp)
    b843:	ff 55 d8             	call   *-0x28(%ebp)
    b846:	85 c0                	test   %eax,%eax
    b848:	74 16                	je     b860 <storage_get_boot_device+0x90>
    b84a:	80 78 10 00          	cmpb   $0x0,0x10(%eax)
    b84e:	74 f0                	je     b840 <storage_get_boot_device+0x70>
    b850:	8d 65 f4             	lea    -0xc(%ebp),%esp
    b853:	5b                   	pop    %ebx
    b854:	5e                   	pop    %esi
    b855:	5f                   	pop    %edi
    b856:	5d                   	pop    %ebp
    b857:	c3                   	ret    
    b858:	90                   	nop
    b859:	8d b4 26 00 00 00 00 	lea    0x0(%esi,%eiz,1),%esi
    b860:	8d 65 f4             	lea    -0xc(%ebp),%esp
    b863:	31 c0                	xor    %eax,%eax
    b865:	5b                   	pop    %ebx
    b866:	5e                   	pop    %esi
    b867:	5f                   	pop    %edi
    b868:	5d                   	pop    %ebp
    b869:	c3                   	ret    
    b86a:	8d b6 00 00 00 00    	lea    0x0(%esi),%esi
    b870:	31 c0                	xor    %eax,%eax
    b872:	eb 9c                	jmp    b810 <storage_get_boot_device+0x40>
    b874:	8d b6 00 00 00 00    	lea    0x0(%esi),%esi
    b87a:	8d bf 00 00 00 00    	lea    0x0(%edi),%edi

0000b880 <storage_init>:
    b880:	55                   	push   %ebp
    b881:	89 e5                	mov    %esp,%ebp
    b883:	57                   	push   %edi
    b884:	56                   	push   %esi
    b885:	53                   	push   %ebx
    b886:	83 ec 2c             	sub    $0x2c,%esp
    b889:	c7 04 24 14 00 00 00 	movl   $0x14,(%esp)
    b890:	e8 8b fa ff ff       	call   b320 <malloc>
    b895:	89 c6                	mov    %eax,%esi
    b897:	a3 d4 ef 00 00       	mov    %eax,0xefd4
    b89c:	c7 00 00 00 00 00    	movl   $0x0,(%eax)
    b8a2:	c7 40 04 ff ff ff ff 	movl   $0xffffffff,0x4(%eax)
    b8a9:	8d 45 e0             	lea    -0x20(%ebp),%eax
    b8ac:	89 04 24             	mov    %eax,(%esp)
    b8af:	e8 80 0e 00 00       	call   c734 <list_create>
    b8b4:	8b 4d e0             	mov    -0x20(%ebp),%ecx
    b8b7:	8b 45 08             	mov    0x8(%ebp),%eax
    b8ba:	53                   	push   %ebx
    b8bb:	8b 5d e4             	mov    -0x1c(%ebp),%ebx
    b8be:	89 5e 0c             	mov    %ebx,0xc(%esi)
    b8c1:	89 4e 08             	mov    %ecx,0x8(%esi)
    b8c4:	89 04 24             	mov    %eax,(%esp)
    b8c7:	31 db                	xor    %ebx,%ebx
    b8c9:	e8 d2 fb ff ff       	call   b4a0 <disk_init>
    b8ce:	89 c6                	mov    %eax,%esi
    b8d0:	c6 40 10 01          	movb   $0x1,0x10(%eax)
    b8d4:	89 44 24 04          	mov    %eax,0x4(%esp)
    b8d8:	a1 d4 ef 00 00       	mov    0xefd4,%eax
    b8dd:	8d 7e 08             	lea    0x8(%esi),%edi
    b8e0:	83 c0 08             	add    $0x8,%eax
    b8e3:	89 04 24             	mov    %eax,(%esp)
    b8e6:	e8 bf 0e 00 00       	call   c7aa <list_insert_tail>
    b8eb:	89 5c 24 04          	mov    %ebx,0x4(%esp)
    b8ef:	89 34 24             	mov    %esi,(%esp)
    b8f2:	e8 d9 fc ff ff       	call   b5d0 <mbr_get_partition>
    b8f7:	85 c0                	test   %eax,%eax
    b8f9:	74 1f                	je     b91a <storage_init+0x9a>
    b8fb:	89 44 24 04          	mov    %eax,0x4(%esp)
    b8ff:	89 3c 24             	mov    %edi,(%esp)
    b902:	89 45 dc             	mov    %eax,-0x24(%ebp)
    b905:	e8 a0 0e 00 00       	call   c7aa <list_insert_tail>
    b90a:	8b 45 dc             	mov    -0x24(%ebp),%eax
    b90d:	8b 55 0c             	mov    0xc(%ebp),%edx
    b910:	8b 48 1c             	mov    0x1c(%eax),%ecx
    b913:	31 ca                	xor    %ecx,%edx
    b915:	0b 50 20             	or     0x20(%eax),%edx
    b918:	74 16                	je     b930 <storage_init+0xb0>
    b91a:	43                   	inc    %ebx
    b91b:	83 fb 04             	cmp    $0x4,%ebx
    b91e:	75 cb                	jne    b8eb <storage_init+0x6b>
    b920:	8d 65 f4             	lea    -0xc(%ebp),%esp
    b923:	5b                   	pop    %ebx
    b924:	5e                   	pop    %esi
    b925:	5f                   	pop    %edi
    b926:	5d                   	pop    %ebp
    b927:	c3                   	ret    
    b928:	90                   	nop
    b929:	8d b4 26 00 00 00 00 	lea    0x0(%esi,%eiz,1),%esi
    b930:	c6 40 10 01          	movb   $0x1,0x10(%eax)
    b934:	eb e4                	jmp    b91a <storage_init+0x9a>
    b936:	66 90                	xchg   %ax,%ax

0000b938 <floor>:
    b938:	57                   	push   %edi
    b939:	56                   	push   %esi
    b93a:	83 ec 24             	sub    $0x24,%esp
    b93d:	8b 74 24 30          	mov    0x30(%esp),%esi
    b941:	8b 7c 24 34          	mov    0x34(%esp),%edi
    b945:	8b 44 24 38          	mov    0x38(%esp),%eax
    b949:	8b 54 24 3c          	mov    0x3c(%esp),%edx
    b94d:	89 44 24 18          	mov    %eax,0x18(%esp)
    b951:	89 54 24 1c          	mov    %edx,0x1c(%esp)
    b955:	89 44 24 08          	mov    %eax,0x8(%esp)
    b959:	89 54 24 0c          	mov    %edx,0xc(%esp)
    b95d:	89 34 24             	mov    %esi,(%esp)
    b960:	89 7c 24 04          	mov    %edi,0x4(%esp)
    b964:	e8 d7 2a 00 00       	call   e440 <__umoddi3>
    b969:	89 d1                	mov    %edx,%ecx
    b96b:	09 c1                	or     %eax,%ecx
    b96d:	75 1e                	jne    b98d <floor+0x55>
    b96f:	8b 44 24 18          	mov    0x18(%esp),%eax
    b973:	8b 54 24 1c          	mov    0x1c(%esp),%edx
    b977:	89 44 24 08          	mov    %eax,0x8(%esp)
    b97b:	89 54 24 0c          	mov    %edx,0xc(%esp)
    b97f:	89 34 24             	mov    %esi,(%esp)
    b982:	89 7c 24 04          	mov    %edi,0x4(%esp)
    b986:	e8 85 29 00 00       	call   e310 <__udivdi3>
    b98b:	eb 20                	jmp    b9ad <floor+0x75>
    b98d:	29 c6                	sub    %eax,%esi
    b98f:	19 d7                	sbb    %edx,%edi
    b991:	8b 44 24 18          	mov    0x18(%esp),%eax
    b995:	8b 54 24 1c          	mov    0x1c(%esp),%edx
    b999:	89 44 24 08          	mov    %eax,0x8(%esp)
    b99d:	89 54 24 0c          	mov    %edx,0xc(%esp)
    b9a1:	89 34 24             	mov    %esi,(%esp)
    b9a4:	89 7c 24 04          	mov    %edi,0x4(%esp)
    b9a8:	e8 63 29 00 00       	call   e310 <__udivdi3>
    b9ad:	83 c4 24             	add    $0x24,%esp
    b9b0:	5e                   	pop    %esi
    b9b1:	5f                   	pop    %edi
    b9b2:	c3                   	ret    

0000b9b3 <ceil>:
    b9b3:	57                   	push   %edi
    b9b4:	56                   	push   %esi
    b9b5:	83 ec 24             	sub    $0x24,%esp
    b9b8:	8b 74 24 30          	mov    0x30(%esp),%esi
    b9bc:	8b 7c 24 34          	mov    0x34(%esp),%edi
    b9c0:	8b 44 24 38          	mov    0x38(%esp),%eax
    b9c4:	8b 54 24 3c          	mov    0x3c(%esp),%edx
    b9c8:	89 44 24 18          	mov    %eax,0x18(%esp)
    b9cc:	89 54 24 1c          	mov    %edx,0x1c(%esp)
    b9d0:	89 44 24 08          	mov    %eax,0x8(%esp)
    b9d4:	89 54 24 0c          	mov    %edx,0xc(%esp)
    b9d8:	89 34 24             	mov    %esi,(%esp)
    b9db:	89 7c 24 04          	mov    %edi,0x4(%esp)
    b9df:	e8 5c 2a 00 00       	call   e440 <__umoddi3>
    b9e4:	89 d1                	mov    %edx,%ecx
    b9e6:	09 c1                	or     %eax,%ecx
    b9e8:	75 1e                	jne    ba08 <ceil+0x55>
    b9ea:	8b 44 24 18          	mov    0x18(%esp),%eax
    b9ee:	8b 54 24 1c          	mov    0x1c(%esp),%edx
    b9f2:	89 44 24 08          	mov    %eax,0x8(%esp)
    b9f6:	89 54 24 0c          	mov    %edx,0xc(%esp)
    b9fa:	89 34 24             	mov    %esi,(%esp)
    b9fd:	89 7c 24 04          	mov    %edi,0x4(%esp)
    ba01:	e8 0a 29 00 00       	call   e310 <__udivdi3>
    ba06:	eb 26                	jmp    ba2e <ceil+0x7b>
    ba08:	29 c6                	sub    %eax,%esi
    ba0a:	19 d7                	sbb    %edx,%edi
    ba0c:	8b 44 24 18          	mov    0x18(%esp),%eax
    ba10:	8b 54 24 1c          	mov    0x1c(%esp),%edx
    ba14:	89 44 24 08          	mov    %eax,0x8(%esp)
    ba18:	89 54 24 0c          	mov    %edx,0xc(%esp)
    ba1c:	89 34 24             	mov    %esi,(%esp)
    ba1f:	89 7c 24 04          	mov    %edi,0x4(%esp)
    ba23:	e8 e8 28 00 00       	call   e310 <__udivdi3>
    ba28:	83 c0 01             	add    $0x1,%eax
    ba2b:	83 d2 00             	adc    $0x0,%edx
    ba2e:	83 c4 24             	add    $0x24,%esp
    ba31:	5e                   	pop    %esi
    ba32:	5f                   	pop    %edi
    ba33:	c3                   	ret    

0000ba34 <abs>:
    ba34:	56                   	push   %esi
    ba35:	53                   	push   %ebx
    ba36:	8b 44 24 10          	mov    0x10(%esp),%eax
    ba3a:	c1 f8 1f             	sar    $0x1f,%eax
    ba3d:	89 c1                	mov    %eax,%ecx
    ba3f:	89 ce                	mov    %ecx,%esi
    ba41:	33 74 24 0c          	xor    0xc(%esp),%esi
    ba45:	89 f0                	mov    %esi,%eax
    ba47:	89 ce                	mov    %ecx,%esi
    ba49:	33 74 24 10          	xor    0x10(%esp),%esi
    ba4d:	89 f2                	mov    %esi,%edx
    ba4f:	29 c8                	sub    %ecx,%eax
    ba51:	19 ca                	sbb    %ecx,%edx
    ba53:	5b                   	pop    %ebx
    ba54:	5e                   	pop    %esi
    ba55:	c3                   	ret    

0000ba56 <pow>:
    ba56:	53                   	push   %ebx
    ba57:	8b 54 24 08          	mov    0x8(%esp),%edx
    ba5b:	b8 00 00 00 00       	mov    $0x0,%eax
    ba60:	85 d2                	test   %edx,%edx
    ba62:	0f 84 88 00 00 00    	je     baf0 <pow+0x9a>
    ba68:	83 fa 01             	cmp    $0x1,%edx
    ba6b:	74 76                	je     bae3 <pow+0x8d>
    ba6d:	83 fa 02             	cmp    $0x2,%edx
    ba70:	75 10                	jne    ba82 <pow+0x2c>
    ba72:	8b 44 24 0c          	mov    0xc(%esp),%eax
    ba76:	8d 48 ff             	lea    -0x1(%eax),%ecx
    ba79:	b8 02 00 00 00       	mov    $0x2,%eax
    ba7e:	d3 e0                	shl    %cl,%eax
    ba80:	eb 6e                	jmp    baf0 <pow+0x9a>
    ba82:	b8 01 00 00 00       	mov    $0x1,%eax
    ba87:	83 7c 24 0c 00       	cmpl   $0x0,0xc(%esp)
    ba8c:	74 62                	je     baf0 <pow+0x9a>
    ba8e:	83 7c 24 0c 01       	cmpl   $0x1,0xc(%esp)
    ba93:	74 55                	je     baea <pow+0x94>
    ba95:	83 7c 24 0c 02       	cmpl   $0x2,0xc(%esp)
    ba9a:	75 07                	jne    baa3 <pow+0x4d>
    ba9c:	89 d0                	mov    %edx,%eax
    ba9e:	0f af c2             	imul   %edx,%eax
    baa1:	eb 4d                	jmp    baf0 <pow+0x9a>
    baa3:	83 7c 24 0c 03       	cmpl   $0x3,0xc(%esp)
    baa8:	74 12                	je     babc <pow+0x66>
    baaa:	8b 44 24 0c          	mov    0xc(%esp),%eax
    baae:	89 c1                	mov    %eax,%ecx
    bab0:	83 e1 01             	and    $0x1,%ecx
    bab3:	83 f8 01             	cmp    $0x1,%eax
    bab6:	77 0e                	ja     bac6 <pow+0x70>
    bab8:	89 d0                	mov    %edx,%eax
    baba:	eb 34                	jmp    baf0 <pow+0x9a>
